 dealImg

 Timestamp is 5743fd61 (Tue May 24 15:06:09 2016)

 Preferred load address is 0000000180000000

 Start         Length     Name                   Class
 0001:00000000 000001e0H .text                   CODE
 0001:000001e0 00000150H .text$di                CODE
 0001:00000330 000330b0H .text$mn                CODE
 0001:000333e0 00000020H .text$mn$00             CODE
 0001:00033400 000004d0H .text$x                 CODE
 0001:000338d0 000001b0H .text$yd                CODE
 0002:00000000 00000478H .idata$5                DATA
 0002:00000478 00000010H .00cfg                  DATA
 0002:00000488 00000008H .CRT$XCA                DATA
 0002:00000490 00000038H .CRT$XCC                DATA
 0002:000004c8 00000018H .CRT$XCL                DATA
 0002:000004e0 00000010H .CRT$XCU                DATA
 0002:000004f0 00000008H .CRT$XCZ                DATA
 0002:000004f8 00000008H .CRT$XIA                DATA
 0002:00000500 00000030H .CRT$XIC                DATA
 0002:00000530 00000008H .CRT$XIZ                DATA
 0002:00000538 00000008H .CRT$XLA                DATA
 0002:00000540 00000008H .CRT$XLZ                DATA
 0002:00000548 00000008H .CRT$XPA                DATA
 0002:00000550 00000010H .CRT$XPX                DATA
 0002:00000560 00000008H .CRT$XPXA               DATA
 0002:00000568 00000008H .CRT$XPZ                DATA
 0002:00000570 00000008H .CRT$XTA                DATA
 0002:00000578 00000008H .CRT$XTZ                DATA
 0002:00000580 00012698H .rdata                  DATA
 0002:00012c18 00000028H .rdata$T                DATA
 0002:00012c40 00000f48H .rdata$r                DATA
 0002:00013b88 00000010H .rdata$zETW0            DATA
 0002:00013b98 00000077H .rdata$zETW1            DATA
 0002:00013c0f 0000002cH .rdata$zETW2            DATA
 0002:00013c3b 00000001H .rdata$zETW9            DATA
 0002:00013c3c 0000050cH .rdata$zzzdbg           DATA
 0002:00014148 00000008H .rtc$IAA                DATA
 0002:00014150 00000008H .rtc$IZZ                DATA
 0002:00014158 00000008H .rtc$TAA                DATA
 0002:00014160 00000010H .rtc$TZZ                DATA
 0002:00014170 00003068H .xdata                  DATA
 0002:000171d8 000002a8H .xdata$x                DATA
 0002:00017480 00000000H ATL$__a                 DATA
 0002:00017480 00000000H ATL$__z                 DATA
 0002:00017480 00000020H .didat$2                DATA
 0002:000174a0 00000020H .didat$3                DATA
 0002:000174c0 00000140H .didat$4                DATA
 0002:00017600 000009b8H .didat$6                DATA
 0002:00017fb8 00000148H .didat$7                DATA
 0002:00018100 00000050H .edata                  DATA
 0002:00018150 0000008cH .idata$2                DATA
 0002:000181dc 00000014H .idata$3                DATA
 0002:000181f0 00000478H .idata$4                DATA
 0002:00018668 00000a88H .idata$6                DATA
 0003:00000000 00000bf0H .data                   DATA
 0003:00000bf0 00000590H .data$r                 DATA
 0003:00001180 00000140H .didat$5                DATA
 0003:000012c0 00001aa4H .bss                    DATA
 0004:00000000 00003000H .pdata                  DATA
 0005:00000000 000000b8H .gfids$x                DATA
 0005:000000b8 000001f4H .gfids$y                DATA
 0006:00000000 00000004H .tls                    DATA
 0006:00000004 00000004H .tls$                   DATA
 0006:00000008 00000001H .tls$ZZZ                DATA
 0007:00000000 00000060H .rsrc$01                DATA
 0007:00000060 00000180H .rsrc$02                DATA

  Address         Publics by Value              Rva+Base               Lib:Object

 0000:00000000       __guard_iat_table          0000000000000000     <absolute>
 0000:00000000       __dynamic_value_reloc_table 0000000000000000     <absolute>
 0000:00000000       __guard_iat_count          0000000000000000     <absolute>
 0000:00000000       __guard_longjmp_table      0000000000000000     <absolute>
 0000:00000000       __guard_longjmp_count      0000000000000000     <absolute>
 0000:00000000       __guard_fids_count         0000000000000000     <absolute>
 0000:00000000       ___safe_se_handler_table   0000000000000000     <absolute>
 0000:00000000       ___safe_se_handler_count   0000000000000000     <absolute>
 0000:00000000       __guard_fids_table         0000000000000000     <absolute>
 0000:00000100       __guard_flags              0000000000000100     <absolute>
 0000:00000000       __ImageBase                0000000180000000     <linker-defined>
 0001:00000000       ?TraceLoggingRegister@__vcrt_trace_logging_provider@@YAJPEBU_TlgProvider_t@1@PEBU_GUID@@P6AX1KE_K2PEAU_EVENT_FILTER_DESCRIPTOR@@PEAX@Z4@Z 0000000180001000 f i libvcruntime:telemetry.obj
 0001:0000007c       ?_TlgEnableCallback@__vcrt_trace_logging_provider@@YAXPEBU_GUID@@KE_K1PEAU_EVENT_FILTER_DESCRIPTOR@@PEAX@Z 000000018000107c f i libvcruntime:telemetry.obj
 0001:00000140       ?_TlgWrite@__vcrt_trace_logging_provider@@YAJPEBU_TlgProvider_t@1@PEFBXPEBU_GUID@@2IPEAU_EVENT_DATA_DESCRIPTOR@@@Z 0000000180001140 f i libvcruntime:telemetry.obj
 0001:00000330       ?_AtlInitializeCriticalSectionEx@ATL@@YAHPEAU_RTL_CRITICAL_SECTION@@KK@Z 0000000180001330 f i addon.obj
 0001:00000340       ?Img@dealImg@@YAXAEBV?$FunctionCallbackInfo@VValue@v8@@@v8@@@Z 0000000180001340 f   addon.obj
 0001:00000350       ?InitAll@dealImg@@YAXV?$Local@VObject@v8@@@v8@@0@Z 0000000180001350 f   addon.obj
 0001:00000420       ?OnBeforeProcess@FCImageEffect@@UEAAXAEAVFCObjImage@@@Z 0000000180001420 f i dealImg.obj
 0001:00000420       ?OnFinishPixel@FCEffectBlur_Gauss@@MEAAXAEAVFCObjImage@@HHPEAE@Z 0000000180001420 f i dealImg.obj
 0001:00000420       __except_validate_context_record 0000000180001420 f i libvcruntime:jbcxrval.obj
 0001:00000420       ?_Unlock@?$basic_streambuf@DU?$char_traits@D@std@@@std@@UEAAXXZ 0000000180001420 f i libcpmt:cout.obj
 0001:00000420       ?imbue@?$basic_streambuf@DU?$char_traits@D@std@@@std@@MEAAXAEBVlocale@2@@Z 0000000180001420 f i libcpmt:cout.obj
 0001:00000420       ?ProcessPixel@FCImageEffect@@UEAAXAEAVFCObjImage@@HHPEAE@Z 0000000180001420 f i dealImg.obj
 0001:00000420       ?_Doraise@exception@stdext@@MEBAXXZ 0000000180001420 f i dealImg.obj
 0001:00000420       ?ProcessWholeImage@FCImageEffect@@UEAAXAEAVFCObjImage@@PEAVFCProgressObserver@@@Z 0000000180001420 f i dealImg.obj
 0001:00000420       ?__global_delete@@YAXPEAX_K@Z 0000000180001420 f i * CIL library *:* CIL module *
 0001:00000420       ?_Lock@?$basic_streambuf@DU?$char_traits@D@std@@@std@@UEAAXXZ 0000000180001420 f i libcpmt:cout.obj
 0001:00000420       _guard_check_icall_nop     0000000180001420 f i LIBCMT:guard_support.obj
 0001:00000420       ?__empty_global_delete@@YAXPEAX_K@Z 0000000180001420 f i addon.obj
 0001:00000430       ?what@exception@stdext@@UEBAPEBDXZ 0000000180001430 f i dealImg.obj
 0001:00000450       ??_Gruntime_error@std@@UEAAPEAXI@Z 0000000180001450 f i dealImg.obj
 0001:00000450       ??_Eruntime_error@std@@UEAAPEAXI@Z 0000000180001450 f i * CIL library *:* CIL module *
 0001:00000450       ??_Gexception@stdext@@UEAAPEAXI@Z 0000000180001450 f i dealImg.obj
 0001:00000450       ??_Eexception@stdext@@UEAAPEAXI@Z 0000000180001450 f i * CIL library *:* CIL module *
 0001:00000480       __local_stdio_printf_options 0000000180001480 f i dealImg.obj
 0001:00000490       ?_Deallocate@std@@YAXPEAX_K1@Z 0000000180001490 f i dealImg.obj
 0001:00000500       ??0_Locinfo@std@@QEAA@PEBD@Z 0000000180001500 f i dealImg.obj
 0001:000005c0       ??1_Locinfo@std@@QEAA@XZ   00000001800015c0 f i dealImg.obj
 0001:00000660       ??_E_Facet_base@std@@UEAAPEAXI@Z 0000000180001660 f i * CIL library *:* CIL module *
 0001:00000660       ??_G_Facet_base@std@@UEAAPEAXI@Z 0000000180001660 f i dealImg.obj
 0001:00000690       ?_Incref@facet@locale@std@@UEAAXXZ 0000000180001690 f i dealImg.obj
 0001:000006a0       ?_Decref@facet@locale@std@@UEAAPEAV_Facet_base@3@XZ 00000001800016a0 f i dealImg.obj
 0001:000006b0       ?_Getcat@?$ctype@D@std@@SA_KPEAPEBVfacet@locale@2@PEBV42@@Z 00000001800016b0 f i dealImg.obj
 0001:00000770       ?do_tolower@?$ctype@D@std@@MEBADD@Z 0000000180001770 f i dealImg.obj
 0001:00000780       ?do_tolower@?$ctype@D@std@@MEBAPEBDPEADPEBD@Z 0000000180001780 f i dealImg.obj
 0001:000007e0       ?do_toupper@?$ctype@D@std@@MEBADD@Z 00000001800017e0 f i dealImg.obj
 0001:000007f0       ?do_toupper@?$ctype@D@std@@MEBAPEBDPEADPEBD@Z 00000001800017f0 f i dealImg.obj
 0001:00000850       ?do_widen@?$ctype@D@std@@MEBADD@Z 0000000180001850 f i dealImg.obj
 0001:00000850       ?do_narrow@?$ctype@D@std@@MEBADDD@Z 0000000180001850 f i dealImg.obj
 0001:00000860       ?do_widen@?$ctype@D@std@@MEBAPEBDPEBD0PEAD@Z 0000000180001860 f i dealImg.obj
 0001:00000880       ?do_narrow@?$ctype@D@std@@MEBAPEBDPEBD0DPEAD@Z 0000000180001880 f i dealImg.obj
 0001:000008a0       ??_G?$ctype@D@std@@MEAAPEAXI@Z 00000001800018a0 f i dealImg.obj
 0001:000008a0       ??_E?$ctype@D@std@@MEAAPEAXI@Z 00000001800018a0 f i * CIL library *:* CIL module *
 0001:00000910       ??_E_Iostream_error_category@std@@UEAAPEAXI@Z 0000000180001910 f i * CIL library *:* CIL module *
 0001:00000910       ??_Eerror_category@std@@UEAAPEAXI@Z 0000000180001910 f i * CIL library *:* CIL module *
 0001:00000910       ??_Gerror_category@std@@UEAAPEAXI@Z 0000000180001910 f i dealImg.obj
 0001:00000910       ??_G_Iostream_error_category@std@@UEAAPEAXI@Z 0000000180001910 f i dealImg.obj
 0001:00000940       ?default_error_condition@error_category@std@@UEBA?AVerror_condition@2@H@Z 0000000180001940 f i dealImg.obj
 0001:00000950       ?equivalent@error_category@std@@UEBA_NHAEBVerror_condition@2@@Z 0000000180001950 f i dealImg.obj
 0001:000009b0       ?equivalent@error_category@std@@UEBA_NAEBVerror_code@2@H@Z 00000001800019b0 f i dealImg.obj
 0001:000009d0       ??0_System_error@std@@IEAA@Verror_code@1@AEBV?$basic_string@DU?$char_traits@D@std@@V?$allocator@D@2@@1@@Z 00000001800019d0 f i dealImg.obj
 0001:00000c10       ??_Efailure@ios_base@std@@UEAAPEAXI@Z 0000000180001c10 f i * CIL library *:* CIL module *
 0001:00000c10       ??_G_System_error@std@@UEAAPEAXI@Z 0000000180001c10 f i dealImg.obj
 0001:00000c10       ??_Gfailure@ios_base@std@@UEAAPEAXI@Z 0000000180001c10 f i dealImg.obj
 0001:00000c10       ??_E_System_error@std@@UEAAPEAXI@Z 0000000180001c10 f i * CIL library *:* CIL module *
 0001:00000c40       ?name@_Iostream_error_category@std@@UEBAPEBDXZ 0000000180001c40 f i dealImg.obj
 0001:00000c50       ?message@_Iostream_error_category@std@@UEBA?AV?$basic_string@DU?$char_traits@D@std@@V?$allocator@D@2@@2@H@Z 0000000180001c50 f i dealImg.obj
 0001:00000cd0       ?clear@ios_base@std@@QEAAXH_N@Z 0000000180001cd0 f i dealImg.obj
 0001:00001080       ?NODE_SET_PROTOTYPE_METHOD@node@@YAXV?$Local@VFunctionTemplate@v8@@@v8@@PEBDP6AXAEBV?$FunctionCallbackInfo@VValue@v8@@@3@@Z@Z 0000000180002080 f i dealImg.obj
 0001:000011a0       ??1ObjectWrap@node@@UEAA@XZ 00000001800021a0 f i dealImg.obj
 0001:00001210       ?Wrap@ObjectWrap@node@@IEAAXV?$Local@VObject@v8@@@v8@@@Z 0000000180002210 f i dealImg.obj
 0001:000012e0       ?Ref@ObjectWrap@node@@MEAAXXZ 00000001800022e0 f i dealImg.obj
 0001:00001320       ?Unref@ObjectWrap@node@@MEAAXXZ 0000000180002320 f i dealImg.obj
 0001:000013d0       ?WeakCallback@ObjectWrap@node@@CAXAEBV?$WeakCallbackData@VObject@v8@@VObjectWrap@node@@@v8@@@Z 00000001800023d0 f i dealImg.obj
 0001:000014e0       ??_GObjectWrap@node@@UEAAPEAXI@Z 00000001800024e0 f i dealImg.obj
 0001:000014e0       ??_EObjectWrap@node@@UEAAPEAXI@Z 00000001800024e0 f i * CIL library *:* CIL module *
 0001:00001520       ??_EImage@Gdiplus@@UEAAPEAXI@Z 0000000180002520 f i * CIL library *:* CIL module *
 0001:00001520       ??_GBitmap@Gdiplus@@UEAAPEAXI@Z 0000000180002520 f i dealImg.obj
 0001:00001520       ??_GImage@Gdiplus@@UEAAPEAXI@Z 0000000180002520 f i dealImg.obj
 0001:00001520       ??_EBitmap@Gdiplus@@UEAAPEAXI@Z 0000000180002520 f i * CIL library *:* CIL module *
 0001:00001580       ?Clone@Image@Gdiplus@@UEAAPEAV12@XZ 0000000180002580 f i dealImg.obj
 0001:000015e0       ?FClamp0255@@YAEH@Z        00000001800025e0 f i dealImg.obj
 0001:00001600       ?DrawBitmap@FCImageDrawDC@@SAXPEAUHDC__@@UtagRECT@@PEAUHBITMAP__@@PEAU3@@Z 0000000180002600 f i dealImg.obj
 0001:00001790       ?AlphaBlendPixel@FCColor@@SAXPEAXUtagRGBQUAD@@@Z 0000000180002790 f i dealImg.obj
 0001:00001860       ?RGBtoHLS@FCColor@@SAXPEBXAEAN11@Z 0000000180002860 f i dealImg.obj
 0001:00001a50       ?HLStoRGB@FCColor@@SA?AUtagRGBQUAD@@NNN@Z 0000000180002a50 f i dealImg.obj
 0001:00001b60       ?RGBtoHSV@FCColor@@SAXPEBXAEAN11@Z 0000000180002b60 f i dealImg.obj
 0001:00001d20       ?HSVtoRGB@FCColor@@SA?AUtagRGBQUAD@@NNN@Z 0000000180002d20 f i dealImg.obj
 0001:00001e90       ?GetBilinear@FCColor@@SA?AUtagRGBQUAD@@NNHQEAPEAE@Z 0000000180002e90 f i dealImg.obj
 0001:000021e0       ?HLS_Value@FCColor@@CANNNN@Z 00000001800031e0 f i dealImg.obj
 0001:00002260       ?DoubleRGB_to_RGB@FCColor@@CA?AUtagRGBQUAD@@NNN@Z 0000000180003260 f i dealImg.obj
 0001:000022e0       ??_EFCObjGraph@@UEAAPEAXI@Z 00000001800032e0 f i * CIL library *:* CIL module *
 0001:000022e0       ??_GFCObjGraph@@UEAAPEAXI@Z 00000001800032e0 f i dealImg.obj
 0001:00002310       ??_EFCImageProperty@@UEAAPEAXI@Z 0000000180003310 f i * CIL library *:* CIL module *
 0001:00002310       ??_GFCImageProperty@@UEAAPEAXI@Z 0000000180003310 f i dealImg.obj
 0001:000023a0       ?LoadImageFile@FCImageCodec@@UEAA_NPEB_WAEAV?$vector@PEAVFCObjImage@@V?$allocator@PEAVFCObjImage@@@std@@@std@@AEAVFCImageProperty@@@Z 00000001800033a0 f i dealImg.obj
 0001:000023d0       ?LoadImageMemory@FCImageCodec@@UEAA_NPEBXHAEAV?$vector@PEAVFCObjImage@@V?$allocator@PEAVFCObjImage@@@std@@@std@@AEAVFCImageProperty@@@Z 00000001800033d0 f i dealImg.obj
 0001:00002400       ?SaveImageFile@FCImageCodec@@UEAA_NPEB_WAEBV?$vector@PEBVFCObjImage@@V?$allocator@PEBVFCObjImage@@@std@@@std@@AEBVFCImageProperty@@@Z 0000000180003400 f i dealImg.obj
 0001:00002430       ??_GFCImageCodec@@UEAAPEAXI@Z 0000000180003430 f i dealImg.obj
 0001:00002430       ??_EFCImageCodec@@UEAAPEAXI@Z 0000000180003430 f i * CIL library *:* CIL module *
 0001:00002460       ?QueryImageFileType@FCImageCodecFactory@@UEAA?AW4IMAGE_TYPE@@PEB_W@Z 0000000180003460 f i dealImg.obj
 0001:00002470       ?GetTypeByFileExt@FCImageCodecFactory@@SA?AW4IMAGE_TYPE@@PEB_W@Z 0000000180003470 f i dealImg.obj
 0001:00002b20       ??_EFCImageCodecFactory@@UEAAPEAXI@Z 0000000180003b20 f i * CIL library *:* CIL module *
 0001:00002b20       ??_GFCImageCodecFactory_Gdiplus@@UEAAPEAXI@Z 0000000180003b20 f i dealImg.obj
 0001:00002b20       ??_EFCImageCodecFactory_Gdiplus@@UEAAPEAXI@Z 0000000180003b20 f i * CIL library *:* CIL module *
 0001:00002b20       ??_GFCImageCodecFactory@@UEAAPEAXI@Z 0000000180003b20 f i dealImg.obj
 0001:00002b50       ?do_max_length@codecvt_base@std@@MEBAHXZ 0000000180003b50 f i libcpmt:cout.obj
 0001:00002b50       _get_startup_argv_mode     0000000180003b50 f i LIBCMT:argv_mode.obj
 0001:00002b50       ?do_encoding@codecvt_base@std@@MEBAHXZ 0000000180003b50 f i libcpmt:cout.obj
 0001:00002b50       ?QueryProcessType@FCImageEffect@@UEAA?AW4PROCESS_TYPE@1@XZ 0000000180003b50 f i dealImg.obj
 0001:00002b50       DllMain                    0000000180003b50 f i LIBCMT:dll_dllmain_stub.obj
 0001:00002b60       ??_EFCEffectGrayscale@@UEAAPEAXI@Z 0000000180003b60 f i * CIL library *:* CIL module *
 0001:00002b60       ??_EFCImageEffect@@UEAAPEAXI@Z 0000000180003b60 f i * CIL library *:* CIL module *
 0001:00002b60       ??_GFCEffectGrayscale@@UEAAPEAXI@Z 0000000180003b60 f i dealImg.obj
 0001:00002b60       ??_GFCImageEffect@@UEAAPEAXI@Z 0000000180003b60 f i dealImg.obj
 0001:00002b90       ?Save@FCObjImage@@QEBA_NPEB_WH@Z 0000000180003b90 f i dealImg.obj
 0001:00002c90       ??_GFCObjImage@@UEAAPEAXI@Z 0000000180003c90 f i dealImg.obj
 0001:00002c90       ??_EFCObjImage@@UEAAPEAXI@Z 0000000180003c90 f i * CIL library *:* CIL module *
 0001:00002d20       ?AllocPixelBuffer@FCObjImage@@AEAAXXZ 0000000180003d20 f i dealImg.obj
 0001:00002ec0       ?Create@FCObjImage@@QEAA_NHHH@Z 0000000180003ec0 f i dealImg.obj
 0001:00003090       ?Destroy@FCObjImage@@QEAAXXZ 0000000180004090 f i dealImg.obj
 0001:000030f0       ?GetBits@FCObjImage@@QEBAPEAEHH@Z 00000001800040f0 f i dealImg.obj
 0001:00003170       ?SetColorTable@FCObjImage@@QEAAXQEBUtagRGBQUAD@@@Z 0000000180004170 f i dealImg.obj
 0001:00003290       ?ConvertToTrueColor@FCObjImage@@AEAAXH@Z 0000000180004290 f i dealImg.obj
 0001:00003590       ??4FCObjImage@@QEAAAEAV0@AEBV0@@Z 0000000180004590 f i dealImg.obj
 0001:00003710       ?Load@FCObjImage@@SA_NPEB_WAEAV?$vector@PEAVFCObjImage@@V?$allocator@PEAVFCObjImage@@@std@@@std@@PEAVFCImageProperty@@@Z 0000000180004710 f i dealImg.obj
 0001:00003890       ?Load@FCObjImage@@QEAA_NPEB_WPEAVFCImageProperty@@@Z 0000000180004890 f i dealImg.obj
 0001:00003990       ?Save@FCObjImage@@QEBA_NPEB_WAEBVFCImageProperty@@@Z 0000000180004990 f i dealImg.obj
 0001:00003b40       ?ApplyEffect@FCObjImage@@QEAAXAEAVFCImageEffect@@PEAVFCProgressObserver@@@Z 0000000180004b40 f i dealImg.obj
 0001:00003ca0       ?CreateBitmap@FCObjImage@@QEBAPEAVBitmap@Gdiplus@@H@Z 0000000180004ca0 f i dealImg.obj
 0001:00004070       ?FromBitmap@FCObjImage@@QEAA_NAEAVBitmap@Gdiplus@@@Z 0000000180005070 f i dealImg.obj
 0001:00004370       ?Draw@FCObjImage@@QEBAXPEAUHDC__@@UtagRECT@@PEAU3@@Z 0000000180005370 f i dealImg.obj
 0001:00004500       ??_GFCAutoInitGDIPlus@@UEAAPEAXI@Z 0000000180005500 f i dealImg.obj
 0001:00004500       ??_EFCAutoInitGDIPlus@@UEAAPEAXI@Z 0000000180005500 f i * CIL library *:* CIL module *
 0001:00004550       ??0FCImageCodec_Gdiplus@@QEAA@XZ 0000000180005550 f i dealImg.obj
 0001:000045e0       ?CreateBitmapFromMemory@FCImageCodec_Gdiplus@@SAPEAVBitmap@Gdiplus@@PEBX_K@Z 00000001800055e0 f i dealImg.obj
 0001:00004660       ?GetPropertyFromBitmap@FCImageCodec_Gdiplus@@SAXAEAVBitmap@Gdiplus@@AEAVFCImageProperty@@@Z 0000000180005660 f i dealImg.obj
 0001:00004aa0       ?AddPropertyToBitmap@FCImageCodec_Gdiplus@@SAXAEBVFCImageProperty@@AEAVBitmap@Gdiplus@@@Z 0000000180005aa0 f i dealImg.obj
 0001:00005270       ?LoadImageFile@FCImageCodec_Gdiplus@@EEAA_NPEB_WAEAV?$vector@PEAVFCObjImage@@V?$allocator@PEAVFCObjImage@@@std@@@std@@AEAVFCImageProperty@@@Z 0000000180006270 f i dealImg.obj
 0001:000052e0       ?LoadImageMemory@FCImageCodec_Gdiplus@@EEAA_NPEBXHAEAV?$vector@PEAVFCObjImage@@V?$allocator@PEAVFCObjImage@@@std@@@std@@AEAVFCImageProperty@@@Z 00000001800062e0 f i dealImg.obj
 0001:00005340       ?StoreMultiFrame@FCImageCodec_Gdiplus@@CA_NAEAVBitmap@Gdiplus@@AEAV?$vector@PEAVFCObjImage@@V?$allocator@PEAVFCObjImage@@@std@@@std@@AEAVFCImageProperty@@@Z 0000000180006340 f i dealImg.obj
 0001:00005670       ?SaveImageFile@FCImageCodec_Gdiplus@@EEAA_NPEB_WAEBV?$vector@PEBVFCObjImage@@V?$allocator@PEBVFCObjImage@@@std@@@std@@AEBVFCImageProperty@@@Z 0000000180006670 f i dealImg.obj
 0001:000057d0       ?CreateStreamFromMemory@FCImageCodec_Gdiplus@@CAPEAUIStream@@PEBX_K@Z 00000001800067d0 f i dealImg.obj
 0001:00005870       ?GetImageEncoderClsid@FCImageCodec_Gdiplus@@CAHW4IMAGE_TYPE@@AEAU_GUID@@@Z 0000000180006870 f i dealImg.obj
 0001:00005aa0       ??_GFCImageCodec_Gdiplus@@UEAAPEAXI@Z 0000000180006aa0 f i dealImg.obj
 0001:00005aa0       ??_EFCImageCodec_Gdiplus@@UEAAPEAXI@Z 0000000180006aa0 f i * CIL library *:* CIL module *
 0001:00005af0       ?CreateImageCodec@FCImageCodecFactory_Gdiplus@@EEAAPEAVFCImageCodec@@W4IMAGE_TYPE@@@Z 0000000180006af0 f i dealImg.obj
 0001:00005b60       ?DivideWeight@FCEffectBlur_Gauss@@CAXAEAV?$vector@NV?$allocator@N@std@@@std@@@Z 0000000180006b60 f i dealImg.obj
 0001:00005c10       ?MakeKernel@FCEffectBlur_Gauss@@AEAAXN@Z 0000000180006c10 f i dealImg.obj
 0001:00005da0       ?BlurOnePixel@FCEffectBlur_Gauss@@AEAAXPEAEPEBUtagRGBQUAD@@@Z 0000000180006da0 f i dealImg.obj
 0001:00005fc0       ?FillPadding@FCEffectBlur_Gauss@@AEAAXAEAPEAUtagRGBQUAD@@PEBX@Z 0000000180006fc0 f i dealImg.obj
 0001:000060b0       ?HorizonGetLine@FCEffectBlur_Gauss@@AEAAXAEAVFCObjImage@@HPEAUtagRGBQUAD@@@Z 00000001800070b0 f i dealImg.obj
 0001:000062d0       ?VerticalGetLine@FCEffectBlur_Gauss@@AEAAXAEAVFCObjImage@@HPEAUtagRGBQUAD@@@Z 00000001800072d0 f i dealImg.obj
 0001:000064f0       ?BlurVertical@FCEffectBlur_Gauss@@AEAAXAEAVFCObjImage@@PEAVFCProgressObserver@@@Z 00000001800074f0 f i dealImg.obj
 0001:00006620       ?BlurHorizon@FCEffectBlur_Gauss@@AEAAXAEAVFCObjImage@@PEAVFCProgressObserver@@@Z 0000000180007620 f i dealImg.obj
 0001:000067b0       ?QueryProcessType@FCEffectBlur_Gauss@@EEAA?AW4PROCESS_TYPE@FCImageEffect@@XZ 00000001800077b0 f i dealImg.obj
 0001:000067b0       ?sync@?$basic_streambuf@DU?$char_traits@D@std@@@std@@MEAAHXZ 00000001800077b0 f i libcpmt:cout.obj
 0001:000067b0       ?showmanyc@?$basic_streambuf@DU?$char_traits@D@std@@@std@@MEAA_JXZ 00000001800077b0 f i libcpmt:cout.obj
 0001:000067c0       ?ProcessWholeImage@FCEffectBlur_Gauss@@EEAAXAEAVFCObjImage@@PEAVFCProgressObserver@@@Z 00000001800077c0 f i dealImg.obj
 0001:00006860       ??_EFCEffectBlur_Gauss@@UEAAPEAXI@Z 0000000180007860 f i * CIL library *:* CIL module *
 0001:00006860       ??_GFCEffectBlur_Gauss@@UEAAPEAXI@Z 0000000180007860 f i dealImg.obj
 0001:000068d0       ?ProcessPixel@FCEffectGrayscale@@EEAAXAEAVFCObjImage@@HHPEAE@Z 00000001800078d0 f i dealImg.obj
 0001:00006910       ?ProcessPixel@FCEffectAdjustRGB@@EEAAXAEAVFCObjImage@@HHPEAE@Z 0000000180007910 f i dealImg.obj
 0001:00006990       ??_EFCEffectBlinds@@UEAAPEAXI@Z 0000000180007990 f i * CIL library *:* CIL module *
 0001:00006990       ??_EFCEffectAutoColorEnhance@@UEAAPEAXI@Z 0000000180007990 f i * CIL library *:* CIL module *
 0001:00006990       ??_GFCEffectAdjustRGB@@UEAAPEAXI@Z 0000000180007990 f i dealImg.obj
 0001:00006990       ??_GFCEffectAutoColorEnhance@@UEAAPEAXI@Z 0000000180007990 f i dealImg.obj
 0001:00006990       ??_GFCEffectBlinds@@UEAAPEAXI@Z 0000000180007990 f i dealImg.obj
 0001:00006990       ??_EFCEffectAdjustRGB@@UEAAPEAXI@Z 0000000180007990 f i * CIL library *:* CIL module *
 0001:000069c0       ??0FCEffectGetHistogram@@QEAA@XZ 00000001800079c0 f i dealImg.obj
 0001:00006ae0       ?ProcessPixel@FCEffectGetHistogram@@EEAAXAEAVFCObjImage@@HHPEAE@Z 0000000180007ae0 f i dealImg.obj
 0001:00006b10       ??_EFCEffectGetHistogram@@UEAAPEAXI@Z 0000000180007b10 f i * CIL library *:* CIL module *
 0001:00006b10       ??_GFCEffectGetHistogram@@UEAAPEAXI@Z 0000000180007b10 f i dealImg.obj
 0001:00006b50       ??1FCEffectGetHistogram@@UEAA@XZ 0000000180007b50 f i dealImg.obj
 0001:00006bf0       ?OnBeforeProcess@FCEffectMosaic@@EEAAXAEAVFCObjImage@@@Z 0000000180007bf0 f i dealImg.obj
 0001:00006c00       ?ProcessPixel@FCEffectMosaic@@EEAAXAEAVFCObjImage@@HHPEAE@Z 0000000180007c00 f i dealImg.obj
 0001:00006e10       ?GetBlockAverage@FCEffectMosaic@@AEAA?AUtagRGBQUAD@@HH@Z 0000000180007e10 f i dealImg.obj
 0001:000070f0       ??_EFCEffectMosaic@@UEAAPEAXI@Z 00000001800080f0 f i * CIL library *:* CIL module *
 0001:000070f0       ??_GFCEffectMosaic@@UEAAPEAXI@Z 00000001800080f0 f i dealImg.obj
 0001:00007130       ??1FCEffectMosaic@@UEAA@XZ 0000000180008130 f i dealImg.obj
 0001:000071b0       ?OnBeforeProcess@FCEffectLUT@@EEAAXAEAVFCObjImage@@@Z 00000001800081b0 f i dealImg.obj
 0001:00007200       ?ProcessPixel@FCEffectLUT@@EEAAXAEAVFCObjImage@@HHPEAE@Z 0000000180008200 f i dealImg.obj
 0001:00007230       ?InitLUTtable@FCEffectBrightnessContrast@@EEAAHH@Z 0000000180008230 f i dealImg.obj
 0001:00007290       ??_GFCEffectGamma@@UEAAPEAXI@Z 0000000180008290 f i dealImg.obj
 0001:00007290       ??_GFCEffectBrightnessContrast@@UEAAPEAXI@Z 0000000180008290 f i dealImg.obj
 0001:00007290       ??_EFCEffectBrightnessContrast@@UEAAPEAXI@Z 0000000180008290 f i * CIL library *:* CIL module *
 0001:00007290       ??_EFCEffectGamma@@UEAAPEAXI@Z 0000000180008290 f i * CIL library *:* CIL module *
 0001:000072c0       ?InitLUTtable@FCEffectGamma@@EEAAHH@Z 00000001800082c0 f i dealImg.obj
 0001:00007340       ?InitLUTtable@FCEffectInvert@@EEAAHH@Z 0000000180008340 f i dealImg.obj
 0001:00007350       ??_GFCEffectInvert@@UEAAPEAXI@Z 0000000180008350 f i dealImg.obj
 0001:00007350       ??_EFCEffectInvert@@UEAAPEAXI@Z 0000000180008350 f i * CIL library *:* CIL module *
 0001:00007380       ??0FCEffectColorTone@@QEAA@UtagRGBQUAD@@H@Z 0000000180008380 f i dealImg.obj
 0001:000074b0       ?ProcessPixel@FCEffectColorTone@@EEAAXAEAVFCObjImage@@HHPEAE@Z 00000001800084b0 f i dealImg.obj
 0001:00007520       ??_EFCEffectColorTone@@UEAAPEAXI@Z 0000000180008520 f i * CIL library *:* CIL module *
 0001:00007520       ??_GFCEffectColorTone@@UEAAPEAXI@Z 0000000180008520 f i dealImg.obj
 0001:00007550       ?g_codec_factory@FCObjImage@@CAAEAV?$auto_ptr@VFCImageCodecFactory@@@std@@XZ 0000000180008550 f i dealImg.obj
 0001:000075d0       ?IsSupport@FCImageEffect@@UEAA_NAEBVFCObjImage@@@Z 00000001800085d0 f i dealImg.obj
 0001:000075f0       ?OnBeforeProcess@FCEffectAutoContrast@@EEAAXAEAVFCObjImage@@@Z 00000001800085f0 f i dealImg.obj
 0001:000077e0       ?ProcessPixel@FCEffectAutoContrast@@EEAAXAEAVFCObjImage@@HHPEAE@Z 00000001800087e0 f i dealImg.obj
 0001:00007820       ??_GFCEffectAutoContrast@@UEAAPEAXI@Z 0000000180008820 f i dealImg.obj
 0001:00007820       ??_EFCEffectAutoContrast@@UEAAPEAXI@Z 0000000180008820 f i * CIL library *:* CIL module *
 0001:00007850       ?OnBeforeProcess@FCEffectAutoColorEnhance@@EEAAXAEAVFCObjImage@@@Z 0000000180008850 f i dealImg.obj
 0001:000079d0       ?ProcessPixel@FCEffectAutoColorEnhance@@EEAAXAEAVFCObjImage@@HHPEAE@Z 00000001800089d0 f i dealImg.obj
 0001:00007af0       ?ProcessPixel@FCEffectNoisify@@EEAAXAEAVFCObjImage@@HHPEAE@Z 0000000180008af0 f i dealImg.obj
 0001:00007bc0       ?GenGauss@FCEffectNoisify@@AEAAHXZ 0000000180008bc0 f i dealImg.obj
 0001:00007c30       ??_EFCEffect3DGrid@@UEAAPEAXI@Z 0000000180008c30 f i * CIL library *:* CIL module *
 0001:00007c30       ??_GFCEffectNoisify@@UEAAPEAXI@Z 0000000180008c30 f i dealImg.obj
 0001:00007c30       ??_GFCEffect3DGrid@@UEAAPEAXI@Z 0000000180008c30 f i dealImg.obj
 0001:00007c30       ??_EFCEffectNoisify@@UEAAPEAXI@Z 0000000180008c30 f i * CIL library *:* CIL module *
 0001:00007c60       ?ProcessPixel@FCEffect3DGrid@@EEAAXAEAVFCObjImage@@HHPEAE@Z 0000000180008c60 f i dealImg.obj
 0001:00007d80       ?ProcessPixel@FCEffectBlinds@@EEAAXAEAVFCObjImage@@HHPEAE@Z 0000000180008d80 f i dealImg.obj
 0001:00007e10       ?IsSupport@FCEffectBilinearDistort@@MEAA_NAEBVFCObjImage@@@Z 0000000180008e10 f i dealImg.obj
 0001:00007e30       ?OnBeforeProcess@FCEffectBilinearDistort@@MEAAXAEAVFCObjImage@@@Z 0000000180008e30 f i dealImg.obj
 0001:00007e40       ?ProcessPixel@FCEffectBilinearDistort@@EEAAXAEAVFCObjImage@@HHPEAE@Z 0000000180008e40 f i dealImg.obj
 0001:000080c0       ?calc_undistorted_coord@FCEffectWave@@EEAAXHHAEAN0@Z 00000001800090c0 f i dealImg.obj
 0001:00008260       ??_EFCEffectWave@@UEAAPEAXI@Z 0000000180009260 f i * CIL library *:* CIL module *
 0001:00008260       ??_EFCEffectBulge@@UEAAPEAXI@Z 0000000180009260 f i * CIL library *:* CIL module *
 0001:00008260       ??_GFCEffectWave@@UEAAPEAXI@Z 0000000180009260 f i dealImg.obj
 0001:00008260       ??_GFCEffectBulge@@UEAAPEAXI@Z 0000000180009260 f i dealImg.obj
 0001:000082a0       ??1FCEffectBilinearDistort@@UEAA@XZ 00000001800092a0 f i dealImg.obj
 0001:00008320       ??0FCEffectBulge@@QEAA@HNN@Z 0000000180009320 f i dealImg.obj
 0001:000083b0       ?calc_undistorted_coord@FCEffectBulge@@EEAAXHHAEAN0@Z 00000001800093b0 f i dealImg.obj
 0001:00008560       ??0FCEffectTwist@@QEAA@HHNN@Z 0000000180009560 f i dealImg.obj
 0001:00008640       ?calc_undistorted_coord@FCEffectTwist@@EEAAXHHAEAN0@Z 0000000180009640 f i dealImg.obj
 0001:00008820       ??_GFCEffectTwist@@UEAAPEAXI@Z 0000000180009820 f i dealImg.obj
 0001:00008820       ??_EFCEffectTwist@@UEAAPEAXI@Z 0000000180009820 f i * CIL library *:* CIL module *
 0001:00008860       ?OnBeforeProcess@FCEffectShear@@EEAAXAEAVFCObjImage@@@Z 0000000180009860 f i dealImg.obj
 0001:000088b0       ?calc_undistorted_coord@FCEffectShear@@EEAAXHHAEAN0@Z 00000001800098b0 f i dealImg.obj
 0001:00008980       ??_GFCEffectShear@@UEAAPEAXI@Z 0000000180009980 f i dealImg.obj
 0001:00008980       ??_EFCEffectShear@@UEAAPEAXI@Z 0000000180009980 f i * CIL library *:* CIL module *
 0001:000089c0       ?RotatePoint@FCEffectRotate@@CAXAEAN0NNN@Z 00000001800099c0 f i dealImg.obj
 0001:00008a90       ?OnBeforeProcess@FCEffectRotate@@EEAAXAEAVFCObjImage@@@Z 0000000180009a90 f i dealImg.obj
 0001:00008e30       ?calc_undistorted_coord@FCEffectRotate@@EEAAXHHAEAN0@Z 0000000180009e30 f i dealImg.obj
 0001:00008f10       ??_GFCEffectRotate@@UEAAPEAXI@Z 0000000180009f10 f i dealImg.obj
 0001:00008f10       ??_EFCEffectRipple@@UEAAPEAXI@Z 0000000180009f10 f i * CIL library *:* CIL module *
 0001:00008f10       ??_GFCEffectRipple@@UEAAPEAXI@Z 0000000180009f10 f i dealImg.obj
 0001:00008f10       ??_EFCEffectRotate@@UEAAPEAXI@Z 0000000180009f10 f i * CIL library *:* CIL module *
 0001:00008f50       ?OnBeforeProcess@FCEffectRibbon@@EEAAXAEAVFCObjImage@@@Z 0000000180009f50 f i dealImg.obj
 0001:000094e0       ?calc_undistorted_coord@FCEffectRibbon@@EEAAXHHAEAN0@Z 000000018000a4e0 f i dealImg.obj
 0001:00009520       ??_GFCEffectRibbon@@UEAAPEAXI@Z 000000018000a520 f i dealImg.obj
 0001:00009520       ??_EFCEffectRibbon@@UEAAPEAXI@Z 000000018000a520 f i * CIL library *:* CIL module *
 0001:00009580       ?calc_undistorted_coord@FCEffectRipple@@EEAAXHHAEAN0@Z 000000018000a580 f i dealImg.obj
 0001:00009610       ?shift_amount@FCEffectRipple@@AEBANH@Z 000000018000a610 f i dealImg.obj
 0001:000096b0       ??0FCEffectColorBalance@@QEAA@_NW4TONE_REGION@0@HHH@Z 000000018000a6b0 f i dealImg.obj
 0001:00009f70       ?ProcessPixel@FCEffectColorBalance@@EEAAXAEAVFCObjImage@@HHPEAE@Z 000000018000af70 f i dealImg.obj
 0001:0000a0a0       ??_GFCEffectColorBalance@@UEAAPEAXI@Z 000000018000b0a0 f i dealImg.obj
 0001:0000a0a0       ??_EFCEffectColorBalance@@UEAAPEAXI@Z 000000018000b0a0 f i * CIL library *:* CIL module *
 0001:0000a0d0       ?OnBeforeProcess@FCEffectOilPaint@@EEAAXAEAVFCObjImage@@@Z 000000018000b0d0 f i dealImg.obj
 0001:0000a280       ?ProcessPixel@FCEffectOilPaint@@EEAAXAEAVFCObjImage@@HHPEAE@Z 000000018000b280 f i dealImg.obj
 0001:0000a590       ??_EFCEffectOilPaint@@UEAAPEAXI@Z 000000018000b590 f i * CIL library *:* CIL module *
 0001:0000a590       ??_GFCEffectOilPaint@@UEAAPEAXI@Z 000000018000b590 f i dealImg.obj
 0001:0000a5d0       ??1FCEffectOilPaint@@UEAA@XZ 000000018000b5d0 f i dealImg.obj
 0001:0000a6c0       ?CalculateValue@FCEffectColorLevel@@AEAAEHHH@Z 000000018000b6c0 f i dealImg.obj
 0001:0000a790       ?ProcessPixel@FCEffectColorLevel@@EEAAXAEAVFCObjImage@@HHPEAE@Z 000000018000b790 f i dealImg.obj
 0001:0000a800       ?OnBeforeProcess@FCEffectAutoColorLevel@@EEAAXAEAVFCObjImage@@@Z 000000018000b800 f i dealImg.obj
 0001:0000a8e0       ?AutoColorLevelChannel@FCEffectAutoColorLevel@@AEAAXAEBV?$vector@HV?$allocator@H@std@@@std@@H@Z 000000018000b8e0 f i dealImg.obj
 0001:0000aa80       ??_GFCEffectAutoColorLevel@@UEAAPEAXI@Z 000000018000ba80 f i dealImg.obj
 0001:0000aa80       ??_EFCEffectAutoColorLevel@@UEAAPEAXI@Z 000000018000ba80 f i * CIL library *:* CIL module *
 0001:0000aab0       ?OnBeforeProcess@FCEffectBlur_Zoom@@EEAAXAEAVFCObjImage@@@Z 000000018000bab0 f i dealImg.obj
 0001:0000ab30       ?ProcessPixel@FCEffectBlur_Zoom@@EEAAXAEAVFCObjImage@@HHPEAE@Z 000000018000bb30 f i dealImg.obj
 0001:0000ae60       ??_GFCEffectBlur_Zoom@@UEAAPEAXI@Z 000000018000be60 f i dealImg.obj
 0001:0000ae60       ??_GFCEffectBlur_Motion@@UEAAPEAXI@Z 000000018000be60 f i dealImg.obj
 0001:0000ae60       ??_EFCEffectBlur_Zoom@@UEAAPEAXI@Z 000000018000be60 f i * CIL library *:* CIL module *
 0001:0000ae60       ??_EFCEffectBlur_Motion@@UEAAPEAXI@Z 000000018000be60 f i * CIL library *:* CIL module *
 0001:0000aea0       ??1FCEffectBlur_Motion@@UEAA@XZ 000000018000bea0 f i dealImg.obj
 0001:0000aea0       ??1FCEffectBlur_Zoom@@UEAA@XZ 000000018000bea0 f i dealImg.obj
 0001:0000af20       ?OnBeforeProcess@FCEffectBlur_Radial@@EEAAXAEAVFCObjImage@@@Z 000000018000bf20 f i dealImg.obj
 0001:0000afc0       ?ProcessPixel@FCEffectBlur_Radial@@EEAAXAEAVFCObjImage@@HHPEAE@Z 000000018000bfc0 f i dealImg.obj
 0001:0000b490       ??_GFCEffectBlur_Radial@@UEAAPEAXI@Z 000000018000c490 f i dealImg.obj
 0001:0000b490       ??_EFCEffectBlur_Radial@@UEAAPEAXI@Z 000000018000c490 f i * CIL library *:* CIL module *
 0001:0000b4d0       ??1FCEffectBlur_Radial@@UEAA@XZ 000000018000c4d0 f i dealImg.obj
 0001:0000b550       ??0FCEffectBlur_Motion@@QEAA@HH@Z 000000018000c550 f i dealImg.obj
 0001:0000b690       ?OnBeforeProcess@FCEffectBlur_Motion@@EEAAXAEAVFCObjImage@@@Z 000000018000c690 f i dealImg.obj
 0001:0000b6a0       ?ProcessPixel@FCEffectBlur_Motion@@EEAAXAEAVFCObjImage@@HHPEAE@Z 000000018000c6a0 f i dealImg.obj
 0001:0000b940       ??0FCEffectPencilSketch@@QEAA@HH@Z 000000018000c940 f i dealImg.obj
 0001:0000bbe0       ??1FCEffectPencilSketch@@UEAA@XZ 000000018000cbe0 f i dealImg.obj
 0001:0000bce0       ?OnBeforeProcess@FCEffectPencilSketch@@EEAAXAEAVFCObjImage@@@Z 000000018000cce0 f i dealImg.obj
 0001:0000bd50       ?OnFinishPixel@FCEffectPencilSketch@@EEAAXAEAVFCObjImage@@HHPEAE@Z 000000018000cd50 f i dealImg.obj
 0001:0000bf10       ??_GFCEffectPencilSketch@@UEAAPEAXI@Z 000000018000cf10 f i dealImg.obj
 0001:0000bf10       ??_EFCEffectPencilSketch@@UEAAPEAXI@Z 000000018000cf10 f i * CIL library *:* CIL module *
 0001:0000bf50       ??0FCEffectOldPhoto@@QEAA@HHH@Z 000000018000cf50 f i dealImg.obj
 0001:0000c1c0       ??1FCEffectOldPhoto@@UEAA@XZ 000000018000d1c0 f i dealImg.obj
 0001:0000c250       ?OnBeforeProcess@FCEffectOldPhoto@@EEAAXAEAVFCObjImage@@@Z 000000018000d250 f i dealImg.obj
 0001:0000c2c0       ?OnFinishPixel@FCEffectOldPhoto@@EEAAXAEAVFCObjImage@@HHPEAE@Z 000000018000d2c0 f i dealImg.obj
 0001:0000c390       ??_EFCEffectOldPhoto@@UEAAPEAXI@Z 000000018000d390 f i * CIL library *:* CIL module *
 0001:0000c390       ??_GFCEffectOldPhoto@@UEAAPEAXI@Z 000000018000d390 f i dealImg.obj
 0001:0000c3d0       ?Init@set@dealImg@@SAXPEAVIsolate@v8@@@Z 000000018000d3d0 f   dealImg.obj
 0001:0000c520       ?New@set@dealImg@@CAXAEBV?$FunctionCallbackInfo@VValue@v8@@@v8@@@Z 000000018000d520 f   dealImg.obj
 0001:0000c610       ?NewInstance@set@dealImg@@SAXAEBV?$FunctionCallbackInfo@VValue@v8@@@v8@@@Z 000000018000d610 f   dealImg.obj
 0001:0000c690       ??_Gset@dealImg@@EEAAPEAXI@Z 000000018000d690 f i dealImg.obj
 0001:0000c690       ??_Eset@dealImg@@EEAAPEAXI@Z 000000018000d690 f i * CIL library *:* CIL module *
 0001:0000c6d0       ??1set@dealImg@@EEAA@XZ    000000018000d6d0 f   dealImg.obj
 0001:0000c750       ?AppendText@set@dealImg@@CAXPEAUuv_work_s@@@Z 000000018000d750 f   dealImg.obj
 0001:0000c840       ?DrawTextOnOtherWorkThread@set@dealImg@@CAXPEAUHDC__@@HHHHHHHPEAD1@Z 000000018000d840 f   dealImg.obj
 0001:0000c940       ?CutImg@set@dealImg@@CAXPEAUuv_work_s@@@Z 000000018000d940 f   dealImg.obj
 0001:0000cba0       ?Save@set@dealImg@@CAXAEBV?$FunctionCallbackInfo@VValue@v8@@@v8@@@Z 000000018000dba0 f   dealImg.obj
 0001:0000cd80       ?LoadImg@set@dealImg@@CAXAEBV?$FunctionCallbackInfo@VValue@v8@@@v8@@@Z 000000018000dd80 f   dealImg.obj
 0001:0000ce40       ?ChangeWchar_t@set@dealImg@@CAPEA_WPEADH@Z 000000018000de40 f   dealImg.obj
 0001:0000cfc0       ?CutImg@set@dealImg@@CAXAEBV?$FunctionCallbackInfo@VValue@v8@@@v8@@@Z 000000018000dfc0 f   dealImg.obj
 0001:0000d2a0       ?AppendText@set@dealImg@@CAXAEBV?$FunctionCallbackInfo@VValue@v8@@@v8@@@Z 000000018000e2a0 f   dealImg.obj
 0001:0000d6d0       ?Effect@set@dealImg@@CAXPEAUuv_work_s@@@Z 000000018000e6d0 f   dealImg.obj
 0001:0000e3b0       ?Effect@set@dealImg@@CAXAEBV?$FunctionCallbackInfo@VValue@v8@@@v8@@@Z 000000018000f3b0 f   dealImg.obj
 0001:0000e660       ?WorkAsyncComplete@set@dealImg@@CAXPEAUuv_work_s@@H@Z 000000018000f660 f   dealImg.obj
 0001:0000e760       ??1Text@set@dealImg@@QEAA@XZ 000000018000f760 f i dealImg.obj
 0001:0000e7f0       ?resize@?$vector@UtagRGBQUAD@@V?$allocator@UtagRGBQUAD@@@std@@@std@@QEAAX_K@Z 000000018000f7f0 f i dealImg.obj
 0001:0000e8f0       ?assign@?$basic_string@DU?$char_traits@D@std@@V?$allocator@D@2@@std@@QEAAAEAV12@PEBD_K@Z 000000018000f8f0 f i dealImg.obj
 0001:0000ea30       ?append@?$basic_string@DU?$char_traits@D@std@@V?$allocator@D@2@@std@@QEAAAEAV12@PEBD_K@Z 000000018000fa30 f i dealImg.obj
 0001:0000eb80       ??1?$basic_string@DU?$char_traits@D@std@@V?$allocator@D@2@@std@@QEAA@XZ 000000018000fb80 f i dealImg.obj
 0001:0000ec10       ?_Reserve@?$vector@PEAVFCImageEffect@@V?$allocator@PEAVFCImageEffect@@@std@@@std@@IEAAX_K@Z 000000018000fc10 f i dealImg.obj
 0001:0000ec10       ?_Reserve@?$vector@PEAVFCObjImage@@V?$allocator@PEAVFCObjImage@@@std@@@std@@IEAAX_K@Z 000000018000fc10 f i dealImg.obj
 0001:0000ec10       ?_Reserve@?$vector@NV?$allocator@N@std@@@std@@IEAAX_K@Z 000000018000fc10 f i dealImg.obj
 0001:0000eca0       ?_Reallocate@?$vector@PEAVFCImageEffect@@V?$allocator@PEAVFCImageEffect@@@std@@@std@@IEAAX_K@Z 000000018000fca0 f i dealImg.obj
 0001:0000eca0       ?_Reallocate@?$vector@NV?$allocator@N@std@@@std@@IEAAX_K@Z 000000018000fca0 f i dealImg.obj
 0001:0000eca0       ?_Reallocate@?$vector@PEAVFCObjImage@@V?$allocator@PEAVFCObjImage@@@std@@@std@@IEAAX_K@Z 000000018000fca0 f i dealImg.obj
 0001:0000ed20       ?_Tidy@?$vector@V?$basic_string@DU?$char_traits@D@std@@V?$allocator@D@2@@std@@V?$allocator@V?$basic_string@DU?$char_traits@D@std@@V?$allocator@D@2@@std@@@2@@std@@IEAAXXZ 000000018000fd20 f i dealImg.obj
 0001:0000edc0       ?_Reserve@?$vector@V?$basic_string@DU?$char_traits@D@std@@V?$allocator@D@2@@std@@V?$allocator@V?$basic_string@DU?$char_traits@D@std@@V?$allocator@D@2@@std@@@2@@std@@IEAAX_K@Z 000000018000fdc0 f i dealImg.obj
 0001:0000ee50       ?deallocate@?$_Wrap_alloc@V?$allocator@UtagRGBQUAD@@@std@@@std@@QEAAXPEAUtagRGBQUAD@@_K@Z 000000018000fe50 f i dealImg.obj
 0001:0000ee50       ?deallocate@?$_Wrap_alloc@V?$allocator@H@std@@@std@@QEAAXPEAH_K@Z 000000018000fe50 f i dealImg.obj
 0001:0000eec0       ?_Reserve@?$vector@HV?$allocator@H@std@@@std@@IEAAX_K@Z 000000018000fec0 f i dealImg.obj
 0001:0000ef50       ?_Myptr@?$_String_alloc@U?$_String_base_types@_WV?$allocator@_W@std@@@std@@@std@@QEBAPEB_WXZ 000000018000ff50 f i dealImg.obj
 0001:0000ef60       ?assign@?$basic_string@_WU?$char_traits@_W@std@@V?$allocator@_W@2@@std@@QEAAAEAV12@PEB_W_K@Z 000000018000ff60 f i dealImg.obj
 0001:0000f0b0       ?_Assign_rv@?$basic_string@_WU?$char_traits@_W@std@@V?$allocator@_W@2@@std@@QEAAX$$QEAV12@@Z 00000001800100b0 f i dealImg.obj
 0001:0000f120       ?assign@?$basic_string@DU?$char_traits@D@std@@V?$allocator@D@2@@std@@QEAAAEAV12@AEBV12@_K1@Z 0000000180010120 f i dealImg.obj
 0001:0000f250       ?append@?$basic_string@DU?$char_traits@D@std@@V?$allocator@D@2@@std@@QEAAAEAV12@_KD@Z 0000000180010250 f i dealImg.obj
 0001:0000f360       ?append@?$basic_string@DU?$char_traits@D@std@@V?$allocator@D@2@@std@@QEAAAEAV12@AEBV12@_K1@Z 0000000180010360 f i dealImg.obj
 0001:0000f490       ?deallocate@?$_Wrap_alloc@V?$allocator@PEAVFCImageEffect@@@std@@@std@@QEAAXPEAPEAVFCImageEffect@@_K@Z 0000000180010490 f i dealImg.obj
 0001:0000f490       ?deallocate@?$_Wrap_alloc@V?$allocator@PEAVFCObjImage@@@std@@@std@@QEAAXPEAPEAVFCObjImage@@_K@Z 0000000180010490 f i dealImg.obj
 0001:0000f490       ?deallocate@?$_Wrap_alloc@V?$allocator@PEBVFCObjImage@@@std@@@std@@QEAAXPEAPEBVFCObjImage@@_K@Z 0000000180010490 f i dealImg.obj
 0001:0000f490       ?deallocate@?$_Wrap_alloc@V?$allocator@N@std@@@std@@QEAAXPEAN_K@Z 0000000180010490 f i dealImg.obj
 0001:0000f500       ?_Reallocate@?$vector@HV?$allocator@H@std@@@std@@IEAAX_K@Z 0000000180010500 f i dealImg.obj
 0001:0000f500       ?_Reallocate@?$vector@UtagRGBQUAD@@V?$allocator@UtagRGBQUAD@@@std@@@std@@IEAAX_K@Z 0000000180010500 f i dealImg.obj
 0001:0000f580       ?_Reallocate@?$vector@V?$basic_string@DU?$char_traits@D@std@@V?$allocator@D@2@@std@@V?$allocator@V?$basic_string@DU?$char_traits@D@std@@V?$allocator@D@2@@std@@@2@@std@@IEAAX_K@Z 0000000180010580 f i dealImg.obj
 0001:0000f670       ?deallocate@?$_Wrap_alloc@V?$allocator@_W@std@@@std@@QEAAXPEA_W_K@Z 0000000180010670 f i dealImg.obj
 0001:0000f6e0       ?assign@?$basic_string@_WU?$char_traits@_W@std@@V?$allocator@_W@2@@std@@QEAAAEAV12@AEBV12@_K1@Z 00000001800106e0 f i dealImg.obj
 0001:0000f830       ?_Copy@?$basic_string@DU?$char_traits@D@std@@V?$allocator@D@2@@std@@QEAAX_K0@Z 0000000180010830 f i dealImg.obj
 0001:0000f960       ?erase@?$basic_string@DU?$char_traits@D@std@@V?$allocator@D@2@@std@@QEAAAEAV12@_K0@Z 0000000180010960 f i dealImg.obj
 0001:0000fa30       ?allocate@?$allocator@PEBVFCObjImage@@@std@@QEAAPEAPEBVFCObjImage@@_K@Z 0000000180010a30 f i dealImg.obj
 0001:0000fa30       ?allocate@?$allocator@N@std@@QEAAPEAN_K@Z 0000000180010a30 f i dealImg.obj
 0001:0000fa30       ?allocate@?$allocator@PEAVFCObjImage@@@std@@QEAAPEAPEAVFCObjImage@@_K@Z 0000000180010a30 f i dealImg.obj
 0001:0000fa30       ?allocate@?$allocator@PEAVFCImageEffect@@@std@@QEAAPEAPEAVFCImageEffect@@_K@Z 0000000180010a30 f i dealImg.obj
 0001:0000fab0       ?allocate@?$allocator@U_GUID@@@std@@QEAAPEAU_GUID@@_K@Z 0000000180010ab0 f i dealImg.obj
 0001:0000fb30       ?allocate@?$allocator@UtagRGBQUAD@@@std@@QEAAPEAUtagRGBQUAD@@_K@Z 0000000180010b30 f i dealImg.obj
 0001:0000fb30       ?allocate@?$allocator@H@std@@QEAAPEAH_K@Z 0000000180010b30 f i dealImg.obj
 0001:0000fbb0       ?allocate@?$allocator@V?$basic_string@DU?$char_traits@D@std@@V?$allocator@D@2@@std@@@std@@QEAAPEAV?$basic_string@DU?$char_traits@D@std@@V?$allocator@D@2@@2@_K@Z 0000000180010bb0 f i dealImg.obj
 0001:0000fc30       ?allocate@?$_Wrap_alloc@V?$allocator@D@std@@@std@@QEAAPEAD_K@Z 0000000180010c30 f i dealImg.obj
 0001:0000fca0       ?_Copy@?$basic_string@_WU?$char_traits@_W@std@@V?$allocator@_W@2@@std@@QEAAX_K0@Z 0000000180010ca0 f i dealImg.obj
 0001:0000fd90       ?erase@?$basic_string@_WU?$char_traits@_W@std@@V?$allocator@_W@2@@std@@QEAAAEAV12@_K0@Z 0000000180010d90 f i dealImg.obj
 0001:0000fe40       ?allocate@?$allocator@_W@std@@QEAAPEA_W_K@Z 0000000180010e40 f i dealImg.obj
 0001:0000fec0       ??$use_facet@V?$ctype@D@std@@@std@@YAAEBV?$ctype@D@0@AEBVlocale@0@@Z 0000000180010ec0 f i dealImg.obj
 0001:0000fff0       ??$_Immortalize@V_Iostream_error_category@std@@@std@@YAAEAV_Iostream_error_category@0@XZ 0000000180010ff0 f i dealImg.obj
 0001:00010070       ??$for_each@V?$_Vector_iterator@V?$_Vector_val@U?$_Simple_types@PEAVFCImageEffect@@@std@@@std@@@std@@UFCDeleteEachObject@@@std@@YA?AUFCDeleteEachObject@@V?$_Vector_iterator@V?$_Vector_val@U?$_Simple_types@PEAVFCImageEffect@@@std@@@std@@@0@0U1@@Z 0000000180011070 f i dealImg.obj
 0001:00010070       ??$for_each@V?$_Vector_iterator@V?$_Vector_val@U?$_Simple_types@PEAVFCObjImage@@@std@@@std@@@std@@UFCDeleteEachObject@@@std@@YA?AUFCDeleteEachObject@@V?$_Vector_iterator@V?$_Vector_val@U?$_Simple_types@PEAVFCObjImage@@@std@@@std@@@0@0U1@@Z 0000000180011070 f i dealImg.obj
 0001:00010100       ??$Unwrap@Vset@dealImg@@@ObjectWrap@node@@SAPEAVset@dealImg@@V?$Local@VObject@v8@@@v8@@@Z 0000000180011100 f i dealImg.obj
 0001:00010180       ??$construct@V?$basic_string@DU?$char_traits@D@std@@V?$allocator@D@2@@std@@V12@@?$_Wrap_alloc@V?$allocator@V?$basic_string@DU?$char_traits@D@std@@V?$allocator@D@2@@std@@@std@@@std@@QEAAXPEAV?$basic_string@DU?$char_traits@D@std@@V?$allocator@D@2@@1@$$QEAV21@@Z 0000000180011180 f i dealImg.obj
 0001:00010210       ??$_Destroy_range@U?$_Wrap_alloc@V?$allocator@V?$basic_string@DU?$char_traits@D@std@@V?$allocator@D@2@@std@@@std@@@std@@@std@@YAXPEAV?$basic_string@DU?$char_traits@D@std@@V?$allocator@D@2@@0@0AEAU?$_Wrap_alloc@V?$allocator@V?$basic_string@DU?$char_traits@D@std@@V?$allocator@D@2@@std@@@std@@@0@@Z 0000000180011210 f i dealImg.obj
 0001:000102c0       ?widen@?$basic_ios@DU?$char_traits@D@std@@@std@@QEBADD@Z 00000001800112c0 f i dealImg.obj
 0001:00010360       ?_Traits_compare@?$basic_string@_WU?$char_traits@_W@std@@V?$allocator@_W@2@@std@@SAHQEB_W_K01@Z 0000000180011360 f i dealImg.obj
 0001:000103f0       ??$_Uninitialized_move_al_unchecked1@PEAV?$basic_string@DU?$char_traits@D@std@@V?$allocator@D@2@@std@@PEAV12@V?$allocator@V?$basic_string@DU?$char_traits@D@std@@V?$allocator@D@2@@std@@@2@@std@@YAPEAV?$basic_string@DU?$char_traits@D@std@@V?$allocator@D@2@@0@PEAV10@00AEAU?$_Wrap_alloc@V?$allocator@V?$basic_string@DU?$char_traits@D@std@@V?$allocator@D@2@@std@@@std@@@0@U_General_ptr_iterator_tag@0@@Z 00000001800113f0 f i dealImg.obj
 0001:000104ec       __imp_load_?GetCurrent@Isolate@v8@@SAPEAV12@XZ 00000001800114ec f   node:node.exe
 0001:000104f8       __tailMerge_node_exe       00000001800114f8 f i node:node.exe
 0001:00010571       __imp_load_??1HandleScope@v8@@QEAA@XZ 0000000180011571 f   node:node.exe
 0001:0001057d       __imp_load_??0HandleScope@v8@@QEAA@PEAVIsolate@1@@Z 000000018001157d f   node:node.exe
 0001:00010589       __imp_load_?GetFunction@FunctionTemplate@v8@@QEAA?AV?$Local@VFunction@v8@@@2@XZ 0000000180011589 f   node:node.exe
 0001:00010595       __imp_load_?New@FunctionTemplate@v8@@SA?AV?$Local@VFunctionTemplate@v8@@@2@PEAVIsolate@2@P6AXAEBV?$FunctionCallbackInfo@VValue@v8@@@2@@ZV?$Local@VValue@v8@@@2@V?$Local@VSignature@v8@@@2@H@Z 0000000180011595 f   node:node.exe
 0001:000105a1       __imp_load_?NewFromUtf8@String@v8@@SA?AV?$Local@VString@v8@@@2@PEAVIsolate@2@PEBDW4NewStringType@12@H@Z 00000001800115a1 f   node:node.exe
 0001:000105ad       __imp_load_?GetIsolate@Object@v8@@QEAAPEAVIsolate@2@XZ 00000001800115ad f   node:node.exe
 0001:000105b9       __imp_load_?Set@Object@v8@@QEAA_NV?$Local@VValue@v8@@@2@0@Z 00000001800115b9 f   node:node.exe
 0001:000105c5       __imp_load_?SetName@Function@v8@@QEAAXV?$Local@VString@v8@@@2@@Z 00000001800115c5 f   node:node.exe
 0001:000105d1       __imp_load_node_module_register 00000001800115d1 f   node:node.exe
 0001:000105dd       __imp_load_uv_queue_work   00000001800115dd f   node:node.exe
 0001:000105e9       __imp_load_?Global@Context@v8@@QEAA?AV?$Local@VObject@v8@@@2@XZ 00000001800115e9 f   node:node.exe
 0001:000105f5       __imp_load_?New@Signature@v8@@SA?AV?$Local@VSignature@v8@@@2@PEAVIsolate@2@V?$Local@VFunctionTemplate@v8@@@2@@Z 00000001800115f5 f   node:node.exe
 0001:00010601       __imp_load_?ThrowException@Isolate@v8@@QEAA?AV?$Local@VValue@v8@@@2@V32@@Z 0000000180011601 f   node:node.exe
 0001:0001060d       __imp_load_?GetCurrentContext@Isolate@v8@@QEAA?AV?$Local@VContext@v8@@@2@XZ 000000018001160d f   node:node.exe
 0001:00010619       __imp_load_?CreateHandle@HandleScope@v8@@KAPEAPEAVObject@internal@2@PEAVIsolate@42@PEAV342@@Z 0000000180011619 f   node:node.exe
 0001:00010625       __imp_load_?Set@Template@v8@@QEAAXV?$Local@VName@v8@@@2@V?$Local@VData@v8@@@2@W4PropertyAttribute@2@@Z 0000000180011625 f   node:node.exe
 0001:00010631       __imp_load_?TypeError@Exception@v8@@SA?AV?$Local@VValue@v8@@@2@V?$Local@VString@v8@@@2@@Z 0000000180011631 f   node:node.exe
 0001:0001063d       __imp_load_?SetClassName@FunctionTemplate@v8@@QEAAXV?$Local@VString@v8@@@2@@Z 000000018001163d f   node:node.exe
 0001:00010649       __imp_load_?PrototypeTemplate@FunctionTemplate@v8@@QEAA?AV?$Local@VObjectTemplate@v8@@@2@XZ 0000000180011649 f   node:node.exe
 0001:00010655       __imp_load_?InstanceTemplate@FunctionTemplate@v8@@QEAA?AV?$Local@VObjectTemplate@v8@@@2@XZ 0000000180011655 f   node:node.exe
 0001:00010661       __imp_load_?ClearWeak@V8@v8@@CAPEAXPEAPEAVObject@internal@2@@Z 0000000180011661 f   node:node.exe
 0001:0001066d       __imp_load_?MakeWeak@V8@v8@@CAXPEAPEAVObject@internal@2@PEAXP6AXAEBV?$WeakCallbackData@VValue@v8@@X@2@@Z@Z 000000018001166d f   node:node.exe
 0001:00010679       __imp_load_?DisposeGlobal@V8@v8@@CAXPEAPEAVObject@internal@2@@Z 0000000180011679 f   node:node.exe
 0001:00010685       __imp_load_?GlobalizeReference@V8@v8@@CAPEAPEAVObject@internal@2@PEAVIsolate@42@PEAPEAV342@@Z 0000000180011685 f   node:node.exe
 0001:00010691       __imp_load_?IsNumber@Value@v8@@QEBA_NXZ 0000000180011691 f   node:node.exe
 0001:0001069d       __imp_load_?New@Number@v8@@SA?AV?$Local@VNumber@v8@@@2@PEAVIsolate@2@N@Z 000000018001169d f   node:node.exe
 0001:000106a9       __imp_load_?Value@Number@v8@@QEBANXZ 00000001800116a9 f   node:node.exe
 0001:000106b5       __imp_load_?SlowGetAlignedPointerFromInternalField@Object@v8@@AEAAPEAXH@Z 00000001800116b5 f   node:node.exe
 0001:000106c1       __imp_load_?SetAlignedPointerInInternalField@Object@v8@@QEAAXHPEAX@Z 00000001800116c1 f   node:node.exe
 0001:000106cd       __imp_load_?InternalFieldCount@Object@v8@@QEAAHXZ 00000001800116cd f   node:node.exe
 0001:000106d9       __imp_load_?Call@Function@v8@@QEAA?AV?$Local@VValue@v8@@@2@V32@HQEAV32@@Z 00000001800116d9 f   node:node.exe
 0001:000106e5       __imp_load_?NewInstance@Function@v8@@QEBA?AV?$Local@VObject@v8@@@2@HQEAV?$Local@VValue@v8@@@2@@Z 00000001800116e5 f   node:node.exe
 0001:000106f1       __imp_load_?SetInternalFieldCount@ObjectTemplate@v8@@QEAAXH@Z 00000001800116f1 f   node:node.exe
 0001:000106fd       __imp_load_?Data@Buffer@node@@YAPEADV?$Local@VObject@v8@@@v8@@@Z 00000001800116fd f   node:node.exe
 0001:00010709       __imp_load_?Length@Buffer@node@@YA_KV?$Local@VObject@v8@@@v8@@@Z 0000000180011709 f   node:node.exe
 0001:00010715       __imp_load_uv_default_loop 0000000180011715 f   node:node.exe
 0001:00010721       __imp_load_?ToObject@Value@v8@@QEBA?AV?$Local@VObject@v8@@@2@XZ 0000000180011721 f   node:node.exe
 0001:0001072d       __imp_load_?ToNumber@Value@v8@@QEBA?AV?$Local@VNumber@v8@@@2@XZ 000000018001172d f   node:node.exe
 0001:0001073c       ??0_Init_locks@std@@QEAA@XZ 000000018001173c f   libcpmt:xlock.obj
 0001:00010788       ??0_Lockit@std@@QEAA@H@Z   0000000180011788 f   libcpmt:xlock.obj
 0001:000107c4       ??1_Init_locks@std@@QEAA@XZ 00000001800117c4 f   libcpmt:xlock.obj
 0001:00010808       ??1_Lockit@std@@QEAA@XZ    0000000180011808 f   libcpmt:xlock.obj
 0001:0001083c       ??$use_facet@V?$codecvt@DDU_Mbstatet@@@std@@@std@@YAAEBV?$codecvt@DDU_Mbstatet@@@0@AEBVlocale@0@@Z 000000018001183c f i libcpmt:cout.obj
 0001:00010974       ??0?$basic_ostream@DU?$char_traits@D@std@@@std@@QEAA@PEAV?$basic_streambuf@DU?$char_traits@D@std@@@1@_N@Z 0000000180011974 f i libcpmt:cout.obj
 0001:00010a3c       ??0?$basic_streambuf@DU?$char_traits@D@std@@@std@@IEAA@XZ 0000000180011a3c f i libcpmt:cout.obj
 0001:00010aec       ??0_Init_cout@std@@QEAA@XZ 0000000180011aec f i libcpmt:cout.obj
 0001:00010b58       ??0bad_cast@std@@QEAA@AEBV01@@Z 0000000180011b58 f i libcpmt:cout.obj
 0001:00010b98       ??0bad_cast@std@@QEAA@XZ   0000000180011b98 f i libcpmt:cout.obj
 0001:00010bb8       ??0exception@std@@QEAA@AEBV01@@Z 0000000180011bb8 f i libcpmt:cout.obj
 0001:00010bf0       ??1?$basic_filebuf@DU?$char_traits@D@std@@@std@@UEAA@XZ 0000000180011bf0 f i libcpmt:cout.obj
 0001:00010c9c       ??1?$basic_ios@DU?$char_traits@D@std@@@std@@UEAA@XZ 0000000180011c9c f i libcpmt:cout.obj
 0001:00010cc0       ??_E?$basic_ostream@DU?$char_traits@D@std@@@std@@$4PPPPPPPM@A@EAAPEAXI@Z 0000000180011cc0 f i libcpmt:cout.obj
 0001:00010ccc       ??_E?$basic_filebuf@DU?$char_traits@D@std@@@std@@UEAAPEAXI@Z 0000000180011ccc f i libcpmt:cout.obj
 0001:00010ccc       ??_G?$basic_filebuf@DU?$char_traits@D@std@@@std@@UEAAPEAXI@Z 0000000180011ccc f i libcpmt:cout.obj
 0001:00010d00       ??_E?$basic_ios@DU?$char_traits@D@std@@@std@@UEAAPEAXI@Z 0000000180011d00 f i libcpmt:cout.obj
 0001:00010d00       ??_G?$basic_ios@DU?$char_traits@D@std@@@std@@UEAAPEAXI@Z 0000000180011d00 f i libcpmt:cout.obj
 0001:00010d4c       ??_E?$basic_ostream@DU?$char_traits@D@std@@@std@@UEAAPEAXI@Z 0000000180011d4c f i libcpmt:cout.obj
 0001:00010d4c       ??_G?$basic_ostream@DU?$char_traits@D@std@@@std@@UEAAPEAXI@Z 0000000180011d4c f i libcpmt:cout.obj
 0001:00010dc0       ??_E?$basic_streambuf@DU?$char_traits@D@std@@@std@@UEAAPEAXI@Z 0000000180011dc0 f i libcpmt:cout.obj
 0001:00010dc0       ??_G?$basic_streambuf@DU?$char_traits@D@std@@@std@@UEAAPEAXI@Z 0000000180011dc0 f i libcpmt:cout.obj
 0001:00010e10       ??_G?$codecvt@DDU_Mbstatet@@@std@@MEAAPEAXI@Z 0000000180011e10 f i libcpmt:cout.obj
 0001:00010e10       ??_E?$codecvt@DDU_Mbstatet@@@std@@MEAAPEAXI@Z 0000000180011e10 f i libcpmt:cout.obj
 0001:00010e3c       ??_Eios_base@std@@UEAAPEAXI@Z 0000000180011e3c f i libcpmt:cout.obj
 0001:00010e3c       ??_Gios_base@std@@UEAAPEAXI@Z 0000000180011e3c f i libcpmt:cout.obj
 0001:00010e88       ??_Glocale@std@@QEAAPEAXI@Z 0000000180011e88 f i libcpmt:cout.obj
 0001:00010f18       ?_Endwrite@?$basic_filebuf@DU?$char_traits@D@std@@@std@@IEAA_NXZ 0000000180011f18 f i libcpmt:cout.obj
 0001:000110cc       ?_Getcat@?$codecvt@DDU_Mbstatet@@@std@@SA_KPEAPEBVfacet@locale@2@PEBV42@@Z 00000001800120cc f i libcpmt:cout.obj
 0001:00011190       ?_Init@?$basic_filebuf@DU?$char_traits@D@std@@@std@@IEAAXPEAU_iobuf@@W4_Initfl@12@@Z 0000000180012190 f i libcpmt:cout.obj
 0001:0001127c       ?_Init@ios_base@std@@IEAAXXZ 000000018001227c f i libcpmt:cout.obj
 0001:000112fc       ?_Initcvt@?$basic_filebuf@DU?$char_traits@D@std@@@std@@IEAAXPEBV?$codecvt@DDU_Mbstatet@@@2@@Z 00000001800122fc f i libcpmt:cout.obj
 0001:0001139c       ?_Lock@?$basic_filebuf@DU?$char_traits@D@std@@@std@@UEAAXXZ 000000018001239c f i libcpmt:cout.obj
 0001:000113b8       ?_Unlock@?$basic_filebuf@DU?$char_traits@D@std@@@std@@UEAAXXZ 00000001800123b8 f i libcpmt:cout.obj
 0001:000113d4       ?do_length@?$codecvt@DDU_Mbstatet@@@std@@MEBAHAEAU_Mbstatet@@PEBD1_K@Z 00000001800123d4 f i libcpmt:cout.obj
 0001:000113e8       ?do_in@?$codecvt@DDU_Mbstatet@@@std@@MEBAHAEAU_Mbstatet@@PEBD1AEAPEBDPEAD3AEAPEAD@Z 00000001800123e8 f i libcpmt:cout.obj
 0001:000113e8       ?do_out@?$codecvt@DDU_Mbstatet@@@std@@MEBAHAEAU_Mbstatet@@PEBD1AEAPEBDPEAD3AEAPEAD@Z 00000001800123e8 f i libcpmt:cout.obj
 0001:00011404       ?do_unshift@?$codecvt@DDU_Mbstatet@@@std@@MEBAHAEAU_Mbstatet@@PEAD1AEAPEAD@Z 0000000180012404 f i libcpmt:cout.obj
 0001:00011410       ?imbue@?$basic_filebuf@DU?$char_traits@D@std@@@std@@MEAAXAEBVlocale@2@@Z 0000000180012410 f i libcpmt:cout.obj
 0001:00011434       ?overflow@?$basic_filebuf@DU?$char_traits@D@std@@@std@@MEAAHH@Z 0000000180012434 f i libcpmt:cout.obj
 0001:0001168c       ?pbackfail@?$basic_filebuf@DU?$char_traits@D@std@@@std@@MEAAHH@Z 000000018001268c f i libcpmt:cout.obj
 0001:0001175c       ?pbackfail@?$basic_streambuf@DU?$char_traits@D@std@@@std@@MEAAHH@Z 000000018001275c f i libcpmt:cout.obj
 0001:0001175c       ?underflow@?$basic_streambuf@DU?$char_traits@D@std@@@std@@MEAAHXZ 000000018001275c f i libcpmt:cout.obj
 0001:0001175c       ?overflow@?$basic_streambuf@DU?$char_traits@D@std@@@std@@MEAAHH@Z 000000018001275c f i libcpmt:cout.obj
 0001:00011760       ?seekoff@?$basic_filebuf@DU?$char_traits@D@std@@@std@@MEAA?AV?$fpos@U_Mbstatet@@@2@_JHH@Z 0000000180012760 f i libcpmt:cout.obj
 0001:0001184c       ?seekpos@?$basic_filebuf@DU?$char_traits@D@std@@@std@@MEAA?AV?$fpos@U_Mbstatet@@@2@V32@H@Z 000000018001284c f i libcpmt:cout.obj
 0001:0001194c       ?seekoff@?$basic_streambuf@DU?$char_traits@D@std@@@std@@MEAA?AV?$fpos@U_Mbstatet@@@2@_JHH@Z 000000018001294c f i libcpmt:cout.obj
 0001:0001194c       ?seekpos@?$basic_streambuf@DU?$char_traits@D@std@@@std@@MEAA?AV?$fpos@U_Mbstatet@@@2@V32@H@Z 000000018001294c f i libcpmt:cout.obj
 0001:00011968       ?setbuf@?$basic_filebuf@DU?$char_traits@D@std@@@std@@MEAAPEAV?$basic_streambuf@DU?$char_traits@D@std@@@2@PEAD_J@Z 0000000180012968 f i libcpmt:cout.obj
 0001:000119bc       ?setbuf@?$basic_streambuf@DU?$char_traits@D@std@@@std@@MEAAPEAV12@PEAD_J@Z 00000001800129bc f i libcpmt:cout.obj
 0001:000119c0       ?sync@?$basic_filebuf@DU?$char_traits@D@std@@@std@@MEAAHXZ 00000001800129c0 f i libcpmt:cout.obj
 0001:00011a20       ?uflow@?$basic_filebuf@DU?$char_traits@D@std@@@std@@MEAAHXZ 0000000180012a20 f i libcpmt:cout.obj
 0001:00011cb8       ?uflow@?$basic_streambuf@DU?$char_traits@D@std@@@std@@MEAAHXZ 0000000180012cb8 f i libcpmt:cout.obj
 0001:00011d04       ?underflow@?$basic_filebuf@DU?$char_traits@D@std@@@std@@MEAAHXZ 0000000180012d04 f i libcpmt:cout.obj
 0001:00011d7c       ?what@exception@std@@UEBAPEBDXZ 0000000180012d7c f i libcpmt:cout.obj
 0001:00011d90       ?xsgetn@?$basic_streambuf@DU?$char_traits@D@std@@@std@@MEAA_JPEAD_J@Z 0000000180012d90 f i libcpmt:cout.obj
 0001:00011e50       ?xsputn@?$basic_streambuf@DU?$char_traits@D@std@@@std@@MEAA_JPEBD_J@Z 0000000180012e50 f i libcpmt:cout.obj
 0001:00011f14       ??4?$_Yarn@D@std@@QEAAAEAV01@PEBD@Z 0000000180012f14 f i libcpmt:locale0.obj
 0001:00011f8c       ??_G_Fac_node@std@@QEAAPEAXI@Z 0000000180012f8c f i libcpmt:locale0.obj
 0001:00012018       ??_E_Locimp@locale@std@@MEAAPEAXI@Z 0000000180013018 f i libcpmt:locale0.obj
 0001:00012018       ??_G_Locimp@locale@std@@MEAAPEAXI@Z 0000000180013018 f i libcpmt:locale0.obj
 0001:00012084       ?_Facet_Register@std@@YAXPEAV_Facet_base@1@@Z 0000000180013084 f   libcpmt:locale0.obj
 0001:000120bc       ?_Getgloballocale@locale@std@@CAPEAV_Locimp@12@XZ 00000001800130bc f   libcpmt:locale0.obj
 0001:000120c4       ?_Init@locale@std@@CAPEAV_Locimp@12@_N@Z 00000001800130c4 f   libcpmt:locale0.obj
 0001:00012180       ?_Locimp_dtor@_Locimp@locale@std@@CAXPEAV123@@Z 0000000180013180 f   libcpmt:locale0.obj
 0001:00012228       ?_Locinfo_ctor@_Locinfo@std@@SAXPEAV12@PEBD@Z 0000000180013228 f   libcpmt:locale0.obj
 0001:00012294       ?_Locinfo_dtor@_Locinfo@std@@SAXPEAV12@@Z 0000000180013294 f   libcpmt:locale0.obj
 0001:000122b8       ?_New_Locimp@_Locimp@locale@std@@CAPEAV123@_N@Z 00000001800132b8 f   libcpmt:locale0.obj
 0001:00012328       ?_Setgloballocale@locale@std@@CAXPEAX@Z 0000000180013328 f   libcpmt:locale0.obj
 0001:0001235c       _Deletegloballocale        000000018001335c f   libcpmt:locale0.obj
 0001:000123e4       ??0bad_alloc@std@@QEAA@AEBV01@@Z 00000001800133e4 f i libcpmt:xthrow.obj
 0001:00012424       ??0bad_alloc@std@@QEAA@XZ  0000000180013424 f i libcpmt:xthrow.obj
 0001:00012444       ??0length_error@std@@QEAA@AEBV01@@Z 0000000180013444 f i libcpmt:xthrow.obj
 0001:00012484       ??0length_error@std@@QEAA@PEBD@Z 0000000180013484 f i libcpmt:xthrow.obj
 0001:000124d0       ??0logic_error@std@@QEAA@AEBV01@@Z 00000001800134d0 f i libcpmt:xthrow.obj
 0001:00012510       ??0out_of_range@std@@QEAA@AEBV01@@Z 0000000180013510 f i libcpmt:xthrow.obj
 0001:00012550       ??0out_of_range@std@@QEAA@PEBD@Z 0000000180013550 f i libcpmt:xthrow.obj
 0001:0001259c       ??_Gbad_exception@std@@UEAAPEAXI@Z 000000018001359c f i libvcruntime:frame.obj
 0001:0001259c       ??_Elogic_error@std@@UEAAPEAXI@Z 000000018001359c f i libcpmt:xthrow.obj
 0001:0001259c       ??_Gout_of_range@std@@UEAAPEAXI@Z 000000018001359c f i libcpmt:xthrow.obj
 0001:0001259c       ??_Gbad_alloc@std@@UEAAPEAXI@Z 000000018001359c f i libcpmt:xthrow.obj
 0001:0001259c       ??_Ebad_alloc@std@@UEAAPEAXI@Z 000000018001359c f i libcpmt:xthrow.obj
 0001:0001259c       ??_Ebad_array_new_length@std@@UEAAPEAXI@Z 000000018001359c f i LIBCMT:throw_bad_alloc.obj
 0001:0001259c       ??_Glength_error@std@@UEAAPEAXI@Z 000000018001359c f i libcpmt:xthrow.obj
 0001:0001259c       ??_Glogic_error@std@@UEAAPEAXI@Z 000000018001359c f i libcpmt:xthrow.obj
 0001:0001259c       ??_Eexception@std@@UEAAPEAXI@Z 000000018001359c f i libcpmt:cout.obj
 0001:0001259c       ??_Gbad_array_new_length@std@@UEAAPEAXI@Z 000000018001359c f i LIBCMT:throw_bad_alloc.obj
 0001:0001259c       ??_Ebad_exception@std@@UEAAPEAXI@Z 000000018001359c f i libvcruntime:frame.obj
 0001:0001259c       ??_Eout_of_range@std@@UEAAPEAXI@Z 000000018001359c f i libcpmt:xthrow.obj
 0001:0001259c       ??_Gbad_cast@std@@UEAAPEAXI@Z 000000018001359c f i libcpmt:cout.obj
 0001:0001259c       ??_Ebad_cast@std@@UEAAPEAXI@Z 000000018001359c f i libcpmt:cout.obj
 0001:0001259c       ??_Gexception@std@@UEAAPEAXI@Z 000000018001359c f i libcpmt:cout.obj
 0001:0001259c       ??_Elength_error@std@@UEAAPEAXI@Z 000000018001359c f i libcpmt:xthrow.obj
 0001:000125e0       ?_Xbad_alloc@std@@YAXXZ    00000001800135e0 f   libcpmt:xthrow.obj
 0001:000125e0       ?__scrt_throw_std_bad_alloc@@YAXXZ 00000001800135e0 f   LIBCMT:throw_bad_alloc.obj
 0001:00012600       ?_Xlength_error@std@@YAXPEBD@Z 0000000180013600 f   libcpmt:xthrow.obj
 0001:00012624       ?_Xout_of_range@std@@YAXPEBD@Z 0000000180013624 f   libcpmt:xthrow.obj
 0001:00012648       ?_Syserror_map@std@@YAPEBDH@Z 0000000180013648 f   libcpmt:syserror.obj
 0001:00012670       _Getctype                  0000000180013670 f   libcpmt:_tolower.obj
 0001:00012730       _Tolower                   0000000180013730 f   libcpmt:_tolower.obj
 0001:00012858       _Toupper                   0000000180013858 f   libcpmt:_toupper.obj
 0001:00012990       _Mtxdst                    0000000180013990 f   libcpmt:xmtx.obj
 0001:00012998       _Mtxinit                   0000000180013998 f   libcpmt:xmtx.obj
 0001:000129a8       _Mtxlock                   00000001800139a8 f   libcpmt:xmtx.obj
 0001:000129b0       _Mtxunlock                 00000001800139b0 f   libcpmt:xmtx.obj
 0001:000129b8       ?_Addstd@ios_base@std@@SAXPEAV12@@Z 00000001800139b8 f   libcpmt:ios.obj
 0001:00012a28       ?_Ios_base_dtor@ios_base@std@@CAXPEAV12@@Z 0000000180013a28 f   libcpmt:ios.obj
 0001:00012a6c       ?_Tidy@ios_base@std@@AEAAXXZ 0000000180013a6c f i libcpmt:ios.obj
 0001:00012afc       ?_Atexit@@YAXP6AXXZ@Z      0000000180013afc f   libcpmt:iosptrs.obj
 0001:00012b3c       __crtLCMapStringA          0000000180013b3c f   libcpmt:StlLCMapStringA.obj
 0001:00013300       __crtInitializeCriticalSectionEx 0000000180014300 f   libcpmt:winapisupp.obj
 0001:00013360       GetTableIndexFromLocaleName 0000000180014360 f   libcpmt:winapinls.obj
 0001:000133ec       __crtDownlevelLocaleNameToLCID 00000001800143ec f   libcpmt:winapinls.obj
 0001:00013420       __crtLCMapStringEx         0000000180014420 f   libcpmt:winapinls.obj
 0001:000134dc       __wcsnicmp_ascii           00000001800144dc f   libcpmt:winapinls.obj
 0001:00013534       ??0CAtlBaseModule@ATL@@QEAA@XZ 0000000180014534 f   atls:atlbase.obj
 0001:000135dc       ??1CAtlBaseModule@ATL@@QEAA@XZ 00000001800145dc f   atls:atlbase.obj
 0001:00013610       ??3@YAXPEAX@Z              0000000180014610 f   LIBCMT:delete_scalar.obj
 0001:00013630       __security_check_cookie    0000000180014630 f   LIBCMT:_amdsecgs_.obj
 0001:0001379c       _Init_thread_footer        000000018001479c f   LIBCMT:thread_safe_statics.obj
 0001:000137fc       _Init_thread_header        00000001800147fc f   LIBCMT:thread_safe_statics.obj
 0001:00013864       _Init_thread_notify        0000000180014864 f   LIBCMT:thread_safe_statics.obj
 0001:000138c0       _Init_thread_wait          00000001800148c0 f   LIBCMT:thread_safe_statics.obj
 0001:00013958       __scrt_acquire_startup_lock 0000000180014958 f   LIBCMT:utility.obj
 0001:00013994       __scrt_dllmain_after_initialize_c 0000000180014994 f   LIBCMT:utility.obj
 0001:000139c8       __scrt_dllmain_before_initialize_c 00000001800149c8 f   LIBCMT:utility.obj
 0001:000139e0       __scrt_dllmain_crt_thread_attach 00000001800149e0 f   LIBCMT:utility.obj
 0001:00013a08       __scrt_dllmain_crt_thread_detach 0000000180014a08 f   LIBCMT:utility.obj
 0001:00013a20       __scrt_dllmain_exception_filter 0000000180014a20 f   LIBCMT:utility.obj
 0001:00013a84       __scrt_dllmain_uninitialize_c 0000000180014a84 f   LIBCMT:utility.obj
 0001:00013ab4       __scrt_dllmain_uninitialize_critical 0000000180014ab4 f   LIBCMT:utility.obj
 0001:00013ac8       __scrt_initialize_crt      0000000180014ac8 f   LIBCMT:utility.obj
 0001:00013b14       __scrt_initialize_onexit_tables 0000000180014b14 f   LIBCMT:utility.obj
 0001:00013be0       __scrt_is_nonwritable_in_current_image 0000000180014be0 f   LIBCMT:utility.obj
 0001:00013c7c       __scrt_release_startup_lock 0000000180014c7c f   LIBCMT:utility.obj
 0001:00013ca0       __scrt_uninitialize_crt    0000000180014ca0 f   LIBCMT:utility.obj
 0001:00013ccc       _onexit                    0000000180014ccc f   LIBCMT:utility.obj
 0001:00013d1c       atexit                     0000000180014d1c f   LIBCMT:utility.obj
 0001:00013d34       ??_V@YAXPEAX@Z             0000000180014d34 f   LIBCMT:delete_array.obj
 0001:00013d34       ??3@YAXPEAX_K@Z            0000000180014d34 f   LIBCMT:delete_scalar_size.obj
 0001:00013d3c       ??2@YAPEAX_K@Z             0000000180014d3c f   LIBCMT:new_scalar.obj
 0001:00013d78       ??_U@YAPEAX_K@Z            0000000180014d78 f   LIBCMT:new_array.obj
 0001:000140f0       _DllMainCRTStartup         00000001800150f0 f   LIBCMT:dll_dllmain.obj
 0001:00014130       __GSHandlerCheck           0000000180015130 f   LIBCMT:_gshandler_.obj
 0001:00014150       __GSHandlerCheckCommon     0000000180015150 f   LIBCMT:_gshandler_.obj
 0001:000141ac       __GSHandlerCheck_EH        00000001800151ac f   LIBCMT:gshandlereh.obj
 0001:0001423c       _guard_check_icall         000000018001523c f i LIBCMT:checkcfg.obj
 0001:00014244       ??_Etype_info@@UEAAPEAXI@Z 0000000180015244 f i LIBCMT:std_type_info_static.obj
 0001:00014244       ??_Gtype_info@@UEAAPEAXI@Z 0000000180015244 f i LIBCMT:std_type_info_static.obj
 0001:00014280       _alloca_probe              0000000180015280 f   LIBCMT:_chkstk_.obj
 0001:00014280       __chkstk                   0000000180015280 f   LIBCMT:_chkstk_.obj
 0001:000142d4       __raise_securityfailure    00000001800152d4 f   LIBCMT:gs_report.obj
 0001:00014308       __report_gsfailure         0000000180015308 f   LIBCMT:gs_report.obj
 0001:000143dc       __report_rangecheckfailure 00000001800153dc f   LIBCMT:gs_report.obj
 0001:000143f0       __report_securityfailure   00000001800153f0 f   LIBCMT:gs_report.obj
 0001:00014570       __crt_debugger_hook        0000000180015570 f   LIBCMT:utility_desktop.obj
 0001:00014578       __scrt_fastfail            0000000180015578 f   LIBCMT:utility_desktop.obj
 0001:000146c0       __isa_available_init       00000001800156c0 f   LIBCMT:_cpu_disp_.obj
 0001:00014884       __scrt_is_ucrt_dll_in_use  0000000180015884 f   LIBCMT:ucrt_detection.obj
 0001:00014890       ??0bad_array_new_length@std@@QEAA@AEBV01@@Z 0000000180015890 f i LIBCMT:throw_bad_alloc.obj
 0001:000148d0       ??0bad_array_new_length@std@@QEAA@XZ 00000001800158d0 f i LIBCMT:throw_bad_alloc.obj
 0001:000148f0       ?__scrt_throw_std_bad_array_new_length@@YAXXZ 00000001800158f0 f   LIBCMT:throw_bad_alloc.obj
 0001:00014910       __security_init_cookie     0000000180015910 f   LIBCMT:gs_support.obj
 0001:000149bc       ?__scrt_initialize_type_info@@YAXXZ 00000001800159bc f   LIBCMT:tncleanup.obj
 0001:000149cc       ?__scrt_uninitialize_type_info@@YAXXZ 00000001800159cc f   LIBCMT:tncleanup.obj
 0001:000149d8       __local_stdio_scanf_options 00000001800159d8 f i LIBCMT:default_local_stdio_options.obj
 0001:000149e0       __scrt_initialize_default_local_stdio_options 00000001800159e0 f   LIBCMT:default_local_stdio_options.obj
 0001:000149fc       __scrt_get_dyn_tls_init_callback 00000001800159fc f   LIBCMT:dyn_tls_init.obj
 0001:00014a04       _RTC_Initialize            0000000180015a04 f   LIBCMT:_initsect_.obj
 0001:00014a50       _RTC_Terminate             0000000180015a50 f   LIBCMT:_initsect_.obj
 0001:00014ab0       memcpy                     0000000180015ab0 f   libvcruntime:memcpy.obj
 0001:00014ab0       memmove                    0000000180015ab0 f   libvcruntime:memcpy.obj
 0001:00014ee8       _purecall                  0000000180015ee8 f   libvcruntime:purevirt.obj
 0001:00014f24       __DestructExceptionObject  0000000180015f24 f   libvcruntime:frame.obj
 0001:00014fac       ??0bad_exception@std@@QEAA@AEBV01@@Z 0000000180015fac f i libvcruntime:frame.obj
 0001:00014fec       ??0bad_exception@std@@QEAA@XZ 0000000180015fec f i libvcruntime:frame.obj
 0001:0001500c       ??1bad_cast@std@@UEAA@XZ   000000018001600c f i libcpmt:cout.obj
 0001:0001500c       ??1out_of_range@std@@UEAA@XZ 000000018001600c f i libcpmt:xthrow.obj
 0001:0001500c       ??1bad_alloc@std@@UEAA@XZ  000000018001600c f i libcpmt:xthrow.obj
 0001:0001500c       ??1bad_exception@std@@UEAA@XZ 000000018001600c f i libvcruntime:frame.obj
 0001:0001500c       ??1bad_array_new_length@std@@UEAA@XZ 000000018001600c f i LIBCMT:throw_bad_alloc.obj
 0001:0001500c       ??1length_error@std@@UEAA@XZ 000000018001600c f i libcpmt:xthrow.obj
 0001:00015960       ?_CallMemberFunction0@@YAXPEAXP6AX0@Z@Z 0000000180016960 f i libvcruntime:frame.obj
 0001:00015964       ?_CallMemberFunction1@@YAXPEAXP6AX0@Z0@Z 0000000180016964 f i libvcruntime:frame.obj
 0001:00015970       ?_CallMemberFunction2@@YAXPEAXP6AX0@Z0H@Z 0000000180016970 f i libvcruntime:frame.obj
 0001:00015980       __AdjustPointer            0000000180016980 f   libvcruntime:frame.obj
 0001:000159a4       __BuildCatchObject         00000001800169a4 f   libvcruntime:frame.obj
 0001:00015a6c       __BuildCatchObjectHelper   0000000180016a6c f   libvcruntime:frame.obj
 0001:00015c50       __CxxCallCatchBlock        0000000180016c50 f   libvcruntime:frame.obj
 0001:00015e3c       __FrameUnwindFilter        0000000180016e3c f   libvcruntime:frame.obj
 0001:00015e88       __FrameUnwindToState       0000000180016e88 f   libvcruntime:frame.obj
 0001:0001601c       __InternalCxxFrameHandler  000000018001701c f   libvcruntime:frame.obj
 0001:00016274       __TypeMatch                0000000180017274 f   libvcruntime:frame.obj
 0001:000163b4       __std_terminate            00000001800173b4 f   libvcruntime:frame.obj
 0001:000163c0       __std_exception_copy       00000001800173c0 f   libvcruntime:std_exception.obj
 0001:00016450       __std_exception_destroy    0000000180017450 f   libvcruntime:std_exception.obj
 0001:00016478       _CxxThrowException         0000000180017478 f   libvcruntime:throw.obj
 0001:00016550       ?_GetEstablisherFrame@@YAPEA_KPEA_KPEAU_xDISPATCHER_CONTEXT@@PEBU_s_FuncInfo@@0@Z 0000000180017550 f   libvcruntime:trnsctrl.obj
 0001:0001661c       ?_GetRangeOfTrysToCheck@@YAPEBU_s_TryBlockMapEntry@@PEA_KPEBU_s_FuncInfo@@HHPEAI2PEAU_xDISPATCHER_CONTEXT@@@Z 000000018001761c f   libvcruntime:trnsctrl.obj
 0001:00016748       ?__FrameUnwindToEmptyState@@YAXPEA_KPEAU_xDISPATCHER_CONTEXT@@PEBU_s_FuncInfo@@@Z 0000000180017748 f   libvcruntime:trnsctrl.obj
 0001:000167dc       ?__SehTransFilter@@YAHPEAU_EXCEPTION_POINTERS@@PEAUEHExceptionRecord@@PEA_KPEAU_CONTEXT@@PEAU_xDISPATCHER_CONTEXT@@PEBU_s_FuncInfo@@PEAH@Z 00000001800177dc f   libvcruntime:trnsctrl.obj
 0001:00016874       _CallSETranslator          0000000180017874 f   libvcruntime:trnsctrl.obj
 0001:000168cc       _CreateFrameInfo           00000001800178cc f   libvcruntime:trnsctrl.obj
 0001:00016908       _FindAndUnlinkFrame        0000000180017908 f   libvcruntime:trnsctrl.obj
 0001:00016960       _GetImageBase              0000000180017960 f   libvcruntime:trnsctrl.obj
 0001:00016974       _GetThrowImageBase         0000000180017974 f   libvcruntime:trnsctrl.obj
 0001:00016988       _IsExceptionObjectToBeDestroyed 0000000180017988 f   libvcruntime:trnsctrl.obj
 0001:000169b8       _SetImageBase              00000001800179b8 f   libvcruntime:trnsctrl.obj
 0001:000169d0       _SetThrowImageBase         00000001800179d0 f   libvcruntime:trnsctrl.obj
 0001:000169e8       _UnwindNestedFrames        00000001800179e8 f   libvcruntime:trnsctrl.obj
 0001:00016b0c       __CxxFrameHandler3         0000000180017b0c f   libvcruntime:trnsctrl.obj
 0001:00016ba0       memset                     0000000180017ba0 f   libvcruntime:memset.obj
 0001:00016d50       memcmp                     0000000180017d50 f   libvcruntime:memcmp.obj
 0001:00016fe0       __vcrt_EventRegister       0000000180017fe0 f   libvcruntime:winapi_downlevel.obj
 0001:00017064       __vcrt_EventSetInformation 0000000180018064 f   libvcruntime:winapi_downlevel.obj
 0001:000170e8       __vcrt_EventUnregister     00000001800180e8 f   libvcruntime:winapi_downlevel.obj
 0001:0001713c       __vcrt_EventWriteTransfer  000000018001813c f   libvcruntime:winapi_downlevel.obj
 0001:000171d4       __vcrt_FlsAlloc            00000001800181d4 f   libvcruntime:winapi_downlevel.obj
 0001:00017228       __vcrt_FlsFree             0000000180018228 f   libvcruntime:winapi_downlevel.obj
 0001:0001727c       __vcrt_FlsGetValue         000000018001827c f   libvcruntime:winapi_downlevel.obj
 0001:000172d0       __vcrt_FlsSetValue         00000001800182d0 f   libvcruntime:winapi_downlevel.obj
 0001:00017338       __vcrt_InitializeCriticalSectionEx 0000000180018338 f   libvcruntime:winapi_downlevel.obj
 0001:000173b0       __vcrt_initialize_winapi_thunks 00000001800183b0 f   libvcruntime:winapi_downlevel.obj
 0001:000173e8       __vcrt_uninitialize_winapi_thunks 00000001800183e8 f   libvcruntime:winapi_downlevel.obj
 0001:00017428       __vcrt_initialize          0000000180018428 f   libvcruntime:initialization.obj
 0001:00017460       __vcrt_thread_attach       0000000180018460 f   libvcruntime:initialization.obj
 0001:00017474       __vcrt_thread_detach       0000000180018474 f   libvcruntime:initialization.obj
 0001:00017488       __vcrt_uninitialize        0000000180018488 f   libvcruntime:initialization.obj
 0001:000174b4       __vcrt_uninitialize_critical 00000001800184b4 f   libvcruntime:initialization.obj
 0001:000174c4       __C_specific_handler       00000001800184c4 f   libvcruntime:_chandler_.obj
 0001:000176c4       __telemetry_main_invoke_trigger 00000001800186c4 f   libvcruntime:telemetry.obj
 0001:000177dc       __telemetry_main_return_trigger 00000001800187dc f   libvcruntime:telemetry.obj
 0001:000178f4       __vcrt_initialize_telemetry_provider 00000001800188f4 f   libvcruntime:telemetry.obj
 0001:00017908       __vcrt_uninitialize_telemetry_provider 0000000180018908 f   libvcruntime:telemetry.obj
 0001:00017928       __std_type_info_compare    0000000180018928 f   libvcruntime:std_type_info.obj
 0001:00017950       __std_type_info_destroy_list 0000000180018950 f   libvcruntime:std_type_info.obj
 0001:0001797c       __vcrt_initialize_pure_virtual_call_handler 000000018001897c f   libvcruntime:purevirt_data.obj
 0001:000179a0       __vcrt_freefls             00000001800189a0 f   libvcruntime:per_thread_data.obj
 0001:000179c0       __vcrt_freeptd             00000001800189c0 f   libvcruntime:per_thread_data.obj
 0001:00017a10       __vcrt_getptd              0000000180018a10 f   libvcruntime:per_thread_data.obj
 0001:00017a2c       __vcrt_getptd_noexit       0000000180018a2c f   libvcruntime:per_thread_data.obj
 0001:00017ae4       __vcrt_initialize_ptd      0000000180018ae4 f   libvcruntime:per_thread_data.obj
 0001:00017b24       __vcrt_uninitialize_ptd    0000000180018b24 f   libvcruntime:per_thread_data.obj
 0001:00017b48       ?__GetCurrentState@@YAHPEA_KPEAU_xDISPATCHER_CONTEXT@@PEBU_s_FuncInfo@@@Z 0000000180018b48 f   libvcruntime:ehstate.obj
 0001:00017b70       ?__GetUnwindTryBlock@@YAHPEA_KPEAU_xDISPATCHER_CONTEXT@@PEBU_s_FuncInfo@@@Z 0000000180018b70 f   libvcruntime:ehstate.obj
 0001:00017b9c       ?__SetState@@YAXPEA_KPEAU_xDISPATCHER_CONTEXT@@PEBU_s_FuncInfo@@H@Z 0000000180018b9c f   libvcruntime:ehstate.obj
 0001:00017ba8       ?__SetUnwindTryBlock@@YAXPEA_KPEAU_xDISPATCHER_CONTEXT@@PEBU_s_FuncInfo@@H@Z 0000000180018ba8 f   libvcruntime:ehstate.obj
 0001:00017be4       ?__StateFromControlPc@@YAHPEBU_s_FuncInfo@@PEAU_xDISPATCHER_CONTEXT@@@Z 0000000180018be4 f   libvcruntime:ehstate.obj
 0001:00017bec       ?__StateFromIp@@YAHPEBU_s_FuncInfo@@PEAU_xDISPATCHER_CONTEXT@@_J@Z 0000000180018bec f   libvcruntime:ehstate.obj
 0001:00017c70       _CallSettingFrame          0000000180018c70 f   libvcruntime:handlers.obj
 0001:00017cc0       _local_unwind              0000000180018cc0 f   libvcruntime:_jmpuwind_.obj
 0001:00017cf0       _NLG_Notify                0000000180018cf0 f   libvcruntime:_jmpuwind_.obj
 0001:00017d10       __NLG_Dispatch2            0000000180018d10 f   libvcruntime:_jmpuwind_.obj
 0001:00017d20       __NLG_Return2              0000000180018d20 f   libvcruntime:_jmpuwind_.obj
 0001:00017d24       __vcrt_initialize_locks    0000000180018d24 f   libvcruntime:locks.obj
 0001:00017d6c       __vcrt_uninitialize_locks  0000000180018d6c f   libvcruntime:locks.obj
 0001:00017da4       free                       0000000180018da4 f   libucrt:free.obj
 0001:00017dac       abort                      0000000180018dac f   libucrt:abort.obj
 0001:00017e04       __acrt_call_reportfault    0000000180018e04 f   libucrt:invalid_parameter.obj
 0001:00017f60       __acrt_initialize_invalid_parameter_handler 0000000180018f60 f   libucrt:invalid_parameter.obj
 0001:00017f68       _invalid_parameter         0000000180018f68 f   libucrt:invalid_parameter.obj
 0001:00018010       _invalid_parameter_noinfo  0000000180019010 f   libucrt:invalid_parameter.obj
 0001:00018030       _invalid_parameter_noinfo_noreturn 0000000180019030 f   libucrt:invalid_parameter.obj
 0001:00018060       _invoke_watson             0000000180019060 f   libucrt:invalid_parameter.obj
 0001:000180a8       ??0_LocaleUpdate@@QEAA@QEAU__crt_locale_pointers@@@Z 00000001800190a8 f i libucrt:tolower_toupper.obj
 0001:00018188       _tolower_l                 0000000180019188 f   libucrt:tolower_toupper.obj
 0001:000182c8       tolower                    00000001800192c8 f   libucrt:tolower_toupper.obj
 0001:000182f4       rand                       00000001800192f4 f   libucrt:rand.obj
 0001:00018320       ??$?RV<lambda_7b91131dde12e1c3dfc74ff76b3f2eac>@@AEAV<lambda_dd75445284c072d0bd3768540cc698fa>@@V<lambda_16bc4ecb55b4718497c16bceaea2ceaf>@@@?$__crt_seh_guarded_call@H@@QEAAH$$QEAV<lambda_7b91131dde12e1c3dfc74ff76b3f2eac>@@AEAV<lambda_dd75445284c072d0bd3768540cc698fa>@@$$QEAV<lambda_16bc4ecb55b4718497c16bceaea2ceaf>@@@Z 0000000180019320 f i libucrt:output.obj
 0001:00018360       ??$ensure_buffer_is_big_enough@D@formatting_buffer@__crt_stdio_output@@QEAA_N_K@Z 0000000180019360 f i libucrt:output.obj
 0001:0001840c       ??$is_wide_character_specifier@_W@__crt_stdio_output@@YA_N_K_WW4length_modifier@0@@Z 000000018001940c f i libucrt:output.obj
 0001:00018450       ??$type_case_integer_parse_into_buffer@I@?$output_processor@_WV?$string_output_adapter@_W@__crt_stdio_output@@V?$standard_base@_WV?$string_output_adapter@_W@__crt_stdio_output@@@2@@__crt_stdio_output@@AEAAXII_N@Z 0000000180019450 f i libucrt:output.obj
 0001:00018450       ??$type_case_integer_parse_into_buffer@I@?$output_processor@_WV?$stream_output_adapter@_W@__crt_stdio_output@@V?$standard_base@_WV?$stream_output_adapter@_W@__crt_stdio_output@@@2@@__crt_stdio_output@@AEAAXII_N@Z 0000000180019450 f i libucrt:output.obj
 0001:000184ec       ??$type_case_integer_parse_into_buffer@_K@?$output_processor@_WV?$string_output_adapter@_W@__crt_stdio_output@@V?$standard_base@_WV?$string_output_adapter@_W@__crt_stdio_output@@@2@@__crt_stdio_output@@AEAAX_KI_N@Z 00000001800194ec f i libucrt:output.obj
 0001:000184ec       ??$type_case_integer_parse_into_buffer@_K@?$output_processor@_WV?$stream_output_adapter@_W@__crt_stdio_output@@V?$standard_base@_WV?$stream_output_adapter@_W@__crt_stdio_output@@@2@@__crt_stdio_output@@AEAAX_KI_N@Z 00000001800194ec f i libucrt:output.obj
 0001:00018588       ??$write_multiple_characters@V?$stream_output_adapter@_W@__crt_stdio_output@@D@__crt_stdio_output@@YAXAEBV?$stream_output_adapter@_W@0@DHQEAH@Z 0000000180019588 f i libucrt:output.obj
 0001:00018618       ??$write_multiple_characters@V?$string_output_adapter@_W@__crt_stdio_output@@D@__crt_stdio_output@@YAXAEBV?$string_output_adapter@_W@0@DHQEAH@Z 0000000180019618 f i libucrt:output.obj
 0001:00018688       ??0?$output_processor@_WV?$string_output_adapter@_W@__crt_stdio_output@@V?$standard_base@_WV?$string_output_adapter@_W@__crt_stdio_output@@@2@@__crt_stdio_output@@QEAA@AEBV?$string_output_adapter@_W@1@_KQEB_WQEAU__crt_locale_pointers@@QEAD@Z 0000000180019688 f i libucrt:output.obj
 0001:00018688       ??0?$output_processor@_WV?$stream_output_adapter@_W@__crt_stdio_output@@V?$standard_base@_WV?$stream_output_adapter@_W@__crt_stdio_output@@@2@@__crt_stdio_output@@QEAA@AEBV?$stream_output_adapter@_W@1@_KQEB_WQEAU__crt_locale_pointers@@QEAD@Z 0000000180019688 f i libucrt:output.obj
 0001:000187f8       ?force_decimal_point@__crt_stdio_output@@YAXPEADQEAU__crt_locale_pointers@@@Z 00000001800197f8 f i libucrt:output.obj
 0001:00018868       ?parse_int_from_format_string@?$output_processor@_WV?$string_output_adapter@_W@__crt_stdio_output@@V?$standard_base@_WV?$string_output_adapter@_W@__crt_stdio_output@@@2@@__crt_stdio_output@@AEAA_NQEAH@Z 0000000180019868 f i libucrt:output.obj
 0001:00018868       ?parse_int_from_format_string@?$output_processor@_WV?$stream_output_adapter@_W@__crt_stdio_output@@V?$standard_base@_WV?$stream_output_adapter@_W@__crt_stdio_output@@@2@@__crt_stdio_output@@AEAA_NQEAH@Z 0000000180019868 f i libucrt:output.obj
 0001:000188e8       ?process@?$output_processor@_WV?$stream_output_adapter@_W@__crt_stdio_output@@V?$standard_base@_WV?$stream_output_adapter@_W@__crt_stdio_output@@@2@@__crt_stdio_output@@QEAAHXZ 00000001800198e8 f i libucrt:output.obj
 0001:00018b60       ?process@?$output_processor@_WV?$string_output_adapter@_W@__crt_stdio_output@@V?$standard_base@_WV?$string_output_adapter@_W@__crt_stdio_output@@@2@@__crt_stdio_output@@QEAAHXZ 0000000180019b60 f i libucrt:output.obj
 0001:00018ddc       ?state_case_size@?$output_processor@_WV?$stream_output_adapter@_W@__crt_stdio_output@@V?$standard_base@_WV?$stream_output_adapter@_W@__crt_stdio_output@@@2@@__crt_stdio_output@@AEAA_NXZ 0000000180019ddc f i libucrt:output.obj
 0001:00018f80       ?state_case_size@?$output_processor@_WV?$string_output_adapter@_W@__crt_stdio_output@@V?$standard_base@_WV?$string_output_adapter@_W@__crt_stdio_output@@@2@@__crt_stdio_output@@AEAA_NXZ 0000000180019f80 f i libucrt:output.obj
 0001:00019124       ?state_case_type@?$output_processor@_WV?$stream_output_adapter@_W@__crt_stdio_output@@V?$standard_base@_WV?$stream_output_adapter@_W@__crt_stdio_output@@@2@@__crt_stdio_output@@AEAA_NXZ 000000018001a124 f i libucrt:output.obj
 0001:000193f0       ?state_case_type@?$output_processor@_WV?$string_output_adapter@_W@__crt_stdio_output@@V?$standard_base@_WV?$string_output_adapter@_W@__crt_stdio_output@@@2@@__crt_stdio_output@@AEAA_NXZ 000000018001a3f0 f i libucrt:output.obj
 0001:000196bc       ?type_case_Z@?$output_processor@_WV?$stream_output_adapter@_W@__crt_stdio_output@@V?$standard_base@_WV?$stream_output_adapter@_W@__crt_stdio_output@@@2@@__crt_stdio_output@@AEAA_NXZ 000000018001a6bc f i libucrt:output.obj
 0001:000196bc       ?type_case_Z@?$output_processor@_WV?$string_output_adapter@_W@__crt_stdio_output@@V?$standard_base@_WV?$string_output_adapter@_W@__crt_stdio_output@@@2@@__crt_stdio_output@@AEAA_NXZ 000000018001a6bc f i libucrt:output.obj
 0001:0001973c       ?type_case_a@?$output_processor@_WV?$string_output_adapter@_W@__crt_stdio_output@@V?$standard_base@_WV?$string_output_adapter@_W@__crt_stdio_output@@@2@@__crt_stdio_output@@AEAA_NXZ 000000018001a73c f i libucrt:output.obj
 0001:0001973c       ?type_case_a@?$output_processor@_WV?$stream_output_adapter@_W@__crt_stdio_output@@V?$standard_base@_WV?$stream_output_adapter@_W@__crt_stdio_output@@@2@@__crt_stdio_output@@AEAA_NXZ 000000018001a73c f i libucrt:output.obj
 0001:00019980       ?type_case_c_tchar@?$output_processor@_WV?$string_output_adapter@_W@__crt_stdio_output@@V?$standard_base@_WV?$string_output_adapter@_W@__crt_stdio_output@@@2@@__crt_stdio_output@@AEAA_N_W@Z 000000018001a980 f i libucrt:output.obj
 0001:00019980       ?type_case_c_tchar@?$output_processor@_WV?$stream_output_adapter@_W@__crt_stdio_output@@V?$standard_base@_WV?$stream_output_adapter@_W@__crt_stdio_output@@@2@@__crt_stdio_output@@AEAA_N_W@Z 000000018001a980 f i libucrt:output.obj
 0001:00019a28       ?type_case_integer@?$output_processor@_WV?$stream_output_adapter@_W@__crt_stdio_output@@V?$standard_base@_WV?$stream_output_adapter@_W@__crt_stdio_output@@@2@@__crt_stdio_output@@AEAA_NI_N@Z 000000018001aa28 f i libucrt:output.obj
 0001:00019a28       ?type_case_integer@?$output_processor@_WV?$string_output_adapter@_W@__crt_stdio_output@@V?$standard_base@_WV?$string_output_adapter@_W@__crt_stdio_output@@@2@@__crt_stdio_output@@AEAA_NI_N@Z 000000018001aa28 f i libucrt:output.obj
 0001:00019bc8       ?type_case_n@?$output_processor@_WV?$string_output_adapter@_W@__crt_stdio_output@@V?$standard_base@_WV?$string_output_adapter@_W@__crt_stdio_output@@@2@@__crt_stdio_output@@AEAA_NXZ 000000018001abc8 f i libucrt:output.obj
 0001:00019bc8       ?type_case_n@?$output_processor@_WV?$stream_output_adapter@_W@__crt_stdio_output@@V?$standard_base@_WV?$stream_output_adapter@_W@__crt_stdio_output@@@2@@__crt_stdio_output@@AEAA_NXZ 000000018001abc8 f i libucrt:output.obj
 0001:00019ca4       ?type_case_s@?$output_processor@_WV?$stream_output_adapter@_W@__crt_stdio_output@@V?$standard_base@_WV?$stream_output_adapter@_W@__crt_stdio_output@@@2@@__crt_stdio_output@@AEAA_NXZ 000000018001aca4 f i libucrt:output.obj
 0001:00019ca4       ?type_case_s@?$output_processor@_WV?$string_output_adapter@_W@__crt_stdio_output@@V?$standard_base@_WV?$string_output_adapter@_W@__crt_stdio_output@@@2@@__crt_stdio_output@@AEAA_NXZ 000000018001aca4 f i libucrt:output.obj
 0001:00019d6c       ?write_stored_string_tchar@?$output_processor@_WV?$stream_output_adapter@_W@__crt_stdio_output@@V?$standard_base@_WV?$stream_output_adapter@_W@__crt_stdio_output@@@2@@__crt_stdio_output@@AEAA_N_W@Z 000000018001ad6c f i libucrt:output.obj
 0001:00019e58       ?write_stored_string_tchar@?$output_processor@_WV?$string_output_adapter@_W@__crt_stdio_output@@V?$standard_base@_WV?$string_output_adapter@_W@__crt_stdio_output@@@2@@__crt_stdio_output@@AEAA_N_W@Z 000000018001ae58 f i libucrt:output.obj
 0001:00019f48       ?write_string@?$stream_output_adapter@_W@__crt_stdio_output@@QEBAXQEB_WHQEAH1@Z 000000018001af48 f i libucrt:output.obj
 0001:0001a054       ?write_string@?$string_output_adapter@_W@__crt_stdio_output@@QEBAXQEB_WHQEAH1@Z 000000018001b054 f i libucrt:output.obj
 0001:0001a114       __stdio_common_vfwprintf   000000018001b114 f   libucrt:output.obj
 0001:0001a1a0       __stdio_common_vswprintf   000000018001b1a0 f   libucrt:output.obj
 0001:0001a3d8       wcsncpy                    000000018001b3d8 f   libucrt:wcsncpy.obj
 0001:0001ae08       ??$ftprintf@PEAU_iobuf@@PEB_WAEBQEB_WAEBQEB_WAEBI@?$__crt_char_traits@_W@@SAH$$QEAPEAU_iobuf@@$$QEAPEB_WAEBQEB_W2AEBI@Z 000000018001be08 f i libucrt:assert.obj
 0001:0001ae30       _wassert                   000000018001be30 f   libucrt:assert.obj
 0001:0001aeb4       fwprintf                   000000018001beb4 f i libucrt:assert.obj
 0001:0001aef8       swprintf                   000000018001bef8 f i libucrt:assert.obj
 0001:0001af4c       __ascii_stricmp            000000018001bf4c f   libucrt:stricmp.obj
 0001:0001af88       _stricmp                   000000018001bf88 f   libucrt:stricmp.obj
 0001:0001afd0       _stricmp_l                 000000018001bfd0 f   libucrt:stricmp.obj
 0001:0001b084       __acrt_initialize_locks    000000018001c084 f   libucrt:locks.obj
 0001:0001b0cc       __acrt_lock                000000018001c0cc f   libucrt:locks.obj
 0001:0001b0e8       __acrt_uninitialize_locks  000000018001c0e8 f   libucrt:locks.obj
 0001:0001b120       __acrt_unlock              000000018001c120 f   libucrt:locks.obj
 0001:0001b13c       _lock_locales              000000018001c13c f   libucrt:locks.obj
 0001:0001b14c       _unlock_locales            000000018001c14c f   libucrt:locks.obj
 0001:0001b15c       __acrt_errno_from_os_error 000000018001c15c f   libucrt:errno.obj
 0001:0001b1a4       __acrt_errno_map_os_error  000000018001c1a4 f   libucrt:errno.obj
 0001:0001b1f4       __doserrno                 000000018001c1f4 f   libucrt:errno.obj
 0001:0001b214       _errno                     000000018001c214 f   libucrt:errno.obj
 0001:0001b234       __acrt_initialize_stdio    000000018001c234 f   libucrt:_file.obj
 0001:0001b354       __acrt_iob_func            000000018001c354 f   libucrt:_file.obj
 0001:0001b368       __acrt_uninitialize_stdio  000000018001c368 f   libucrt:_file.obj
 0001:0001b3c4       _get_stream_buffer_pointers 000000018001c3c4 f   libucrt:_file.obj
 0001:0001b40c       _lock_file                 000000018001c40c f   libucrt:_file.obj
 0001:0001b418       _unlock_file               000000018001c418 f   libucrt:_file.obj
 0001:0001b424       _fclose_nolock             000000018001c424 f   libucrt:fclose.obj
 0001:0001b4a8       fclose                     000000018001c4a8 f   libucrt:fclose.obj
 0001:0001b514       __acrt_stdio_flush_nolock  000000018001c514 f   libucrt:fflush.obj
 0001:0001b58c       _fflush_nolock             000000018001c58c f   libucrt:fflush.obj
 0001:0001b5d8       _flushall                  000000018001c5d8 f   libucrt:fflush.obj
 0001:0001b6c8       fflush                     000000018001c6c8 f   libucrt:fflush.obj
 0001:0001b70c       _fgetc_nolock              000000018001c70c f   libucrt:fgetc.obj
 0001:0001b750       fgetc                      000000018001c750 f   libucrt:fgetc.obj
 0001:0001b854       fgetpos                    000000018001c854 f   libucrt:fgetpos.obj
 0001:0001b8a0       _fputc_nolock              000000018001c8a0 f   libucrt:fputc.obj
 0001:0001b8b8       fputc                      000000018001c8b8 f   libucrt:fputc.obj
 0001:0001b9d8       fsetpos                    000000018001c9d8 f   libucrt:fsetpos.obj
 0001:0001bc84       _fseeki64                  000000018001cc84 f   libucrt:fseek.obj
 0001:0001bc8c       ??$?RV<lambda_5d4c3fee44080f75d5d9762853974fe0>@@AEAV<lambda_532e024f4337e6fc7ad266c2bef9f4ed>@@V<lambda_c87bdc10097eb2402edb8ba9bdf0697b>@@@?$__crt_seh_guarded_call@_K@@QEAA_K$$QEAV<lambda_5d4c3fee44080f75d5d9762853974fe0>@@AEAV<lambda_532e024f4337e6fc7ad266c2bef9f4ed>@@$$QEAV<lambda_c87bdc10097eb2402edb8ba9bdf0697b>@@@Z 000000018001cc8c f i libucrt:fwrite.obj
 0001:0001bd30       _fwrite_nolock             000000018001cd30 f   libucrt:fwrite.obj
 0001:0001becc       fwrite                     000000018001cecc f   libucrt:fwrite.obj
 0001:0001bf50       ??$?RV<lambda_7a5ef57ff966f610505f1d28a3d40618>@@AEAV<lambda_b721fa326cdb32351d23dfa67958c160>@@V<lambda_5e0fb27672408a07956fe59e48ccb2aa>@@@?$__crt_seh_guarded_call@H@@QEAAH$$QEAV<lambda_7a5ef57ff966f610505f1d28a3d40618>@@AEAV<lambda_b721fa326cdb32351d23dfa67958c160>@@$$QEAV<lambda_5e0fb27672408a07956fe59e48ccb2aa>@@@Z 000000018001cf50 f i libucrt:setvbuf.obj
 0001:0001c080       setvbuf                    000000018001d080 f   libucrt:setvbuf.obj
 0001:0001c120       _ungetc_nolock             000000018001d120 f   libucrt:ungetc.obj
 0001:0001c230       ungetc                     000000018001d230 f   libucrt:ungetc.obj
 0001:0001c290       malloc                     000000018001d290 f   libucrt:malloc.obj
 0001:0001c380       setlocale                  000000018001d380 f   libucrt:setlocale.obj
 0001:0001c54c       _calloc_base               000000018001d54c f   libucrt:calloc_base.obj
 0001:0001c5c4       __pctype_func              000000018001d5c4 f   libucrt:ctype.obj
 0001:0001c5f4       isdigit                    000000018001d5f4 f i libucrt:_ctype.obj
 0001:0001c668       islower                    000000018001d668 f i libucrt:_ctype.obj
 0001:0001c6dc       isupper                    000000018001d6dc f i libucrt:_ctype.obj
 0001:0001c750       _wcsdup                    000000018001d750 f   libucrt:wcsdup.obj
 0001:0001c7d4       ___lc_codepage_func        000000018001d7d4 f   libucrt:initctype.obj
 0001:0001c804       ___lc_locale_name_func     000000018001d804 f   libucrt:initctype.obj
 0001:0001c838       __acrt_locale_initialize_ctype 000000018001d838 f   libucrt:initctype.obj
 0001:0001ce84       _ismbblead                 000000018001de84 f   libucrt:ismbbyte.obj
 0001:0001ce98       _malloc_base               000000018001de98 f   libucrt:malloc_base.obj
 0001:0001cef8       _realloc_base              000000018001def8 f   libucrt:realloc_base.obj
 0001:0001cf7c       ??$make_c_string_character_source@_W$$T@__crt_strtox@@YA?AV?$c_string_character_source@_W@0@QEB_W$$T@Z 000000018001df7c f i libucrt:atox.obj
 0001:0001cf7c       ??$make_c_string_character_source@_WPEAPEA_W@__crt_strtox@@YA?AV?$c_string_character_source@_W@0@QEB_WQEAPEA_W@Z 000000018001df7c f i libucrt:strtod.obj
 0001:0001cf90       ?divide@__crt_strtox@@YA_KAEAUbig_integer@1@AEBU21@@Z 000000018001df90 f i libucrt:strtod.obj
 0001:0001d4f0       pow                        000000018001e4f0 f   libucrt:pow.obj
 0001:0001eb90       powf                       000000018001fb90 f   libucrt:powf.obj
 0001:0001fa58       __strncnt                  0000000180020a58 f   libucrt:strncnt.obj
 0001:0001fa70       _free_base                 0000000180020a70 f   libucrt:free_base.obj
 0001:0001fab0       wcscpy_s                   0000000180020ab0 f   libucrt:wcscpy_s.obj
 0001:0001fb18       wcsnlen                    0000000180020b18 f   libucrt:strnlen.obj
 0001:0001fd08       _recalloc                  0000000180020d08 f   libucrt:recalloc.obj
 0001:0001fd10       _recalloc_base             0000000180020d10 f   libucrt:recalloc.obj
 0001:0001fda8       _seh_filter_dll            0000000180020da8 f   libucrt:exception_filter.obj
 0001:0001fdbc       _seh_filter_exe            0000000180020dbc f   libucrt:exception_filter.obj
 0001:0002017c       __acrt_initialize_thread_local_exit_callback 000000018002117c f   libucrt:exit.obj
 0001:00020184       _cexit                     0000000180021184 f   libucrt:exit.obj
 0001:00020194       _exit                      0000000180021194 f   libucrt:exit.obj
 0001:000201a0       _is_c_termination_complete 00000001800211a0 f   libucrt:exit.obj
 0001:00020364       __acrt_allocate_buffer_for_argv 0000000180021364 f   libucrt:argv_parsing.obj
 0001:000203c8       _configure_narrow_argv     00000001800213c8 f   libucrt:argv_parsing.obj
 0001:00020724       __dcrt_uninitialize_environments_nolock 0000000180021724 f   libucrt:environment_initialization.obj
 0001:0002075c       _initialize_narrow_environment 000000018002175c f   libucrt:environment_initialization.obj
 0001:00020764       ??$?RV<lambda_b8c45f8f788dd370798f47cfe8ac3a86>@@AEAV<lambda_4e60a939b0d047cfe11ddc22648dfba9>@@V<lambda_332c3edc96d0294ec56c57d38c1cdfd5>@@@?$__crt_seh_guarded_call@H@@QEAAH$$QEAV<lambda_b8c45f8f788dd370798f47cfe8ac3a86>@@AEAV<lambda_4e60a939b0d047cfe11ddc22648dfba9>@@$$QEAV<lambda_332c3edc96d0294ec56c57d38c1cdfd5>@@@Z 0000000180021764 f i libucrt:onexit.obj
 0001:000207a0       ??$?RV<lambda_e24bbb7b643b32fcea6fa61b31d4c984>@@AEAV<lambda_275893d493268fdec8709772e3fcec0e>@@V<lambda_9d71df4d7cf3f480f8d633942495c3b0>@@@?$__crt_seh_guarded_call@H@@QEAAH$$QEAV<lambda_e24bbb7b643b32fcea6fa61b31d4c984>@@AEAV<lambda_275893d493268fdec8709772e3fcec0e>@@$$QEAV<lambda_9d71df4d7cf3f480f8d633942495c3b0>@@@Z 00000001800217a0 f i libucrt:onexit.obj
 0001:00020b1c       _crt_atexit                0000000180021b1c f   libucrt:onexit.obj
 0001:00020b2c       _execute_onexit_table      0000000180021b2c f   libucrt:onexit.obj
 0001:00020b68       _initialize_onexit_table   0000000180021b68 f   libucrt:onexit.obj
 0001:00020ba8       _register_onexit_function  0000000180021ba8 f   libucrt:onexit.obj
 0001:00020c28       __acrt_uninitialize_command_line 0000000180021c28 f   libucrt:argv_data.obj
 0001:00020c28       ?do_always_noconv@?$codecvt@DDU_Mbstatet@@@std@@MEBA_NXZ 0000000180021c28 f   libcpmt:cout.obj
 0001:00020d28       __acrt_initialize          0000000180021d28 f   libucrt:initialization.obj
 0001:00020d3c       __acrt_thread_attach       0000000180021d3c f   libucrt:initialization.obj
 0001:00020d50       __acrt_thread_detach       0000000180021d50 f   libucrt:initialization.obj
 0001:00020d60       __acrt_uninitialize        0000000180021d60 f   libucrt:initialization.obj
 0001:00020d74       __acrt_uninitialize_critical 0000000180021d74 f   libucrt:initialization.obj
 0001:00020d84       __acrt_initialize_new_handler 0000000180021d84 f   libucrt:new_handler.obj
 0001:00020d8c       _callnewh                  0000000180021d8c f   libucrt:new_handler.obj
 0001:00020dcc       _query_new_handler         0000000180021dcc f   libucrt:new_handler.obj
 0001:00020e00       _initterm                  0000000180021e00 f   libucrt:initterm.obj
 0001:00020e78       _initterm_e                0000000180021e78 f   libucrt:initterm.obj
 0001:00020ec4       terminate                  0000000180021ec4 f   libucrt:terminate.obj
 0001:00020eec       strcpy_s                   0000000180021eec f   libucrt:strcpy_s.obj
 0001:00020f4c       ??$is_overflow_condition@K@__crt_strtox@@YA_NIK@Z 0000000180021f4c f i libucrt:atox.obj
 0001:00020f78       ??$parse_integer@KV?$c_string_character_source@_W@__crt_strtox@@@__crt_strtox@@YAKQEAU__crt_locale_pointers@@V?$c_string_character_source@_W@0@H_N@Z 0000000180021f78 f i libucrt:atox.obj
 0001:0002164c       _wtol                      000000018002264c f   libucrt:atox.obj
 0001:00021678       ??$?RV<lambda_c36588078e9f5dfd39652860aa6b3aaf>@@AEAV<lambda_ec61778202f4f5fc7e7711acc23c3bca>@@V<lambda_dc9d2797ccde5d239b4a0efae8ebd7db>@@@?$__crt_seh_guarded_call@P6AXH@Z@@QEAAP6AXH@Z$$QEAV<lambda_c36588078e9f5dfd39652860aa6b3aaf>@@AEAV<lambda_ec61778202f4f5fc7e7711acc23c3bca>@@$$QEAV<lambda_dc9d2797ccde5d239b4a0efae8ebd7db>@@@Z 0000000180022678 f i libucrt:signal.obj
 0001:000216c0       __acrt_get_sigabrt_handler 00000001800226c0 f   libucrt:signal.obj
 0001:000216f0       __acrt_initialize_signal_handlers 00000001800226f0 f   libucrt:signal.obj
 0001:00021710       raise                      0000000180022710 f   libucrt:signal.obj
 0001:000219ac       ??$?RV<lambda_46352004c1216016012b18bd6f87e700>@@AEAV<lambda_3bd07e1a1191394380780325891bf33f>@@V<lambda_334532d3f185bcaa59b5be82d7d22bff>@@@?$__crt_seh_guarded_call@X@@QEAAX$$QEAV<lambda_46352004c1216016012b18bd6f87e700>@@AEAV<lambda_3bd07e1a1191394380780325891bf33f>@@$$QEAV<lambda_334532d3f185bcaa59b5be82d7d22bff>@@@Z 00000001800229ac f i libucrt:per_thread_data.obj
 0001:00021a0c       ??$?RV<lambda_5e887d1dcbef67a5eb4283622ba103bf>@@AEAV<lambda_4466841279450cc726390878d4a41900>@@V<lambda_341c25c0346d94847f1f3c463c57e077>@@@?$__crt_seh_guarded_call@X@@QEAAX$$QEAV<lambda_5e887d1dcbef67a5eb4283622ba103bf>@@AEAV<lambda_4466841279450cc726390878d4a41900>@@$$QEAV<lambda_341c25c0346d94847f1f3c463c57e077>@@@Z 0000000180022a0c f i libucrt:per_thread_data.obj
 0001:00021a54       ??$?RV<lambda_72d1df2b273a38828b1ce30cbf4cdab5>@@AEAV<lambda_876a65b173b8412d3a47c70a915b0cf4>@@V<lambda_41932305e351933ebe8f8be3ed8bb5dc>@@@?$__crt_seh_guarded_call@X@@QEAAX$$QEAV<lambda_72d1df2b273a38828b1ce30cbf4cdab5>@@AEAV<lambda_876a65b173b8412d3a47c70a915b0cf4>@@$$QEAV<lambda_41932305e351933ebe8f8be3ed8bb5dc>@@@Z 0000000180022a54 f i libucrt:per_thread_data.obj
 0001:00021a94       ??$?RV<lambda_fb3a7dec4e47f37f22dae91bb15c9095>@@AEAV<lambda_698284760c8add0bfb0756c19673e34b>@@V<lambda_dfb8eca1e75fef3034a8fb18dd509707>@@@?$__crt_seh_guarded_call@X@@QEAAX$$QEAV<lambda_fb3a7dec4e47f37f22dae91bb15c9095>@@AEAV<lambda_698284760c8add0bfb0756c19673e34b>@@$$QEAV<lambda_dfb8eca1e75fef3034a8fb18dd509707>@@@Z 0000000180022a94 f i libucrt:per_thread_data.obj
 0001:00021d24       __acrt_freeptd             0000000180022d24 f   libucrt:per_thread_data.obj
 0001:00021d68       __acrt_getptd              0000000180022d68 f   libucrt:per_thread_data.obj
 0001:00021dfc       __acrt_getptd_noexit       0000000180022dfc f   libucrt:per_thread_data.obj
 0001:00021e9c       __acrt_initialize_ptd      0000000180022e9c f   libucrt:per_thread_data.obj
 0001:00021ed8       __acrt_uninitialize_ptd    0000000180022ed8 f   libucrt:per_thread_data.obj
 0001:00021efc       _isleadbyte_l              0000000180022efc f i libucrt:_wctype.obj
 0001:00021f3c       _isctype_l                 0000000180022f3c f   libucrt:isctype.obj
 0001:000223a8       __acrt_LCMapStringA        00000001800233a8 f   libucrt:lcmapstringa.obj
 0001:00022440       __acrt_update_locale_info  0000000180023440 f   libucrt:locale_update.obj
 0001:00022474       __acrt_update_multibyte_info 0000000180023474 f   libucrt:locale_update.obj
 0001:000224a8       ??$?RV<lambda_5df02c53a8f32f81fd64e5bbb78039f1>@@AEAV<lambda_2af78c5f5901b1372d98f9ab3177dfa6>@@AEAV<lambda_f51fe5fd7c79a33db34fc9310f277369>@@@?$__crt_seh_guarded_call@X@@QEAAX$$QEAV<lambda_5df02c53a8f32f81fd64e5bbb78039f1>@@AEAV<lambda_2af78c5f5901b1372d98f9ab3177dfa6>@@AEAV<lambda_f51fe5fd7c79a33db34fc9310f277369>@@@Z 00000001800234a8 f i libucrt:wsetlocale.obj
 0001:000224d4       ??$?RV<lambda_d67e8342c384adda8f857579ab50b2ae>@@AEAV<lambda_30712929f77e709619002f448b6a9510>@@V<lambda_4525336fd7e478d965fb7ca7a337cad8>@@@?$__crt_seh_guarded_call@X@@QEAAX$$QEAV<lambda_d67e8342c384adda8f857579ab50b2ae>@@AEAV<lambda_30712929f77e709619002f448b6a9510>@@$$QEAV<lambda_4525336fd7e478d965fb7ca7a337cad8>@@@Z 00000001800234d4 f i libucrt:wsetlocale.obj
 0001:000226a0       __acrt_copy_locale_name    00000001800236a0 f   libucrt:wsetlocale.obj
 0001:00022724       __acrt_set_locale_changed  0000000180023724 f   libucrt:wsetlocale.obj
 0001:00022730       __acrt_uninitialize_locale 0000000180023730 f   libucrt:wsetlocale.obj
 0001:00022778       __lc_lctowcs               0000000180023778 f   libucrt:wsetlocale.obj
 0001:0002281c       __lc_wcstolc               000000018002381c f   libucrt:wsetlocale.obj
 0001:00022a94       _expandlocale              0000000180023a94 f   libucrt:wsetlocale.obj
 0001:00022e90       _wcscats                   0000000180023e90 f   libucrt:wsetlocale.obj
 0001:00022ef8       _wsetlocale                0000000180023ef8 f   libucrt:wsetlocale.obj
 0001:00023744       wcstol                     0000000180024744 f   libucrt:strtox.obj
 0001:00023774       _mbtowc_l                  0000000180024774 f   libucrt:mbtowc.obj
 0001:000238bc       mbtowc                     00000001800248bc f   libucrt:mbtowc.obj
 0001:000238c4       _wctomb_s_l                00000001800248c4 f   libucrt:wctomb.obj
 0001:00023a48       wctomb_s                   0000000180024a48 f   libucrt:wctomb.obj
 0001:00023a5c       ?__acrt_fp_classify@@YA?AW4__acrt_fp_class@@AEBN@Z 0000000180024a5c f i libucrt:cvt.obj
 0001:00024494       __acrt_fp_format           0000000180025494 f   libucrt:cvt.obj
 0001:000246d8       _fputwc_nolock             00000001800256d8 f   libucrt:fputwc.obj
 0001:00024854       _fileno                    0000000180025854 f   libucrt:fileno.obj
 0001:0002487c       _get_printf_count_output   000000018002587c f   libucrt:printf_count_output.obj
 0001:00024894       __acrt_stdio_begin_temporary_buffering_nolock 0000000180025894 f   libucrt:_sftbuf.obj
 0001:00024964       __acrt_stdio_end_temporary_buffering_nolock 0000000180025964 f   libucrt:_sftbuf.obj
 0001:00024b88       __acrt_initialize_lowio    0000000180025b88 f   libucrt:ioinit.obj
 0001:00024bc4       __acrt_uninitialize_lowio  0000000180025bc4 f   libucrt:ioinit.obj
 0001:00024c04       _raise_exc                 0000000180025c04 f   libucrt:fpexcept.obj
 0001:00024c2c       _raise_exc_ex              0000000180025c2c f   libucrt:fpexcept.obj
 0001:00024f34       _raise_excf                0000000180025f34 f   libucrt:fpexcept.obj
 0001:00024f60       _set_errno_from_matherr    0000000180025f60 f   libucrt:fpexcept.obj
 0001:00024f90       _clrfp                     0000000180025f90 f   libucrt:fpctrl.obj
 0001:00024fb0       _ctrlfp                    0000000180025fb0 f   libucrt:fpctrl.obj
 0001:0002502c       _set_statfp                000000018002602c f   libucrt:fpctrl.obj
 0001:0002504c       _statfp                    000000018002604c f   libucrt:fpctrl.obj
 0001:00025060       _query_app_type            0000000180026060 f   libucrt:report_runtime_error.obj
 0001:00025190       _itow_s                    0000000180026190 f   libucrt:xtoa.obj
 0001:000251b0       _set_error_mode            00000001800261b0 f   libucrt:set_error_mode.obj
 0001:000251f0       wcscat_s                   00000001800261f0 f   libucrt:wcscat_s.obj
 0001:00025270       wcsncat_s                  0000000180026270 f   libucrt:wcsncat_s.obj
 0001:00025398       __acrt_show_wide_message_box 0000000180026398 f   libucrt:crtmbox.obj
 0001:000254f8       ??$?RV<lambda_630b2aca97f6d20d5b5ea6529ea6b6af>@@AEAV<lambda_af91936f1d075d609f72d9d8cba980af>@@V<lambda_e82fa975f615b5c7c7b0e4d178fdae67>@@@?$__crt_seh_guarded_call@H@@QEAAH$$QEAV<lambda_630b2aca97f6d20d5b5ea6529ea6b6af>@@AEAV<lambda_af91936f1d075d609f72d9d8cba980af>@@$$QEAV<lambda_e82fa975f615b5c7c7b0e4d178fdae67>@@@Z 00000001800264f8 f i libucrt:winapi_thunks.obj
 0001:00025730       __acrt_EnumSystemLocalesEx 0000000180026730 f   libucrt:winapi_thunks.obj
 0001:000257d8       __acrt_FlsAlloc            00000001800267d8 f   libucrt:winapi_thunks.obj
 0001:00025830       __acrt_FlsFree             0000000180026830 f   libucrt:winapi_thunks.obj
 0001:00025888       __acrt_FlsGetValue         0000000180026888 f   libucrt:winapi_thunks.obj
 0001:000258e0       __acrt_FlsSetValue         00000001800268e0 f   libucrt:winapi_thunks.obj
 0001:00025948       __acrt_GetLocaleInfoEx     0000000180026948 f   libucrt:winapi_thunks.obj
 0001:000259e0       __acrt_GetUserDefaultLocaleName 00000001800269e0 f   libucrt:winapi_thunks.obj
 0001:00025a54       __acrt_InitializeCriticalSectionEx 0000000180026a54 f   libucrt:winapi_thunks.obj
 0001:00025acc       __acrt_IsValidLocaleName   0000000180026acc f   libucrt:winapi_thunks.obj
 0001:00025b34       __acrt_LCIDToLocaleName    0000000180026b34 f   libucrt:winapi_thunks.obj
 0001:00025bc0       __acrt_LCMapStringEx       0000000180026bc0 f   libucrt:winapi_thunks.obj
 0001:00025cb0       __acrt_LocaleNameToLCID    0000000180026cb0 f   libucrt:winapi_thunks.obj
 0001:00025d18       __acrt_MessageBoxW         0000000180026d18 f   libucrt:winapi_thunks.obj
 0001:00025da0       __acrt_can_show_message_box 0000000180026da0 f   libucrt:winapi_thunks.obj
 0001:00025dfc       __acrt_can_use_vista_locale_apis 0000000180026dfc f   libucrt:winapi_thunks.obj
 0001:00025e2c       __acrt_get_parent_window   0000000180026e2c f   libucrt:winapi_thunks.obj
 0001:00025ebc       __acrt_initialize_winapi_thunks 0000000180026ebc f   libucrt:winapi_thunks.obj
 0001:00025ef4       __acrt_is_interactive      0000000180026ef4 f   libucrt:winapi_thunks.obj
 0001:00025fc8       __acrt_is_packaged_app     0000000180026fc8 f   libucrt:winapi_thunks.obj
 0001:00026050       __acrt_uninitialize_winapi_thunks 0000000180027050 f   libucrt:winapi_thunks.obj
 0001:00026094       _fcloseall                 0000000180027094 f   libucrt:closeall.obj
 0001:00026148       __acrt_stdio_free_buffer_nolock 0000000180027148 f   libucrt:_freebuf.obj
 0001:00026188       ??$?RV<lambda_bfedae4ebbf01fab1bb6dcc6a9e276e0>@@AEAV<lambda_2fe9b910cf3cbf4a0ab98a02ba45b3ec>@@V<lambda_237c231691f317818eb88cc1d5d642d6>@@@?$__crt_seh_guarded_call@H@@QEAAH$$QEAV<lambda_bfedae4ebbf01fab1bb6dcc6a9e276e0>@@AEAV<lambda_2fe9b910cf3cbf4a0ab98a02ba45b3ec>@@$$QEAV<lambda_237c231691f317818eb88cc1d5d642d6>@@@Z 0000000180027188 f i libucrt:close.obj
 0001:000261fc       _close                     00000001800271fc f   libucrt:close.obj
 0001:000262a0       _close_nolock              00000001800272a0 f   libucrt:close.obj
 0001:0002635c       ?__acrt_stdio_free_stream@@YAXV__crt_stdio_stream@@@Z 000000018002735c f   libucrt:stream.obj
 0001:000263a0       ??$?RV<lambda_b521505b218e5242e90febf6bfebc422>@@AEAV<lambda_6978c1fb23f02e42e1d9e99668cc68aa>@@V<lambda_314360699dd331753a4119843814e9a7>@@@?$__crt_seh_guarded_call@H@@QEAAH$$QEAV<lambda_b521505b218e5242e90febf6bfebc422>@@AEAV<lambda_6978c1fb23f02e42e1d9e99668cc68aa>@@$$QEAV<lambda_314360699dd331753a4119843814e9a7>@@@Z 00000001800273a0 f i libucrt:commit.obj
 0001:0002642c       _commit                    000000018002742c f   libucrt:commit.obj
 0001:00026a60       _write                     0000000180027a60 f   libucrt:write.obj
 0001:00026b4c       _write_nolock              0000000180027b4c f   libucrt:write.obj
 0001:00026fd8       __acrt_stdio_refill_and_read_narrow_nolock 0000000180027fd8 f   libucrt:_filbuf.obj
 0001:0002749c       _ftelli64                  000000018002849c f   libucrt:ftell.obj
 0001:000274a4       _ftelli64_nolock           00000001800284a4 f   libucrt:ftell.obj
 0001:000276bc       __acrt_stdio_flush_and_write_narrow_nolock 00000001800286bc f   libucrt:_flsbuf.obj
 0001:000277a4       __acrt_stdio_flush_and_write_wide_nolock 00000001800287a4 f   libucrt:_flsbuf.obj
 0001:00027a1c       _lseeki64                  0000000180028a1c f   libucrt:lseek.obj
 0001:00027a24       _lseeki64_nolock           0000000180028a24 f   libucrt:lseek.obj
 0001:00027a2c       __acrt_stdio_allocate_buffer_nolock 0000000180028a2c f   libucrt:_getbuf.obj
 0001:00027c6c       _mbstowcs_s_l              0000000180028c6c f   libucrt:mbstowcs.obj
 0001:00027d9c       mbstowcs_s                 0000000180028d9c f   libucrt:mbstowcs.obj
 0001:000280f0       _wcstombs_s_l              00000001800290f0 f   libucrt:wcstombs.obj
 0001:000281dc       _query_new_mode            00000001800291dc f   libucrt:new_mode.obj
 0001:000281e4       __acrt_initialize_heap     00000001800291e4 f   libucrt:heap_handle.obj
 0001:00028200       __acrt_uninitialize_heap   0000000180029200 f   libucrt:heap_handle.obj
 0001:000283ac       __acrt_GetLocaleInfoA      00000001800293ac f   libucrt:getlocaleinfoa.obj
 0001:00028574       __acrt_GetStringTypeA      0000000180029574 f   libucrt:getstringtypea.obj
 0001:00028728       iswctype                   0000000180029728 f   libucrt:iswctype.obj
 0001:000287a0       __acrt_initialize_fma3     00000001800297a0 f   libucrt:fma3_available.obj
 0001:00028810       _pow_special               0000000180029810 f   libucrt:pow_special.obj
 0001:00028934       _powf_special              0000000180029934 f   libucrt:pow_special.obj
 0001:00028ac0       _wcsicmp                   0000000180029ac0 f   libucrt:wcsicmp.obj
 0001:00028b48       _wcsicmp_l                 0000000180029b48 f   libucrt:wcsicmp.obj
 0001:00028c38       __acrt_initialize_timeset  0000000180029c38 f   libucrt:timeset.obj
 0001:00028c68       _msize                     0000000180029c68 f   libucrt:msize.obj
 0001:00029180       ?expand_if_necessary@?$argument_list@D@?A0xca0879c4@@AEAAHXZ 000000018002a180 f i libucrt:argv_wildcards.obj
 0001:00029248       __acrt_expand_narrow_argv_wildcards 000000018002a248 f   libucrt:argv_wildcards.obj
 0001:00029250       ??$?RV<lambda_99476a1ad63dd22509b5d3e65b0ffc95>@@AEAV<lambda_ad1ced32f4ac17aa236e5ef05d6b3b7c>@@V<lambda_f7424dd8d45958661754dc4f2697e9c3>@@@?$__crt_seh_guarded_call@X@@QEAAX$$QEAV<lambda_99476a1ad63dd22509b5d3e65b0ffc95>@@AEAV<lambda_ad1ced32f4ac17aa236e5ef05d6b3b7c>@@$$QEAV<lambda_f7424dd8d45958661754dc4f2697e9c3>@@@Z 000000018002a250 f i libucrt:mbctype.obj
 0001:0002994c       __acrt_initialize_multibyte 000000018002a94c f   libucrt:mbctype.obj
 0001:00029974       __acrt_update_thread_multibyte_data 000000018002a974 f   libucrt:mbctype.obj
 0001:00029a34       _setmbcp_nolock            000000018002aa34 f   libucrt:mbctype.obj
 0001:00029cdc       __acrt_initialize_command_line 000000018002acdc f   libucrt:argv_data.obj
 0001:00029d04       __dcrt_get_narrow_environment_from_os 000000018002ad04 f   libucrt:get_environment_from_os.obj
 0001:00029e08       __acrt_execute_initializers 000000018002ae08 f   libucrt:shared_initialization.obj
 0001:00029e9c       __acrt_execute_uninitializers 000000018002ae9c f   libucrt:shared_initialization.obj
 0001:00029eec       __acrt_has_user_matherr    000000018002aeec f   libucrt:matherr.obj
 0001:00029f0c       __acrt_initialize_user_matherr 000000018002af0c f   libucrt:matherr.obj
 0001:00029f14       __acrt_invoke_user_matherr 000000018002af14 f   libucrt:matherr.obj
 0001:00029f5c       __acrt_add_locale_ref      000000018002af5c f   libucrt:locale_refcounting.obj
 0001:00029fe8       __acrt_free_locale         000000018002afe8 f   libucrt:locale_refcounting.obj
 0001:0002a160       __acrt_locale_add_lc_time_reference 000000018002b160 f   libucrt:locale_refcounting.obj
 0001:0002a188       __acrt_locale_free_lc_time_if_unreferenced 000000018002b188 f   libucrt:locale_refcounting.obj
 0001:0002a1c0       __acrt_locale_release_lc_time_reference 000000018002b1c0 f   libucrt:locale_refcounting.obj
 0001:0002a1e8       __acrt_release_locale_ref  000000018002b1e8 f   libucrt:locale_refcounting.obj
 0001:0002a290       __acrt_update_thread_locale_data 000000018002b290 f   libucrt:locale_refcounting.obj
 0001:0002a300       _updatetlocinfoEx_nolock   000000018002b300 f   libucrt:locale_refcounting.obj
 0001:0002a368       __acrt_locale_free_monetary 000000018002b368 f   libucrt:initmon.obj
 0001:0002a474       __acrt_locale_initialize_monetary 000000018002b474 f   libucrt:initmon.obj
 0001:0002a9ac       __acrt_locale_free_numeric 000000018002b9ac f   libucrt:initnum.obj
 0001:0002aa18       __acrt_locale_initialize_numeric 000000018002ba18 f   libucrt:initnum.obj
 0001:0002b09c       __acrt_locale_free_time    000000018002c09c f   libucrt:inittime.obj
 0001:0002b1a4       __acrt_locale_initialize_time 000000018002c1a4 f   libucrt:inittime.obj
 0001:0002b238       wcsncpy_s                  000000018002c238 f   libucrt:wcsncpy_s.obj
 0001:0002b31c       wcscspn                    000000018002c31c f   libucrt:wcscspn.obj
 0001:0002b35c       wcsncmp                    000000018002c35c f   libucrt:wcsncmp.obj
 0001:0002b388       wcspbrk                    000000018002c388 f   libucrt:wcspbrk.obj
 0001:0002bc2c       __acrt_get_qualified_locale 000000018002cc2c f   libucrt:get_qualified_locale.obj
 0001:0002c618       __acrt_get_qualified_locale_downlevel 000000018002d618 f   libucrt:getqloc_downlevel.obj
 0001:0002c8a8       __acrt_fp_strflt_to_string 000000018002d8a8 f   libucrt:_fptostr.obj
 0001:0002c968       __acrt_fltout              000000018002d968 f   libucrt:cfout.obj
 0001:0002dcd4       _isatty                    000000018002ecd4 f   libucrt:isatty.obj
 0001:0002dd34       __acrt_lowio_create_handle_array 000000018002ed34 f   libucrt:osfinfo.obj
 0001:0002ddcc       __acrt_lowio_destroy_handle_array 000000018002edcc f   libucrt:osfinfo.obj
 0001:0002de1c       __acrt_lowio_ensure_fh_exists 000000018002ee1c f   libucrt:osfinfo.obj
 0001:0002ded4       __acrt_lowio_lock_fh       000000018002eed4 f   libucrt:osfinfo.obj
 0001:0002def8       __acrt_lowio_unlock_fh     000000018002eef8 f   libucrt:osfinfo.obj
 0001:0002df1c       _free_osfhnd               000000018002ef1c f   libucrt:osfinfo.obj
 0001:0002dfd8       _get_osfhandle             000000018002efd8 f   libucrt:osfinfo.obj
 0001:0002e060       _get_fpsr                  000000018002f060 f   libucrt:fpsr.obj
 0001:0002e070       _set_fpsr                  000000018002f070 f   libucrt:fpsr.obj
 0001:0002e07a       _fclrf                     000000018002f07a f   libucrt:fpsr.obj
 0001:0002e08e       _frnd                      000000018002f08e f   libucrt:fpsr.obj
 0001:0002e178       __acrt_DownlevelLCIDToLocaleName 000000018002f178 f   libucrt:lcidtoname_downlevel.obj
 0001:0002e25c       __acrt_DownlevelLocaleNameToLCID 000000018002f25c f   libucrt:lcidtoname_downlevel.obj
 0001:0002e290       _putwch_nolock             000000018002f290 f   libucrt:putwch.obj
 0001:0002e81c       _read                      000000018002f81c f   libucrt:read.obj
 0001:0002e934       _read_nolock               000000018002f934 f   libucrt:read.obj
 0001:0002ed9c       strncpy_s                  000000018002fd9c f   libucrt:strncpy_s.obj
 0001:0002ee70       _getfpcontrolword          000000018002fe70 f   libucrt:_fenvutils.obj
 0001:0002ee88       _getfpstatusword           000000018002fe88 f   libucrt:_fenvutils.obj
 0001:0002ee9c       _setfpcontrolword          000000018002fe9c f   libucrt:_fenvutils.obj
 0001:0002eea8       _setfpstatusword           000000018002fea8 f   libucrt:_fenvutils.obj
 0001:0002f01c       _handle_error              000000018003001c f   libucrt:libm_error.obj
 0001:0002f144       _handle_errorf             0000000180030144 f   libucrt:libm_error.obj
 0001:0002f278       _handle_nan                0000000180030278 f   libucrt:libm_error.obj
 0001:0002f294       _handle_nanf               0000000180030294 f   libucrt:libm_error.obj
 0001:0002f2a4       _towlower_l                00000001800302a4 f   libucrt:towlower.obj
 0001:0002f440       qsort                      0000000180030440 f   libucrt:qsort.obj
 0001:0002f774       strpbrk                    0000000180030774 f   libucrt:strpbrk.obj
 0001:0002f814       _mbsdec                    0000000180030814 f   libucrt:mbsdec.obj
 0001:0002f81c       _mbsdec_l                  000000018003081c f   libucrt:mbsdec.obj
 0001:0002f8cc       _wcsnicmp                  00000001800308cc f   libucrt:wcsnicmp.obj
 0001:0002f968       _wcsnicmp_l                0000000180030968 f   libucrt:wcsnicmp.obj
 0001:0002fa80       wcscmp                     0000000180030a80 f   libucrt:wcscmp.obj
 0001:0002fab8       fegetenv                   0000000180030ab8 f   libucrt:fegetenv.obj
 0001:0002fad8       fesetenv                   0000000180030ad8 f   libucrt:fesetenv.obj
 0001:0002fb24       feholdexcept               0000000180030b24 f   libucrt:feholdexcept.obj
 0001:0002fb74       ceil                       0000000180030b74 f   libucrt:ceil.obj
 0001:0002fc40       log10                      0000000180030c40 f   libucrt:log10.obj
 0001:000301ec       __dcrt_lowio_initialize_console_output 00000001800311ec f   libucrt:initcon.obj
 0001:00030228       __dcrt_terminate_console_output 0000000180031228 f   libucrt:initcon.obj
 0001:00030248       _clearfp                   0000000180031248 f   libucrt:ieee.obj
 0001:0003029c       _controlfp                 000000018003129c f   libucrt:ieee.obj
 0001:000302a8       _statusfp                  00000001800312a8 f   libucrt:ieee.obj
 0001:00030588       __acrt_LCMapStringW        0000000180031588 f   libucrt:lcmapstringw.obj
 0001:00030610       _log10_special             0000000180031610 f   libucrt:log_special.obj
 0001:000306c6       IsProcessorFeaturePresent  00000001800316c6 f   kernel32:KERNEL32.dll
 0001:000306cc       RtlUnwindEx                00000001800316cc f   kernel32:KERNEL32.dll
 0001:000306d2       SystemFunction036          00000001800316d2 f   advapi32:ADVAPI32.dll
 0001:000306d8       ?DloadAcquireSectionWriteAccess@@YAXXZ 00000001800316d8 f i DelayImp:delayhlp.obj
 0001:00030794       ?DloadGetSRWLockFunctionPointers@@YAEXZ 0000000180031794 f i DelayImp:delayhlp.obj
 0001:00030830       ?DloadMakePermanentImageCommit@@YAXPEAX_K@Z 0000000180031830 f i DelayImp:delayhlp.obj
 0001:000308c8       ?DloadObtainSection@@YAPEAXPEAK0@Z 00000001800318c8 f i DelayImp:delayhlp.obj
 0001:00030960       ?DloadProtectSection@@YAXKPEAK@Z 0000000180031960 f i DelayImp:delayhlp.obj
 0001:000309f0       ?DloadReleaseSectionWriteAccess@@YAXXZ 00000001800319f0 f i DelayImp:delayhlp.obj
 0001:00030a94       __delayLoadHelper2         0000000180031a94 f   DelayImp:delayhlp.obj
 0001:00030da0       _FindPESection             0000000180031da0 f   LIBCMT:pesect.obj
 0001:00030df0       _IsNonwritableInCurrentImage 0000000180031df0 f   LIBCMT:pesect.obj
 0001:00030e40       _ValidateImageBase         0000000180031e40 f   LIBCMT:pesect.obj
 0001:00030e70       strrchr                    0000000180031e70 f   libvcruntime:strrchr.obj
 0001:00030fb4       wcschr                     0000000180031fb4 f   libvcruntime:wcschr.obj
 0001:00031040       atan2                      0000000180032040 f   libucrt:atan2.obj
 0001:00031790       cos                        0000000180032790 f   libucrt:cos.obj
 0001:00031d10       exp                        0000000180032d10 f   libucrt:exp.obj
 0001:00032108       floor                      0000000180033108 f   libucrt:floor.obj
 0001:000321b8       fmod                       00000001800331b8 f   libucrt:fmod.obj
 0001:00032680       sin                        0000000180033680 f   libucrt:sin.obj
 0001:00032bec       sqrt                       0000000180033bec f   libucrt:sqrt.obj
 0001:00032cc0       __remainder_piby2_forAsm   0000000180033cc0 f   libucrt:remainder_piby2_forasm.obj
 0001:00032ed0       __remainder_piby2_cw_forAsm 0000000180033ed0 f   libucrt:remainder_piby2_forasm.obj
 0001:00033010       __remainder_piby2_fma3     0000000180034010 f   libucrt:remainder_piby2_forfma3.obj
 0001:00033200       __remainder_piby2_fma3_bdl 0000000180034200 f   libucrt:remainder_piby2_forfma3.obj
 0001:00033278       _cos_special               0000000180034278 f   libucrt:sincos_special.obj
 0001:0003328c       _sin_special               000000018003428c f   libucrt:sincos_special.obj
 0001:00033344       _exp_special               0000000180034344 f   libucrt:exp_special.obj
 0001:000333f0       _guard_dispatch_icall_nop  00000001800343f0 f   LIBCMT:_guard_dispatch_.obj
 0001:000338d0       ??__Fs_pFactory@?1??g_codec_factory@FCObjImage@@CAAEAV?$auto_ptr@VFCImageCodecFactory@@@std@@XZ@YAXXZ 00000001800348d0 f i dealImg.obj
 0001:00033900       ??__F_Static@?1???$_Immortalize@V_Iostream_error_category@std@@@std@@YAAEAV_Iostream_error_category@0@XZ@YAXXZ 0000000180034900 f i dealImg.obj
 0002:00000000       __imp_SystemFunction036    0000000180035000     advapi32:ADVAPI32.dll
 0002:00000008       \177ADVAPI32_NULL_THUNK_DATA 0000000180035008     advapi32:ADVAPI32.dll
 0002:00000010       __imp_SelectObject         0000000180035010     gdi32:GDI32.dll
 0002:00000018       __imp_CreateDIBSection     0000000180035018     gdi32:GDI32.dll
 0002:00000020       __imp_SetDIBColorTable     0000000180035020     gdi32:GDI32.dll
 0002:00000028       __imp_CreateCompatibleDC   0000000180035028     gdi32:GDI32.dll
 0002:00000030       __imp_StretchBlt           0000000180035030     gdi32:GDI32.dll
 0002:00000038       __imp_DeleteDC             0000000180035038     gdi32:GDI32.dll
 0002:00000040       __imp_SetTextColor         0000000180035040     gdi32:GDI32.dll
 0002:00000048       __imp_TextOutA             0000000180035048     gdi32:GDI32.dll
 0002:00000050       __imp_SetBkMode            0000000180035050     gdi32:GDI32.dll
 0002:00000058       __imp_SetStretchBltMode    0000000180035058     gdi32:GDI32.dll
 0002:00000060       __imp_DeleteObject         0000000180035060     gdi32:GDI32.dll
 0002:00000068       __imp_GetObjectA           0000000180035068     gdi32:GDI32.dll
 0002:00000070       __imp_CreateFontA          0000000180035070     gdi32:GDI32.dll
 0002:00000078       \177GDI32_NULL_THUNK_DATA  0000000180035078     gdi32:GDI32.dll
 0002:00000080       __imp_GetModuleHandleA     0000000180035080     kernel32:KERNEL32.dll
 0002:00000088       __imp_VirtualProtect       0000000180035088     kernel32:KERNEL32.dll
 0002:00000090       __imp_GetSystemInfo        0000000180035090     kernel32:KERNEL32.dll
 0002:00000098       __imp_GlobalUnlock         0000000180035098     kernel32:KERNEL32.dll
 0002:000000a0       __imp_GlobalLock           00000001800350a0     kernel32:KERNEL32.dll
 0002:000000a8       __imp_GlobalFree           00000001800350a8     kernel32:KERNEL32.dll
 0002:000000b0       __imp_GlobalAlloc          00000001800350b0     kernel32:KERNEL32.dll
 0002:000000b8       __imp_GetProcessHeap       00000001800350b8     kernel32:KERNEL32.dll
 0002:000000c0       __imp_DeleteCriticalSection 00000001800350c0     kernel32:KERNEL32.dll
 0002:000000c8       __imp_DecodePointer        00000001800350c8     kernel32:KERNEL32.dll
 0002:000000d0       __imp_HeapAlloc            00000001800350d0     kernel32:KERNEL32.dll
 0002:000000d8       __imp_RaiseException       00000001800350d8     kernel32:KERNEL32.dll
 0002:000000e0       __imp_HeapReAlloc          00000001800350e0     kernel32:KERNEL32.dll
 0002:000000e8       __imp_GetLastError         00000001800350e8     kernel32:KERNEL32.dll
 0002:000000f0       __imp_InitializeCriticalSectionEx 00000001800350f0     kernel32:KERNEL32.dll
 0002:000000f8       __imp_HeapSize             00000001800350f8     kernel32:KERNEL32.dll
 0002:00000100       __imp_VirtualQuery         0000000180035100     kernel32:KERNEL32.dll
 0002:00000108       __imp_HeapFree             0000000180035108     kernel32:KERNEL32.dll
 0002:00000110       __imp_CreateFileW          0000000180035110     kernel32:KERNEL32.dll
 0002:00000118       __imp_ReadConsoleW         0000000180035118     kernel32:KERNEL32.dll
 0002:00000120       __imp_SetStdHandle         0000000180035120     kernel32:KERNEL32.dll
 0002:00000128       __imp_FreeEnvironmentStringsW 0000000180035128     kernel32:KERNEL32.dll
 0002:00000130       __imp_GetEnvironmentStringsW 0000000180035130     kernel32:KERNEL32.dll
 0002:00000138       __imp_GetCommandLineW      0000000180035138     kernel32:KERNEL32.dll
 0002:00000140       __imp_GetCommandLineA      0000000180035140     kernel32:KERNEL32.dll
 0002:00000148       __imp_GetOEMCP             0000000180035148     kernel32:KERNEL32.dll
 0002:00000150       __imp_IsValidCodePage      0000000180035150     kernel32:KERNEL32.dll
 0002:00000158       __imp_FindNextFileA        0000000180035158     kernel32:KERNEL32.dll
 0002:00000160       __imp_FindFirstFileExA     0000000180035160     kernel32:KERNEL32.dll
 0002:00000168       __imp_FindClose            0000000180035168     kernel32:KERNEL32.dll
 0002:00000170       __imp_SetFilePointerEx     0000000180035170     kernel32:KERNEL32.dll
 0002:00000178       __imp_ReadFile             0000000180035178     kernel32:KERNEL32.dll
 0002:00000180       __imp_GetConsoleMode       0000000180035180     kernel32:KERNEL32.dll
 0002:00000188       __imp_GetConsoleCP         0000000180035188     kernel32:KERNEL32.dll
 0002:00000190       __imp_FlushFileBuffers     0000000180035190     kernel32:KERNEL32.dll
 0002:00000198       __imp_EnumSystemLocalesW   0000000180035198     kernel32:KERNEL32.dll
 0002:000001a0       __imp_GetUserDefaultLCID   00000001800351a0     kernel32:KERNEL32.dll
 0002:000001a8       __imp_IsValidLocale        00000001800351a8     kernel32:KERNEL32.dll
 0002:000001b0       __imp_CreateThread         00000001800351b0     kernel32:KERNEL32.dll
 0002:000001b8       __imp_WriteFile            00000001800351b8     kernel32:KERNEL32.dll
 0002:000001c0       __imp_GetACP               00000001800351c0     kernel32:KERNEL32.dll
 0002:000001c8       __imp_WideCharToMultiByte  00000001800351c8     kernel32:KERNEL32.dll
 0002:000001d0       __imp_EnterCriticalSection 00000001800351d0     kernel32:KERNEL32.dll
 0002:000001d8       __imp_LeaveCriticalSection 00000001800351d8     kernel32:KERNEL32.dll
 0002:000001e0       __imp_EncodePointer        00000001800351e0     kernel32:KERNEL32.dll
 0002:000001e8       __imp_MultiByteToWideChar  00000001800351e8     kernel32:KERNEL32.dll
 0002:000001f0       __imp_SetLastError         00000001800351f0     kernel32:KERNEL32.dll
 0002:000001f8       __imp_InitializeCriticalSectionAndSpinCount 00000001800351f8     kernel32:KERNEL32.dll
 0002:00000200       __imp_CreateEventW         0000000180035200     kernel32:KERNEL32.dll
 0002:00000208       __imp_TlsAlloc             0000000180035208     kernel32:KERNEL32.dll
 0002:00000210       __imp_TlsGetValue          0000000180035210     kernel32:KERNEL32.dll
 0002:00000218       __imp_TlsSetValue          0000000180035218     kernel32:KERNEL32.dll
 0002:00000220       __imp_TlsFree              0000000180035220     kernel32:KERNEL32.dll
 0002:00000228       __imp_GetSystemTimeAsFileTime 0000000180035228     kernel32:KERNEL32.dll
 0002:00000230       __imp_GetModuleHandleW     0000000180035230     kernel32:KERNEL32.dll
 0002:00000238       __imp_GetProcAddress       0000000180035238     kernel32:KERNEL32.dll
 0002:00000240       __imp_LCMapStringW         0000000180035240     kernel32:KERNEL32.dll
 0002:00000248       __imp_GetLocaleInfoW       0000000180035248     kernel32:KERNEL32.dll
 0002:00000250       __imp_GetStringTypeW       0000000180035250     kernel32:KERNEL32.dll
 0002:00000258       __imp_GetCPInfo            0000000180035258     kernel32:KERNEL32.dll
 0002:00000260       __imp_IsDebuggerPresent    0000000180035260     kernel32:KERNEL32.dll
 0002:00000268       __imp_OutputDebugStringW   0000000180035268     kernel32:KERNEL32.dll
 0002:00000270       __imp_CloseHandle          0000000180035270     kernel32:KERNEL32.dll
 0002:00000278       __imp_SetEvent             0000000180035278     kernel32:KERNEL32.dll
 0002:00000280       __imp_ResetEvent           0000000180035280     kernel32:KERNEL32.dll
 0002:00000288       __imp_WaitForSingleObjectEx 0000000180035288     kernel32:KERNEL32.dll
 0002:00000290       __imp_RtlCaptureContext    0000000180035290     kernel32:KERNEL32.dll
 0002:00000298       __imp_RtlLookupFunctionEntry 0000000180035298     kernel32:KERNEL32.dll
 0002:000002a0       __imp_RtlVirtualUnwind     00000001800352a0     kernel32:KERNEL32.dll
 0002:000002a8       __imp_UnhandledExceptionFilter 00000001800352a8     kernel32:KERNEL32.dll
 0002:000002b0       __imp_SetUnhandledExceptionFilter 00000001800352b0     kernel32:KERNEL32.dll
 0002:000002b8       __imp_GetCurrentProcess    00000001800352b8     kernel32:KERNEL32.dll
 0002:000002c0       __imp_TerminateProcess     00000001800352c0     kernel32:KERNEL32.dll
 0002:000002c8       __imp_IsProcessorFeaturePresent 00000001800352c8     kernel32:KERNEL32.dll
 0002:000002d0       __imp_GetStartupInfoW      00000001800352d0     kernel32:KERNEL32.dll
 0002:000002d8       __imp_QueryPerformanceCounter 00000001800352d8     kernel32:KERNEL32.dll
 0002:000002e0       __imp_GetCurrentProcessId  00000001800352e0     kernel32:KERNEL32.dll
 0002:000002e8       __imp_GetCurrentThreadId   00000001800352e8     kernel32:KERNEL32.dll
 0002:000002f0       __imp_InitializeSListHead  00000001800352f0     kernel32:KERNEL32.dll
 0002:000002f8       __imp_RtlPcToFileHeader    00000001800352f8     kernel32:KERNEL32.dll
 0002:00000300       __imp_RtlUnwindEx          0000000180035300     kernel32:KERNEL32.dll
 0002:00000308       __imp_FreeLibrary          0000000180035308     kernel32:KERNEL32.dll
 0002:00000310       __imp_LoadLibraryExW       0000000180035310     kernel32:KERNEL32.dll
 0002:00000318       __imp_GetModuleFileNameW   0000000180035318     kernel32:KERNEL32.dll
 0002:00000320       __imp_InterlockedFlushSList 0000000180035320     kernel32:KERNEL32.dll
 0002:00000328       __imp_GetStdHandle         0000000180035328     kernel32:KERNEL32.dll
 0002:00000330       __imp_GetFileType          0000000180035330     kernel32:KERNEL32.dll
 0002:00000338       __imp_GetModuleFileNameA   0000000180035338     kernel32:KERNEL32.dll
 0002:00000340       __imp_GetModuleHandleExW   0000000180035340     kernel32:KERNEL32.dll
 0002:00000348       __imp_WriteConsoleW        0000000180035348     kernel32:KERNEL32.dll
 0002:00000350       __imp_ExitProcess          0000000180035350     kernel32:KERNEL32.dll
 0002:00000358       __imp_LoadLibraryExA       0000000180035358     kernel32:KERNEL32.dll
 0002:00000360       \177KERNEL32_NULL_THUNK_DATA 0000000180035360     kernel32:KERNEL32.dll
 0002:00000368       __imp_AlphaBlend           0000000180035368     Msimg32:MSIMG32.dll
 0002:00000370       \177MSIMG32_NULL_THUNK_DATA 0000000180035370     Msimg32:MSIMG32.dll
 0002:00000378       __imp_IntersectRect        0000000180035378     user32:USER32.dll
 0002:00000380       \177USER32_NULL_THUNK_DATA 0000000180035380     user32:USER32.dll
 0002:00000388       __imp_GdipGetImageEncoders 0000000180035388     GdiPlus:gdiplus.dll
 0002:00000390       __imp_GdipGetImageFlags    0000000180035390     GdiPlus:gdiplus.dll
 0002:00000398       __imp_GdipImageGetFrameDimensionsCount 0000000180035398     GdiPlus:gdiplus.dll
 0002:000003a0       __imp_GdipCloneImage       00000001800353a0     GdiPlus:gdiplus.dll
 0002:000003a8       __imp_GdipBitmapUnlockBits 00000001800353a8     GdiPlus:gdiplus.dll
 0002:000003b0       __imp_GdipCreateBitmapFromStream 00000001800353b0     GdiPlus:gdiplus.dll
 0002:000003b8       __imp_GdipAlloc            00000001800353b8     GdiPlus:gdiplus.dll
 0002:000003c0       __imp_GdipSetImagePalette  00000001800353c0     GdiPlus:gdiplus.dll
 0002:000003c8       __imp_GdipDisposeImage     00000001800353c8     GdiPlus:gdiplus.dll
 0002:000003d0       __imp_GdipGetPropertySize  00000001800353d0     GdiPlus:gdiplus.dll
 0002:000003d8       __imp_GdipGetAllPropertyItems 00000001800353d8     GdiPlus:gdiplus.dll
 0002:000003e0       __imp_GdipGetImageHeight   00000001800353e0     GdiPlus:gdiplus.dll
 0002:000003e8       __imp_GdipImageSelectActiveFrame 00000001800353e8     GdiPlus:gdiplus.dll
 0002:000003f0       __imp_GdipBitmapLockBits   00000001800353f0     GdiPlus:gdiplus.dll
 0002:000003f8       __imp_GdipImageGetFrameDimensionsList 00000001800353f8     GdiPlus:gdiplus.dll
 0002:00000400       __imp_GdipImageGetFrameCount 0000000180035400     GdiPlus:gdiplus.dll
 0002:00000408       __imp_GdipSetPropertyItem  0000000180035408     GdiPlus:gdiplus.dll
 0002:00000410       __imp_GdipGetImageRawFormat 0000000180035410     GdiPlus:gdiplus.dll
 0002:00000418       __imp_GdipGetImageEncodersSize 0000000180035418     GdiPlus:gdiplus.dll
 0002:00000420       __imp_GdipGetImageWidth    0000000180035420     GdiPlus:gdiplus.dll
 0002:00000428       __imp_GdipCreateBitmapFromFile 0000000180035428     GdiPlus:gdiplus.dll
 0002:00000430       __imp_GdipCreateBitmapFromScan0 0000000180035430     GdiPlus:gdiplus.dll
 0002:00000438       __imp_GdipSaveImageToFile  0000000180035438     GdiPlus:gdiplus.dll
 0002:00000440       __imp_GdiplusShutdown      0000000180035440     GdiPlus:gdiplus.dll
 0002:00000448       __imp_GdipGetImagePixelFormat 0000000180035448     GdiPlus:gdiplus.dll
 0002:00000450       __imp_GdiplusStartup       0000000180035450     GdiPlus:gdiplus.dll
 0002:00000458       __imp_GdipFree             0000000180035458     GdiPlus:gdiplus.dll
 0002:00000460       \177gdiplus_NULL_THUNK_DATA 0000000180035460     GdiPlus:gdiplus.dll
 0002:00000468       __imp_CreateStreamOnHGlobal 0000000180035468     ole32:ole32.dll
 0002:00000470       \177ole32_NULL_THUNK_DATA  0000000180035470     ole32:ole32.dll
 0002:00000478       __guard_check_icall_fptr   0000000180035478     LIBCMT:guard_support.obj
 0002:00000480       __guard_dispatch_icall_fptr 0000000180035480     LIBCMT:guard_support.obj
 0002:00000488       __xc_a                     0000000180035488     LIBCMT:initializers.obj
 0002:000004e8       _register_addon_           00000001800354e8     addon.obj
 0002:000004f0       __xc_z                     00000001800354f0     LIBCMT:initializers.obj
 0002:000004f8       __xi_a                     00000001800354f8     LIBCMT:initializers.obj
 0002:00000510       __acrt_stdio_initializer   0000000180035510     libucrt:stdio_initializer.obj
 0002:00000518       __acrt_tran_fma3_initializer 0000000180035518     libucrt:fma3_initializer.obj
 0002:00000520       __acrt_timeset_initializer 0000000180035520     libucrt:timeset_initializer.obj
 0002:00000528       __acrt_multibyte_initializer 0000000180035528     libucrt:multibyte_initializer.obj
 0002:00000530       __xi_z                     0000000180035530     LIBCMT:initializers.obj
 0002:00000538       __xl_a                     0000000180035538     LIBCMT:tlssup.obj
 0002:00000540       __xl_z                     0000000180035540     LIBCMT:tlssup.obj
 0002:00000548       __xp_a                     0000000180035548     LIBCMT:initializers.obj
 0002:00000550       __acrt_locale_terminator   0000000180035550     libucrt:locale_initializer.obj
 0002:00000558       __dcrt_console_output_terminator 0000000180035558     libucrt:console_output_initializer.obj
 0002:00000560       __acrt_stdio_terminator    0000000180035560     libucrt:stdio_initializer.obj
 0002:00000568       __xp_z                     0000000180035568     LIBCMT:initializers.obj
 0002:00000570       __xt_a                     0000000180035570     LIBCMT:initializers.obj
 0002:00000578       __xt_z                     0000000180035578     LIBCMT:initializers.obj
 0002:00000580       __sz_node_exe              0000000180035580     node:node.exe
 0002:000007f0       ??_7exception@std@@6B@     00000001800357f0     libcpmt:cout.obj
 0002:00000800       ??_C@_0BC@EOODALEL@Unknown?5exception?$AA@ 0000000180035800     libcpmt:cout.obj
 0002:00000820       ??_7runtime_error@std@@6B@ 0000000180035820     libcpmt:cout.obj
 0002:00000838       ??_7bad_cast@std@@6B@      0000000180035838     libcpmt:cout.obj
 0002:00000848       ??_C@_08EPJLHIJG@bad?5cast?$AA@ 0000000180035848     libcpmt:cout.obj
 0002:00000860       ??_7_Facet_base@std@@6B@   0000000180035860     libcpmt:cout.obj
 0002:00000880       ??_7?$ctype@D@std@@6B@     0000000180035880     libcpmt:cout.obj
 0002:000008e0       ??_7error_category@std@@6B@ 00000001800358e0     libcpmt:cout.obj
 0002:00000918       ??_7_System_error@std@@6B@ 0000000180035918     libcpmt:cout.obj
 0002:00000930       ??_7_Iostream_error_category@std@@6B@ 0000000180035930     libcpmt:cout.obj
 0002:00000968       ??_7failure@ios_base@std@@6B@ 0000000180035968     libcpmt:cout.obj
 0002:00000980       ??_7ios_base@std@@6B@      0000000180035980     libcpmt:cout.obj
 0002:00000990       ??_7?$basic_streambuf@DU?$char_traits@D@std@@@std@@6B@ 0000000180035990     libcpmt:cout.obj
 0002:00000a10       ??_7?$basic_filebuf@DU?$char_traits@D@std@@@std@@6B@ 0000000180035a10     libcpmt:cout.obj
 0002:00000a90       ??_7?$basic_ios@DU?$char_traits@D@std@@@std@@6B@ 0000000180035a90     libcpmt:cout.obj
 0002:00000aa0       ??_7?$basic_ostream@DU?$char_traits@D@std@@@std@@6B@ 0000000180035aa0     libcpmt:cout.obj
 0002:00000aa8       ??_8?$basic_ostream@DU?$char_traits@D@std@@@std@@7B@ 0000000180035aa8     libcpmt:cout.obj
 0002:00000ab8       ??_7?$codecvt@DDU_Mbstatet@@@std@@6B@ 0000000180035ab8     libcpmt:cout.obj
 0002:00000bd8       ??_7_Locimp@locale@std@@6B@ 0000000180035bd8     libcpmt:locale0.obj
 0002:00000bf0       ??_C@_01NBENCBCI@?$CK?$AA@ 0000000180035bf0     libcpmt:locale0.obj
 0002:00000bf4       ??_C@_01GFHCPBMG@C?$AA@    0000000180035bf4     libcpmt:locale0.obj
 0002:00000c00       ??_7bad_alloc@std@@6B@     0000000180035c00     libcpmt:xthrow.obj
 0002:00000c10       ??_C@_0P@GHFPNOJB@bad?5allocation?$AA@ 0000000180035c10     libcpmt:xthrow.obj
 0002:00000c28       ??_7logic_error@std@@6B@   0000000180035c28     libcpmt:xthrow.obj
 0002:00000c40       ??_7length_error@std@@6B@  0000000180035c40     libcpmt:xthrow.obj
 0002:00000c58       ??_7out_of_range@std@@6B@  0000000180035c58     libcpmt:xthrow.obj
 0002:000013a0       ??_C@_0BN@LKKBCCDB@address?5family?5not?5supported?$AA@ 00000001800363a0     libcpmt:syserror.obj
 0002:000013c0       ??_C@_0P@LDMLAFHI@address?5in?5use?$AA@ 00000001800363c0     libcpmt:syserror.obj
 0002:000013d0       ??_C@_0BG@DHPCNBJB@address?5not?5available?$AA@ 00000001800363d0     libcpmt:syserror.obj
 0002:000013e8       ??_C@_0BC@DFIBIBIL@already?5connected?$AA@ 00000001800363e8     libcpmt:syserror.obj
 0002:00001400       ??_C@_0BH@CAKOHOMI@argument?5list?5too?5long?$AA@ 0000000180036400     libcpmt:syserror.obj
 0002:00001418       ??_C@_0BH@CGIMPKIM@argument?5out?5of?5domain?$AA@ 0000000180036418     libcpmt:syserror.obj
 0002:00001430       ??_C@_0M@KGHGGJGL@bad?5address?$AA@ 0000000180036430     libcpmt:syserror.obj
 0002:00001440       ??_C@_0BE@MPJPGCEO@bad?5file?5descriptor?$AA@ 0000000180036440     libcpmt:syserror.obj
 0002:00001458       ??_C@_0M@PMMIEFCP@bad?5message?$AA@ 0000000180036458     libcpmt:syserror.obj
 0002:00001468       ??_C@_0M@KPHOFDBE@broken?5pipe?$AA@ 0000000180036468     libcpmt:syserror.obj
 0002:00001478       ??_C@_0BD@MGNDDEGM@connection?5aborted?$AA@ 0000000180036478     libcpmt:syserror.obj
 0002:00001490       ??_C@_0BP@KAIHPOGN@connection?5already?5in?5progress?$AA@ 0000000180036490     libcpmt:syserror.obj
 0002:000014b0       ??_C@_0BD@PJLIIJEL@connection?5refused?$AA@ 00000001800364b0     libcpmt:syserror.obj
 0002:000014c8       ??_C@_0BB@IECNJNOI@connection?5reset?$AA@ 00000001800364c8     libcpmt:syserror.obj
 0002:000014e0       ??_C@_0BC@PPHBOELF@cross?5device?5link?$AA@ 00000001800364e0     libcpmt:syserror.obj
 0002:000014f8       ??_C@_0BN@KDMIFEIP@destination?5address?5required?$AA@ 00000001800364f8     libcpmt:syserror.obj
 0002:00001518       ??_C@_0BI@NGCEHDD@device?5or?5resource?5busy?$AA@ 0000000180036518     libcpmt:syserror.obj
 0002:00001530       ??_C@_0BE@JIDOCPHM@directory?5not?5empty?$AA@ 0000000180036530     libcpmt:syserror.obj
 0002:00001548       ??_C@_0BI@BNCLIGPB@executable?5format?5error?$AA@ 0000000180036548     libcpmt:syserror.obj
 0002:00001560       ??_C@_0M@MIDIAGJP@file?5exists?$AA@ 0000000180036560     libcpmt:syserror.obj
 0002:00001570       ??_C@_0P@DNAJLBJK@file?5too?5large?$AA@ 0000000180036570     libcpmt:syserror.obj
 0002:00001580       ??_C@_0BC@EJHOMAAK@filename?5too?5long?$AA@ 0000000180036580     libcpmt:syserror.obj
 0002:00001598       ??_C@_0BH@KEFGLDAF@function?5not?5supported?$AA@ 0000000180036598     libcpmt:syserror.obj
 0002:000015b0       ??_C@_0BB@DHFDFGDM@host?5unreachable?$AA@ 00000001800365b0     libcpmt:syserror.obj
 0002:000015c8       ??_C@_0BD@JPHBMONG@identifier?5removed?$AA@ 00000001800365c8     libcpmt:syserror.obj
 0002:000015e0       ??_C@_0BG@CDNPAGJK@illegal?5byte?5sequence?$AA@ 00000001800365e0     libcpmt:syserror.obj
 0002:000015f8       ??_C@_0CD@BNPLBMNA@inappropriate?5io?5control?5operati@ 00000001800365f8     libcpmt:syserror.obj
 0002:00001620       ??_C@_0M@EGEKIIMP@interrupted?$AA@ 0000000180036620     libcpmt:syserror.obj
 0002:00001630       ??_C@_0BB@FCMFBGOM@invalid?5argument?$AA@ 0000000180036630     libcpmt:syserror.obj
 0002:00001648       ??_C@_0N@OHAFKDEK@invalid?5seek?$AA@ 0000000180036648     libcpmt:syserror.obj
 0002:00001658       ??_C@_08GLNPIFBN@io?5error?$AA@ 0000000180036658     libcpmt:syserror.obj
 0002:00001668       ??_C@_0P@FLLDBIDK@is?5a?5directory?$AA@ 0000000180036668     libcpmt:syserror.obj
 0002:00001678       ??_C@_0N@IFLPBIOP@message?5size?$AA@ 0000000180036678     libcpmt:syserror.obj
 0002:00001688       ??_C@_0N@KIIEAAIO@network?5down?$AA@ 0000000180036688     libcpmt:syserror.obj
 0002:00001698       ??_C@_0O@FNPDBHEE@network?5reset?$AA@ 0000000180036698     libcpmt:syserror.obj
 0002:000016a8       ??_C@_0BE@IFNCKGE@network?5unreachable?$AA@ 00000001800366a8     libcpmt:syserror.obj
 0002:000016c0       ??_C@_0BA@PFFCAOFK@no?5buffer?5space?$AA@ 00000001800366c0     libcpmt:syserror.obj
 0002:000016d0       ??_C@_0BB@IEPBLJHK@no?5child?5process?$AA@ 00000001800366d0     libcpmt:syserror.obj
 0002:000016e8       ??_C@_07PLECNNKG@no?5link?$AA@ 00000001800366e8     libcpmt:syserror.obj
 0002:000016f0       ??_C@_0BC@NJECKMKE@no?5lock?5available?$AA@ 00000001800366f0     libcpmt:syserror.obj
 0002:00001708       ??_C@_0BF@PBGGPKKE@no?5message?5available?$AA@ 0000000180036708     libcpmt:syserror.obj
 0002:00001720       ??_C@_0L@EDOLMPAK@no?5message?$AA@ 0000000180036720     libcpmt:syserror.obj
 0002:00001730       ??_C@_0BD@EAMBFIDF@no?5protocol?5option?$AA@ 0000000180036730     libcpmt:syserror.obj
 0002:00001748       ??_C@_0BD@IJDJKDEA@no?5space?5on?5device?$AA@ 0000000180036748     libcpmt:syserror.obj
 0002:00001760       ??_C@_0BE@MKFDAFMP@no?5stream?5resources?$AA@ 0000000180036760     libcpmt:syserror.obj
 0002:00001778       ??_C@_0BK@IMCPHCBI@no?5such?5device?5or?5address?$AA@ 0000000180036778     libcpmt:syserror.obj
 0002:00001798       ??_C@_0P@FDINDDOK@no?5such?5device?$AA@ 0000000180036798     libcpmt:syserror.obj
 0002:000017a8       ??_C@_0BK@NDOCBPGE@no?5such?5file?5or?5directory?$AA@ 00000001800367a8     libcpmt:syserror.obj
 0002:000017c8       ??_C@_0BA@ENLPPKBN@no?5such?5process?$AA@ 00000001800367c8     libcpmt:syserror.obj
 0002:000017d8       ??_C@_0BA@DOCPFFJG@not?5a?5directory?$AA@ 00000001800367d8     libcpmt:syserror.obj
 0002:000017e8       ??_C@_0N@POEIPGGF@not?5a?5socket?$AA@ 00000001800367e8     libcpmt:syserror.obj
 0002:000017f8       ??_C@_0N@LGAPMMPI@not?5a?5stream?$AA@ 00000001800367f8     libcpmt:syserror.obj
 0002:00001808       ??_C@_0O@GLMIBBEG@not?5connected?$AA@ 0000000180036808     libcpmt:syserror.obj
 0002:00001818       ??_C@_0BC@ENOOLCNF@not?5enough?5memory?$AA@ 0000000180036818     libcpmt:syserror.obj
 0002:00001830       ??_C@_0O@NHEDABJP@not?5supported?$AA@ 0000000180036830     libcpmt:syserror.obj
 0002:00001840       ??_C@_0BD@MOLBPMEA@operation?5canceled?$AA@ 0000000180036840     libcpmt:syserror.obj
 0002:00001858       ??_C@_0BG@KDKHOPCO@operation?5in?5progress?$AA@ 0000000180036858     libcpmt:syserror.obj
 0002:00001870       ??_C@_0BI@OHIEJAAB@operation?5not?5permitted?$AA@ 0000000180036870     libcpmt:syserror.obj
 0002:00001888       ??_C@_0BI@LNEGIFLN@operation?5not?5supported?$AA@ 0000000180036888     libcpmt:syserror.obj
 0002:000018a0       ??_C@_0BG@OEMDKMEE@operation?5would?5block?$AA@ 00000001800368a0     libcpmt:syserror.obj
 0002:000018b8       ??_C@_0L@BLPOFLNJ@owner?5dead?$AA@ 00000001800368b8     libcpmt:syserror.obj
 0002:000018c8       ??_C@_0BC@CIJDGCDI@permission?5denied?$AA@ 00000001800368c8     libcpmt:syserror.obj
 0002:000018e0       ??_C@_0P@FNPOCJBE@protocol?5error?$AA@ 00000001800368e0     libcpmt:syserror.obj
 0002:000018f0       ??_C@_0BH@JPPPLHJB@protocol?5not?5supported?$AA@ 00000001800368f0     libcpmt:syserror.obj
 0002:00001908       ??_C@_0BG@EICBIHDP@read?5only?5file?5system?$AA@ 0000000180036908     libcpmt:syserror.obj
 0002:00001920       ??_C@_0BO@BJBOMOEJ@resource?5deadlock?5would?5occur?$AA@ 0000000180036920     libcpmt:syserror.obj
 0002:00001940       ??_C@_0BP@LKNGHENJ@resource?5unavailable?5try?5again?$AA@ 0000000180036940     libcpmt:syserror.obj
 0002:00001960       ??_C@_0BE@GOIPJJHG@result?5out?5of?5range?$AA@ 0000000180036960     libcpmt:syserror.obj
 0002:00001978       ??_C@_0BG@MPLKFPAE@state?5not?5recoverable?$AA@ 0000000180036978     libcpmt:syserror.obj
 0002:00001990       ??_C@_0P@DIIFGFCG@stream?5timeout?$AA@ 0000000180036990     libcpmt:syserror.obj
 0002:000019a0       ??_C@_0P@IPFDMIFL@text?5file?5busy?$AA@ 00000001800369a0     libcpmt:syserror.obj
 0002:000019b0       ??_C@_09KJPPMAOI@timed?5out?$AA@ 00000001800369b0     libcpmt:syserror.obj
 0002:000019c0       ??_C@_0BO@HACHBEKI@too?5many?5files?5open?5in?5system?$AA@ 00000001800369c0     libcpmt:syserror.obj
 0002:000019e0       ??_C@_0BE@GHAFMPAH@too?5many?5files?5open?$AA@ 00000001800369e0     libcpmt:syserror.obj
 0002:000019f8       ??_C@_0P@HCOMKFCC@too?5many?5links?$AA@ 00000001800369f8     libcpmt:syserror.obj
 0002:00001a08       ??_C@_0BO@EFGOJEF@too?5many?5symbolic?5link?5levels?$AA@ 0000000180036a08     libcpmt:syserror.obj
 0002:00001a28       ??_C@_0BA@KGKGOOJA@value?5too?5large?$AA@ 0000000180036a28     libcpmt:syserror.obj
 0002:00001a38       ??_C@_0BE@MIEJDDNH@wrong?5protocol?5type?$AA@ 0000000180036a38     libcpmt:syserror.obj
 0002:00001a50       ??_C@_0O@BFJCFAAK@unknown?5error?$AA@ 0000000180036a50     libcpmt:syserror.obj
 0002:00001a60       ?_BADOFF@std@@3_JB         0000000180036a60     libcpmt:ios.obj
 0002:00001a90       ??_C@_1BK@MGMFAEKH@?$AAk?$AAe?$AAr?$AAn?$AAe?$AAl?$AA3?$AA2?$AA?4?$AAd?$AAl?$AAl?$AA?$AA@ 0000000180036a90     libcpmt:winapisupp.obj
 0002:00001ab0       ??_C@_08KNHFBNJ@FlsAlloc?$AA@ 0000000180036ab0     libcpmt:winapisupp.obj
 0002:00001ac0       ??_C@_07PEJMOBNF@FlsFree?$AA@ 0000000180036ac0     libcpmt:winapisupp.obj
 0002:00001ac8       ??_C@_0M@GDNOONDI@FlsGetValue?$AA@ 0000000180036ac8     libcpmt:winapisupp.obj
 0002:00001ad8       ??_C@_0M@JCPCPOEF@FlsSetValue?$AA@ 0000000180036ad8     libcpmt:winapisupp.obj
 0002:00001ae8       ??_C@_0BM@HCFOFFN@InitializeCriticalSectionEx?$AA@ 0000000180036ae8     libcpmt:winapisupp.obj
 0002:00001b08       ??_C@_0BE@GPLMMCMH@InitOnceExecuteOnce?$AA@ 0000000180036b08     libcpmt:winapisupp.obj
 0002:00001b20       ??_C@_0P@DLHPPCNH@CreateEventExW?$AA@ 0000000180036b20     libcpmt:winapisupp.obj
 0002:00001b30       ??_C@_0BB@MEFPJLHN@CreateSemaphoreW?$AA@ 0000000180036b30     libcpmt:winapisupp.obj
 0002:00001b48       ??_C@_0BD@KIEEOEEH@CreateSemaphoreExW?$AA@ 0000000180036b48     libcpmt:winapisupp.obj
 0002:00001b60       ??_C@_0BG@OGFAJCKC@CreateThreadpoolTimer?$AA@ 0000000180036b60     libcpmt:winapisupp.obj
 0002:00001b78       ??_C@_0BD@LPLEMMDI@SetThreadpoolTimer?$AA@ 0000000180036b78     libcpmt:winapisupp.obj
 0002:00001b90       ??_C@_0CA@FMNJENH@WaitForThreadpoolTimerCallbacks?$AA@ 0000000180036b90     libcpmt:winapisupp.obj
 0002:00001bb0       ??_C@_0BF@DCFCCNOC@CloseThreadpoolTimer?$AA@ 0000000180036bb0     libcpmt:winapisupp.obj
 0002:00001bc8       ??_C@_0BF@FLABGKKM@CreateThreadpoolWait?$AA@ 0000000180036bc8     libcpmt:winapisupp.obj
 0002:00001be0       ??_C@_0BC@MGCOHNA@SetThreadpoolWait?$AA@ 0000000180036be0     libcpmt:winapisupp.obj
 0002:00001bf8       ??_C@_0BE@OCIOMIMP@CloseThreadpoolWait?$AA@ 0000000180036bf8     libcpmt:winapisupp.obj
 0002:00001c10       ??_C@_0BJ@LKGHFHBO@FlushProcessWriteBuffers?$AA@ 0000000180036c10     libcpmt:winapisupp.obj
 0002:00001c30       ??_C@_0BP@KALKKPMO@FreeLibraryWhenCallbackReturns?$AA@ 0000000180036c30     libcpmt:winapisupp.obj
 0002:00001c50       ??_C@_0BK@DFNBACLA@GetCurrentProcessorNumber?$AA@ 0000000180036c50     libcpmt:winapisupp.obj
 0002:00001c70       ??_C@_0BE@FKKLLFLM@CreateSymbolicLinkW?$AA@ 0000000180036c70     libcpmt:winapisupp.obj
 0002:00001c88       ??_C@_0BE@JOGNEJCI@GetCurrentPackageId?$AA@ 0000000180036c88     libcpmt:winapisupp.obj
 0002:00001ca0       ??_C@_0P@CDHHOHKP@GetTickCount64?$AA@ 0000000180036ca0     libcpmt:winapisupp.obj
 0002:00001cb0       ??_C@_0BN@NEEHBBPO@GetFileInformationByHandleEx?$AA@ 0000000180036cb0     libcpmt:winapisupp.obj
 0002:00001cd0       ??_C@_0BL@KBBHGKCM@SetFileInformationByHandle?$AA@ 0000000180036cd0     libcpmt:winapisupp.obj
 0002:00001cf0       ??_C@_0BP@FPNJPEJC@GetSystemTimePreciseAsFileTime?$AA@ 0000000180036cf0     libcpmt:winapisupp.obj
 0002:00001d10       ??_C@_0BM@HLJJNPAH@InitializeConditionVariable?$AA@ 0000000180036d10     libcpmt:winapisupp.obj
 0002:00001d30       ??_C@_0BG@BFNILBLN@WakeConditionVariable?$AA@ 0000000180036d30     libcpmt:winapisupp.obj
 0002:00001d48       ??_C@_0BJ@PGPPEPCC@WakeAllConditionVariable?$AA@ 0000000180036d48     libcpmt:winapisupp.obj
 0002:00001d68       ??_C@_0BJ@JEBJOJFJ@SleepConditionVariableCS?$AA@ 0000000180036d68     libcpmt:winapisupp.obj
 0002:00001d88       ??_C@_0BC@MMLHEBPB@InitializeSRWLock?$AA@ 0000000180036d88     libcpmt:winapisupp.obj
 0002:00001da0       ??_C@_0BI@OMNLIJDB@AcquireSRWLockExclusive?$AA@ 0000000180036da0     libcpmt:winapisupp.obj
 0002:00001db8       ??_C@_0BL@OGHFEMNA@TryAcquireSRWLockExclusive?$AA@ 0000000180036db8     libcpmt:winapisupp.obj
 0002:00001dd8       ??_C@_0BI@HMIEPCNJ@ReleaseSRWLockExclusive?$AA@ 0000000180036dd8     libcpmt:winapisupp.obj
 0002:00001df0       ??_C@_0BK@LGACAGIC@SleepConditionVariableSRW?$AA@ 0000000180036df0     libcpmt:winapisupp.obj
 0002:00001e10       ??_C@_0BF@GGPHFPJA@CreateThreadpoolWork?$AA@ 0000000180036e10     libcpmt:winapisupp.obj
 0002:00001e28       ??_C@_0BF@NHDAIMMO@SubmitThreadpoolWork?$AA@ 0000000180036e28     libcpmt:winapisupp.obj
 0002:00001e40       ??_C@_0BE@NPHIPNPD@CloseThreadpoolWork?$AA@ 0000000180036e40     libcpmt:winapisupp.obj
 0002:00001e58       ??_C@_0BA@IHGNDAEB@CompareStringEx?$AA@ 0000000180036e58     libcpmt:winapisupp.obj
 0002:00001e68       ??_C@_0BA@ONOKGCMP@GetLocaleInfoEx?$AA@ 0000000180036e68     libcpmt:winapisupp.obj
 0002:00001e78       ??_C@_0O@KKBNKAPF@LCMapStringEx?$AA@ 0000000180036e78     libcpmt:winapisupp.obj
 0002:00001e88       ??_C@_11LOCGONAA@?$AA?$AA@ 0000000180036e88     libcpmt:wlocale.obj
 0002:00001e8c       ??_C@_01JOAMLHOP@?9?$AA@   0000000180036e8c     libcpmt:wlocale.obj
 0002:00001e90       __xmm@80000000000000008000000000000000 0000000180036e90     libcpmt:wlocale.obj
 0002:00001f40       ??_C@_1M@PNMLOJDF@?$AAe?$AAt?$AA?9?$AAe?$AAe?$AA?$AA@ 0000000180036f40     libcpmt:winapinls.obj
 0002:00001f50       ??_C@_1M@GHHLIKEI@?$AAe?$AAu?$AA?9?$AAe?$AAs?$AA?$AA@ 0000000180036f50     libcpmt:winapinls.obj
 0002:00001f60       ??_C@_1M@PBNONODE@?$AAf?$AAa?$AA?9?$AAi?$AAr?$AA?$AA@ 0000000180036f60     libcpmt:winapinls.obj
 0002:00001f70       ??_C@_1M@JEEHPMIL@?$AAf?$AAi?$AA?9?$AAf?$AAi?$AA?$AA@ 0000000180036f70     libcpmt:winapinls.obj
 0002:00001f80       ??_C@_1M@LMDCNDBA@?$AAf?$AAo?$AA?9?$AAf?$AAo?$AA?$AA@ 0000000180036f80     libcpmt:winapinls.obj
 0002:00001f90       ??_C@_1M@JKEOHLDK@?$AAf?$AAr?$AA?9?$AAb?$AAe?$AA?$AA@ 0000000180036f90     libcpmt:winapinls.obj
 0002:00001fa0       ??_C@_1M@NOHADPMI@?$AAf?$AAr?$AA?9?$AAc?$AAa?$AA?$AA@ 0000000180036fa0     libcpmt:winapinls.obj
 0002:00001fb0       ??_C@_1M@KDHIHAEC@?$AAf?$AAr?$AA?9?$AAc?$AAh?$AA?$AA@ 0000000180036fb0     libcpmt:winapinls.obj
 0002:00001fc0       ??_C@_1M@MMBBFGAK@?$AAf?$AAr?$AA?9?$AAf?$AAr?$AA?$AA@ 0000000180036fc0     libcpmt:winapinls.obj
 0002:00001fd0       ??_C@_1M@PAFNENNF@?$AAf?$AAr?$AA?9?$AAl?$AAu?$AA?$AA@ 0000000180036fd0     libcpmt:winapinls.obj
 0002:00001fe0       ??_C@_1M@EOHDJGDD@?$AAf?$AAr?$AA?9?$AAm?$AAc?$AA?$AA@ 0000000180036fe0     libcpmt:winapinls.obj
 0002:00001ff0       ??_C@_1M@FAPLLOPF@?$AAg?$AAl?$AA?9?$AAe?$AAs?$AA?$AA@ 0000000180036ff0     libcpmt:winapinls.obj
 0002:00002000       ??_C@_1M@FOPBFLOO@?$AAg?$AAu?$AA?9?$AAi?$AAn?$AA?$AA@ 0000000180037000     libcpmt:winapinls.obj
 0002:00002010       ??_C@_1M@KBMCINPM@?$AAh?$AAe?$AA?9?$AAi?$AAl?$AA?$AA@ 0000000180037010     libcpmt:winapinls.obj
 0002:00002020       ??_C@_1M@BBPHKFPJ@?$AAh?$AAi?$AA?9?$AAi?$AAn?$AA?$AA@ 0000000180037020     libcpmt:winapinls.obj
 0002:00002030       ??_C@_1M@PMBNDPHD@?$AAh?$AAr?$AA?9?$AAb?$AAa?$AA?$AA@ 0000000180037030     libcpmt:winapinls.obj
 0002:00002040       ??_C@_1M@BPCKOEGE@?$AAh?$AAr?$AA?9?$AAh?$AAr?$AA?$AA@ 0000000180037040     libcpmt:winapinls.obj
 0002:00002050       ??_C@_1M@GACBMHKE@?$AAh?$AAu?$AA?9?$AAh?$AAu?$AA?$AA@ 0000000180037050     libcpmt:winapinls.obj
 0002:00002060       ??_C@_1M@MILPAJJC@?$AAh?$AAy?$AA?9?$AAa?$AAm?$AA?$AA@ 0000000180037060     libcpmt:winapinls.obj
 0002:00002070       ??_C@_1M@BABBICEC@?$AAi?$AAd?$AA?9?$AAi?$AAd?$AA?$AA@ 0000000180037070     libcpmt:winapinls.obj
 0002:00002080       ??_C@_1M@BIKNHHPF@?$AAi?$AAs?$AA?9?$AAi?$AAs?$AA?$AA@ 0000000180037080     libcpmt:winapinls.obj
 0002:00002090       ??_C@_1M@NMPCJPHE@?$AAi?$AAt?$AA?9?$AAc?$AAh?$AA?$AA@ 0000000180037090     libcpmt:winapinls.obj
 0002:000020a0       ??_C@_1M@GHKGFEDF@?$AAi?$AAt?$AA?9?$AAi?$AAt?$AA?$AA@ 00000001800370a0     libcpmt:winapinls.obj
 0002:000020b0       ??_C@_1M@NIEJCJJA@?$AAj?$AAa?$AA?9?$AAj?$AAp?$AA?$AA@ 00000001800370b0     libcpmt:winapinls.obj
 0002:000020c0       ??_C@_1M@JILFNBIM@?$AAk?$AAa?$AA?9?$AAg?$AAe?$AA?$AA@ 00000001800370c0     libcpmt:winapinls.obj
 0002:000020d0       ??_C@_1M@PACPMGPH@?$AAk?$AAk?$AA?9?$AAk?$AAz?$AA?$AA@ 00000001800370d0     libcpmt:winapinls.obj
 0002:000020e0       ??_C@_1M@IELFGMHA@?$AAk?$AAn?$AA?9?$AAi?$AAn?$AA?$AA@ 00000001800370e0     libcpmt:winapinls.obj
 0002:000020f0       ??_C@_1M@DMHAEOGC@?$AAk?$AAo?$AA?9?$AAk?$AAr?$AA?$AA@ 00000001800370f0     libcpmt:winapinls.obj
 0002:00002100       ??_C@_1O@IBBJHCH@?$AAk?$AAo?$AAk?$AA?9?$AAi?$AAn?$AA?$AA@ 0000000180037100     libcpmt:winapinls.obj
 0002:00002110       ??_C@_1M@HBAHBIGA@?$AAk?$AAy?$AA?9?$AAk?$AAg?$AA?$AA@ 0000000180037110     libcpmt:winapinls.obj
 0002:00002120       ??_C@_1M@KPMILCJG@?$AAl?$AAt?$AA?9?$AAl?$AAt?$AA?$AA@ 0000000180037120     libcpmt:winapinls.obj
 0002:00002130       ??_C@_1M@BDEKKCA@?$AAl?$AAv?$AA?9?$AAl?$AAv?$AA?$AA@ 0000000180037130     libcpmt:winapinls.obj
 0002:00002140       ??_C@_1M@ELCKCCJJ@?$AAm?$AAi?$AA?9?$AAn?$AAz?$AA?$AA@ 0000000180037140     libcpmt:winapinls.obj
 0002:00002150       ??_C@_1M@CBOOLAPA@?$AAm?$AAk?$AA?9?$AAm?$AAk?$AA?$AA@ 0000000180037150     libcpmt:winapinls.obj
 0002:00002160       ??_C@_1M@GPHNBJKN@?$AAm?$AAl?$AA?9?$AAi?$AAn?$AA?$AA@ 0000000180037160     libcpmt:winapinls.obj
 0002:00002170       ??_C@_1M@PABJILIG@?$AAm?$AAn?$AA?9?$AAm?$AAn?$AA?$AA@ 0000000180037170     libcpmt:winapinls.obj
 0002:00002180       ??_C@_1M@FGBKKIPG@?$AAm?$AAr?$AA?9?$AAi?$AAn?$AA?$AA@ 0000000180037180     libcpmt:winapinls.obj
 0002:00002190       ??_C@_1M@NDBPDDAL@?$AAm?$AAs?$AA?9?$AAb?$AAn?$AA?$AA@ 0000000180037190     libcpmt:winapinls.obj
 0002:000021a0       ??_C@_1M@OPIHOOPI@?$AAm?$AAs?$AA?9?$AAm?$AAy?$AA?$AA@ 00000001800371a0     libcpmt:winapinls.obj
 0002:000021b0       ??_C@_1M@PPDBCNFM@?$AAm?$AAt?$AA?9?$AAm?$AAt?$AA?$AA@ 00000001800371b0     libcpmt:winapinls.obj
 0002:000021c0       ??_C@_1M@KDJDKMDD@?$AAn?$AAb?$AA?9?$AAn?$AAo?$AA?$AA@ 00000001800371c0     libcpmt:winapinls.obj
 0002:000021d0       ??_C@_1M@KFCFLMJP@?$AAn?$AAl?$AA?9?$AAb?$AAe?$AA?$AA@ 00000001800371d0     libcpmt:winapinls.obj
 0002:000021e0       ??_C@_1M@KPOPDDGO@?$AAn?$AAl?$AA?9?$AAn?$AAl?$AA?$AA@ 00000001800371e0     libcpmt:winapinls.obj
 0002:000021f0       ??_C@_1M@LJKPEMLN@?$AAn?$AAn?$AA?9?$AAn?$AAo?$AA?$AA@ 00000001800371f0     libcpmt:winapinls.obj
 0002:00002200       ??_C@_1M@BDGHHBFL@?$AAn?$AAs?$AA?9?$AAz?$AAa?$AA?$AA@ 0000000180037200     libcpmt:winapinls.obj
 0002:00002210       ??_C@_1M@IDEHOAP@?$AAp?$AAa?$AA?9?$AAi?$AAn?$AA?$AA@ 0000000180037210     libcpmt:winapinls.obj
 0002:00002220       ??_C@_1M@HDBKGOGH@?$AAp?$AAl?$AA?9?$AAp?$AAl?$AA?$AA@ 0000000180037220     libcpmt:winapinls.obj
 0002:00002230       ??_C@_1M@LJLLCMEH@?$AAp?$AAt?$AA?9?$AAb?$AAr?$AA?$AA@ 0000000180037230     libcpmt:winapinls.obj
 0002:00002240       ??_C@_1M@NCMONAAL@?$AAp?$AAt?$AA?9?$AAp?$AAt?$AA?$AA@ 0000000180037240     libcpmt:winapinls.obj
 0002:00002250       ??_C@_1O@EAKMAJDN@?$AAq?$AAu?$AAz?$AA?9?$AAb?$AAo?$AA?$AA@ 0000000180037250     libcpmt:winapinls.obj
 0002:00002260       ??_C@_1O@BHHPIGDN@?$AAq?$AAu?$AAz?$AA?9?$AAe?$AAc?$AA?$AA@ 0000000180037260     libcpmt:winapinls.obj
 0002:00002270       ??_C@_1O@GBAPEKMJ@?$AAq?$AAu?$AAz?$AA?9?$AAp?$AAe?$AA?$AA@ 0000000180037270     libcpmt:winapinls.obj
 0002:00002280       ??_C@_1M@CLGLEFBO@?$AAr?$AAo?$AA?9?$AAr?$AAo?$AA?$AA@ 0000000180037280     libcpmt:winapinls.obj
 0002:00002290       ??_C@_1M@CEEDODME@?$AAr?$AAu?$AA?9?$AAr?$AAu?$AA?$AA@ 0000000180037290     libcpmt:winapinls.obj
 0002:000022a0       ??_C@_1M@HPKKKMPP@?$AAs?$AAa?$AA?9?$AAi?$AAn?$AA?$AA@ 00000001800372a0     libcpmt:winapinls.obj
 0002:000022b0       ??_C@_1M@BKMAIGOJ@?$AAs?$AAe?$AA?9?$AAf?$AAi?$AA?$AA@ 00000001800372b0     libcpmt:winapinls.obj
 0002:000022c0       ??_C@_1M@NDPIFLFI@?$AAs?$AAe?$AA?9?$AAn?$AAo?$AA?$AA@ 00000001800372c0     libcpmt:winapinls.obj
 0002:000022d0       ??_C@_1M@DANKKHJ@?$AAs?$AAe?$AA?9?$AAs?$AAe?$AA?$AA@ 00000001800372d0     libcpmt:winapinls.obj
 0002:000022e0       ??_C@_1M@PNBLONPJ@?$AAs?$AAk?$AA?9?$AAs?$AAk?$AA?$AA@ 00000001800372e0     libcpmt:winapinls.obj
 0002:000022f0       ??_C@_1M@LFMODOAL@?$AAs?$AAl?$AA?9?$AAs?$AAi?$AA?$AA@ 00000001800372f0     libcpmt:winapinls.obj
 0002:00002300       ??_C@_1O@DFKOMPG@?$AAs?$AAm?$AAa?$AA?9?$AAn?$AAo?$AA?$AA@ 0000000180037300     libcpmt:winapinls.obj
 0002:00002310       ??_C@_1O@NDKPBNNH@?$AAs?$AAm?$AAa?$AA?9?$AAs?$AAe?$AA?$AA@ 0000000180037310     libcpmt:winapinls.obj
 0002:00002320       ??_C@_1O@PLLKBHAB@?$AAs?$AAm?$AAj?$AA?9?$AAn?$AAo?$AA?$AA@ 0000000180037320     libcpmt:winapinls.obj
 0002:00002330       ??_C@_1O@CLEPOGCA@?$AAs?$AAm?$AAj?$AA?9?$AAs?$AAe?$AA?$AA@ 0000000180037330     libcpmt:winapinls.obj
 0002:00002340       ??_C@_1O@DLGJGKMK@?$AAs?$AAm?$AAn?$AA?9?$AAf?$AAi?$AA?$AA@ 0000000180037340     libcpmt:winapinls.obj
 0002:00002350       ??_C@_1O@OJDJGAJC@?$AAs?$AAm?$AAs?$AA?9?$AAf?$AAi?$AA?$AA@ 0000000180037350     libcpmt:winapinls.obj
 0002:00002360       ??_C@_1M@BOFOGHPB@?$AAs?$AAq?$AA?9?$AAa?$AAl?$AA?$AA@ 0000000180037360     libcpmt:winapinls.obj
 0002:00002370       ??_C@_1BG@LJBBIPGB@?$AAs?$AAr?$AA?9?$AAb?$AAa?$AA?9?$AAc?$AAy?$AAr?$AAl?$AA?$AA@ 0000000180037370     libcpmt:winapinls.obj
 0002:00002388       ??_C@_1BG@JLBENFOE@?$AAs?$AAr?$AA?9?$AAb?$AAa?$AA?9?$AAl?$AAa?$AAt?$AAn?$AA?$AA@ 0000000180037388     libcpmt:winapinls.obj
 0002:000023a0       ??_C@_1BG@KODPNHE@?$AAs?$AAr?$AA?9?$AAs?$AAp?$AA?9?$AAc?$AAy?$AAr?$AAl?$AA?$AA@ 00000001800373a0     libcpmt:winapinls.obj
 0002:000023b8       ??_C@_1BG@CIOGKHPB@?$AAs?$AAr?$AA?9?$AAs?$AAp?$AA?9?$AAl?$AAa?$AAt?$AAn?$AA?$AA@ 00000001800373b8     libcpmt:winapinls.obj
 0002:000023d0       ??_C@_1M@NGFJLMAC@?$AAs?$AAv?$AA?9?$AAf?$AAi?$AA?$AA@ 00000001800373d0     libcpmt:winapinls.obj
 0002:000023e0       ??_C@_1M@MPJEJAJC@?$AAs?$AAv?$AA?9?$AAs?$AAe?$AA?$AA@ 00000001800373e0     libcpmt:winapinls.obj
 0002:000023f0       ??_C@_1M@MPNDHLFK@?$AAs?$AAw?$AA?9?$AAk?$AAe?$AA?$AA@ 00000001800373f0     libcpmt:winapinls.obj
 0002:00002400       ??_C@_1O@KOHBJJI@?$AAs?$AAy?$AAr?$AA?9?$AAs?$AAy?$AA?$AA@ 0000000180037400     libcpmt:winapinls.obj
 0002:00002410       ??_C@_1M@LDCEFHA@?$AAt?$AAa?$AA?9?$AAi?$AAn?$AA?$AA@ 0000000180037410     libcpmt:winapinls.obj
 0002:00002420       ??_C@_1M@CNJOFAK@?$AAt?$AAe?$AA?9?$AAi?$AAn?$AA?$AA@ 0000000180037420     libcpmt:winapinls.obj
 0002:00002430       ??_C@_1M@GNAECACD@?$AAt?$AAh?$AA?9?$AAt?$AAh?$AA?$AA@ 0000000180037430     libcpmt:winapinls.obj
 0002:00002440       ??_C@_1M@CHBIHOJO@?$AAt?$AAn?$AA?9?$AAz?$AAa?$AA?$AA@ 0000000180037440     libcpmt:winapinls.obj
 0002:00002450       ??_C@_1M@GCCMIGPJ@?$AAt?$AAr?$AA?9?$AAt?$AAr?$AA?$AA@ 0000000180037450     libcpmt:winapinls.obj
 0002:00002460       ??_C@_1M@CELMCNBK@?$AAt?$AAt?$AA?9?$AAr?$AAu?$AA?$AA@ 0000000180037460     libcpmt:winapinls.obj
 0002:00002470       ??_C@_1M@KLMCELGA@?$AAu?$AAk?$AA?9?$AAu?$AAa?$AA?$AA@ 0000000180037470     libcpmt:winapinls.obj
 0002:00002480       ??_C@_1M@EPAJJAJF@?$AAu?$AAr?$AA?9?$AAp?$AAk?$AA?$AA@ 0000000180037480     libcpmt:winapinls.obj
 0002:00002490       ??_C@_1BG@GEGPMCDJ@?$AAu?$AAz?$AA?9?$AAu?$AAz?$AA?9?$AAc?$AAy?$AAr?$AAl?$AA?$AA@ 0000000180037490     libcpmt:winapinls.obj
 0002:000024a8       ??_C@_1BG@EGGKJILM@?$AAu?$AAz?$AA?9?$AAu?$AAz?$AA?9?$AAl?$AAa?$AAt?$AAn?$AA?$AA@ 00000001800374a8     libcpmt:winapinls.obj
 0002:000024c0       ??_C@_1M@GFOCLFF@?$AAv?$AAi?$AA?9?$AAv?$AAn?$AA?$AA@ 00000001800374c0     libcpmt:winapinls.obj
 0002:000024d0       ??_C@_1M@CPAMEDFI@?$AAx?$AAh?$AA?9?$AAz?$AAa?$AA?$AA@ 00000001800374d0     libcpmt:winapinls.obj
 0002:000024e0       ??_C@_1O@EBKIFIGN@?$AAz?$AAh?$AA?9?$AAc?$AAh?$AAs?$AA?$AA@ 00000001800374e0     libcpmt:winapinls.obj
 0002:000024f0       ??_C@_1O@NMHPGANE@?$AAz?$AAh?$AA?9?$AAc?$AAh?$AAt?$AA?$AA@ 00000001800374f0     libcpmt:winapinls.obj
 0002:00002500       ??_C@_1M@LPINJOMC@?$AAz?$AAh?$AA?9?$AAc?$AAn?$AA?$AA@ 0000000180037500     libcpmt:winapinls.obj
 0002:00002510       ??_C@_1M@OCJEJODD@?$AAz?$AAh?$AA?9?$AAh?$AAk?$AA?$AA@ 0000000180037510     libcpmt:winapinls.obj
 0002:00002520       ??_C@_1M@DNDLJINH@?$AAz?$AAh?$AA?9?$AAm?$AAo?$AA?$AA@ 0000000180037520     libcpmt:winapinls.obj
 0002:00002530       ??_C@_1M@MBFDNDND@?$AAz?$AAh?$AA?9?$AAs?$AAg?$AA?$AA@ 0000000180037530     libcpmt:winapinls.obj
 0002:00002540       ??_C@_1M@IMEPLEPE@?$AAz?$AAh?$AA?9?$AAt?$AAw?$AA?$AA@ 0000000180037540     libcpmt:winapinls.obj
 0002:00002550       ??_C@_1M@BBGHNHJP@?$AAz?$AAu?$AA?9?$AAz?$AAa?$AA?$AA@ 0000000180037550     libcpmt:winapinls.obj
 0002:000041e0       ??_C@_15EMKDOKLE@?$AAa?$AAr?$AA?$AA@ 00000001800391e0     libcpmt:winapinls.obj
 0002:000041e8       ??_C@_15KNPADPLH@?$AAb?$AAg?$AA?$AA@ 00000001800391e8     libcpmt:winapinls.obj
 0002:000041f0       ??_C@_15EDMHLDMO@?$AAc?$AAa?$AA?$AA@ 00000001800391f0     libcpmt:winapinls.obj
 0002:000041f8       ??_C@_1O@BPEAJADD@?$AAz?$AAh?$AA?9?$AAC?$AAH?$AAS?$AA?$AA@ 00000001800391f8     libcpmt:winapinls.obj
 0002:00004208       ??_C@_15LJNHCMNK@?$AAc?$AAs?$AA?$AA@ 0000000180039208     libcpmt:winapinls.obj
 0002:00004210       ??_C@_15FOMCIDHG@?$AAd?$AAa?$AA?$AA@ 0000000180039210     libcpmt:winapinls.obj
 0002:00004218       ??_C@_15NBKABECB@?$AAd?$AAe?$AA?$AA@ 0000000180039218     libcpmt:winapinls.obj
 0002:00004220       ??_C@_15GHPEIIAO@?$AAe?$AAl?$AA?$AA@ 0000000180039220     libcpmt:winapinls.obj
 0002:00004228       ??_C@_15MNPNEAIF@?$AAe?$AAn?$AA?$AA@ 0000000180039228     libcpmt:winapinls.obj
 0002:00004230       ??_C@_15GPIOMPMH@?$AAe?$AAs?$AA?$AA@ 0000000180039230     libcpmt:winapinls.obj
 0002:00004238       ??_C@_15NGLOAKJC@?$AAf?$AAi?$AA?$AA@ 0000000180039238     libcpmt:winapinls.obj
 0002:00004240       ??_C@_15FBKGNKAM@?$AAf?$AAr?$AA?$AA@ 0000000180039240     libcpmt:winapinls.obj
 0002:00004248       ??_C@_15KGGCNEFK@?$AAh?$AAe?$AA?$AA@ 0000000180039248     libcpmt:winapinls.obj
 0002:00004250       ??_C@_15PGHLIDMF@?$AAh?$AAu?$AA?$AA@ 0000000180039250     libcpmt:winapinls.obj
 0002:00004258       ??_C@_15BIEMAPLM@?$AAi?$AAs?$AA?$AA@ 0000000180039258     libcpmt:winapinls.obj
 0002:00004260       ??_C@_15IFJLDHAF@?$AAi?$AAt?$AA?$AA@ 0000000180039260     libcpmt:winapinls.obj
 0002:00004268       ??_C@_15GEMIOCAG@?$AAj?$AAa?$AA?$AA@ 0000000180039268     libcpmt:winapinls.obj
 0002:00004270       ??_C@_15EPELEGJA@?$AAk?$AAo?$AA?$AA@ 0000000180039270     libcpmt:winapinls.obj
 0002:00004278       ??_C@_15NDDHIMN@?$AAn?$AAl?$AA?$AA@ 0000000180039278     libcpmt:winapinls.obj
 0002:00004280       ??_C@_15BPIGNHCD@?$AAn?$AAo?$AA?$AA@ 0000000180039280     libcpmt:winapinls.obj
 0002:00004288       ??_C@_15DEOPBLCG@?$AAp?$AAl?$AA?$AA@ 0000000180039288     libcpmt:winapinls.obj
 0002:00004290       ??_C@_15KBECGEFG@?$AAp?$AAt?$AA?$AA@ 0000000180039290     libcpmt:winapinls.obj
 0002:00004298       ??_C@_15GLJCBFMD@?$AAr?$AAo?$AA?$AA@ 0000000180039298     libcpmt:winapinls.obj
 0002:000042a0       ??_C@_15FEDGKCDI@?$AAr?$AAu?$AA?$AA@ 00000001800392a0     libcpmt:winapinls.obj
 0002:000042a8       ??_C@_15GLKMLLHM@?$AAh?$AAr?$AA?$AA@ 00000001800392a8     libcpmt:winapinls.obj
 0002:000042b0       ??_C@_15CPKMFBDB@?$AAs?$AAk?$AA?$AA@ 00000001800392b0     libcpmt:winapinls.obj
 0002:000042b8       ??_C@_15BAAIOGMK@?$AAs?$AAq?$AA?$AA@ 00000001800392b8     libcpmt:winapinls.obj
 0002:000042c0       ??_C@_15INNPNOHD@?$AAs?$AAv?$AA?$AA@ 00000001800392c0     libcpmt:winapinls.obj
 0002:000042c8       ??_C@_15CABMMOGH@?$AAt?$AAh?$AA?$AA@ 00000001800392c8     libcpmt:winapinls.obj
 0002:000042d0       ??_C@_15BPLIHJJM@?$AAt?$AAr?$AA?$AA@ 00000001800392d0     libcpmt:winapinls.obj
 0002:000042d8       ??_C@_15NEOEKKDJ@?$AAu?$AAr?$AA?$AA@ 00000001800392d8     libcpmt:winapinls.obj
 0002:000042e0       ??_C@_15NFICGAJK@?$AAi?$AAd?$AA?$AA@ 00000001800392e0     libcpmt:winapinls.obj
 0002:000042e8       ??_C@_15PJPFLCCM@?$AAu?$AAk?$AA?$AA@ 00000001800392e8     libcpmt:winapinls.obj
 0002:000042f0       ??_C@_15HPJPHDM@?$AAb?$AAe?$AA?$AA@ 00000001800392f0     libcpmt:winapinls.obj
 0002:000042f8       ??_C@_15LCHLGJII@?$AAs?$AAl?$AA?$AA@ 00000001800392f8     libcpmt:winapinls.obj
 0002:00004300       ??_C@_15PCFJPHHO@?$AAe?$AAt?$AA?$AA@ 0000000180039300     libcpmt:winapinls.obj
 0002:00004308       ??_C@_15HPFPGODN@?$AAl?$AAv?$AA?$AA@ 0000000180039308     libcpmt:winapinls.obj
 0002:00004310       ??_C@_15NFFGKGLG@?$AAl?$AAt?$AA?$AA@ 0000000180039310     libcpmt:winapinls.obj
 0002:00004318       ??_C@_15BDAKCCHN@?$AAf?$AAa?$AA?$AA@ 0000000180039318     libcpmt:winapinls.obj
 0002:00004320       ??_C@_15NFGIAIAJ@?$AAv?$AAi?$AA?$AA@ 0000000180039320     libcpmt:winapinls.obj
 0002:00004328       ??_C@_15LMKNDMHN@?$AAh?$AAy?$AA?$AA@ 0000000180039328     libcpmt:winapinls.obj
 0002:00004330       ??_C@_15IJBHMCFL@?$AAa?$AAz?$AA?$AA@ 0000000180039330     libcpmt:winapinls.obj
 0002:00004338       ??_C@_15EKOFJABL@?$AAe?$AAu?$AA?$AA@ 0000000180039338     libcpmt:winapinls.obj
 0002:00004340       ??_C@_15BGHADCNK@?$AAm?$AAk?$AA?$AA@ 0000000180039340     libcpmt:winapinls.obj
 0002:00004348       ??_C@_15JDNICKHM@?$AAa?$AAf?$AA?$AA@ 0000000180039348     libcpmt:winapinls.obj
 0002:00004350       ??_C@_15KPJEDBKD@?$AAk?$AAa?$AA?$AA@ 0000000180039350     libcpmt:winapinls.obj
 0002:00004358       ??_C@_15PDNFFFEO@?$AAf?$AAo?$AA?$AA@ 0000000180039358     libcpmt:winapinls.obj
 0002:00004360       ??_C@_15OMLEGLOC@?$AAh?$AAi?$AA?$AA@ 0000000180039360     libcpmt:winapinls.obj
 0002:00004368       ??_C@_15IDNNENKK@?$AAm?$AAs?$AA?$AA@ 0000000180039368     libcpmt:winapinls.obj
 0002:00004370       ??_C@_15MACJNBMH@?$AAk?$AAk?$AA?$AA@ 0000000180039370     libcpmt:winapinls.obj
 0002:00004378       ??_C@_15DKDJEOND@?$AAk?$AAy?$AA?$AA@ 0000000180039378     libcpmt:winapinls.obj
 0002:00004380       ??_C@_15DFGDLJBG@?$AAs?$AAw?$AA?$AA@ 0000000180039380     libcpmt:winapinls.obj
 0002:00004388       ??_C@_15BBFAICNG@?$AAu?$AAz?$AA?$AA@ 0000000180039388     libcpmt:winapinls.obj
 0002:00004390       ??_C@_15DKNDCGEA@?$AAt?$AAt?$AA?$AA@ 0000000180039390     libcpmt:winapinls.obj
 0002:00004398       ??_C@_15MGIFMDPL@?$AAp?$AAa?$AA?$AA@ 0000000180039398     libcpmt:winapinls.obj
 0002:000043a0       ??_C@_15HCNDBBA@?$AAg?$AAu?$AA?$AA@ 00000001800393a0     libcpmt:winapinls.obj
 0002:000043a8       ??_C@_15FNBEIBON@?$AAt?$AAa?$AA?$AA@ 00000001800393a8     libcpmt:winapinls.obj
 0002:000043b0       ??_C@_15NCHGBGLK@?$AAt?$AAe?$AA?$AA@ 00000001800393b0     libcpmt:winapinls.obj
 0002:000043b8       ??_C@_15PHPHCBPF@?$AAk?$AAn?$AA?$AA@ 00000001800393b8     libcpmt:winapinls.obj
 0002:000043c0       ??_C@_15DLGBCKMP@?$AAm?$AAr?$AA?$AA@ 00000001800393c0     libcpmt:winapinls.obj
 0002:000043c8       ??_C@_15EABBLBFF@?$AAs?$AAa?$AA?$AA@ 00000001800393c8     libcpmt:winapinls.obj
 0002:000043d0       ??_C@_15CBKOMCOI@?$AAm?$AAn?$AA?$AA@ 00000001800393d0     libcpmt:winapinls.obj
 0002:000043d8       ??_C@_15CKDMCJAF@?$AAg?$AAl?$AA?$AA@ 00000001800393d8     libcpmt:winapinls.obj
 0002:000043e0       ??_C@_17CNJFBPG@?$AAk?$AAo?$AAk?$AA?$AA@ 00000001800393e0     libcpmt:winapinls.obj
 0002:000043e8       ??_C@_17FFBJICPL@?$AAs?$AAy?$AAr?$AA?$AA@ 00000001800393e8     libcpmt:winapinls.obj
 0002:000043f0       ??_C@_17KPNDCPAF@?$AAd?$AAi?$AAv?$AA?$AA@ 00000001800393f0     libcpmt:winapinls.obj
 0002:000043f8       ??_C@_1M@OKAHONE@?$AAa?$AAr?$AA?9?$AAS?$AAA?$AA?$AA@ 00000001800393f8     libcpmt:winapinls.obj
 0002:00004408       ??_C@_1M@FFFIGIGK@?$AAb?$AAg?$AA?9?$AAB?$AAG?$AA?$AA@ 0000000180039408     libcpmt:winapinls.obj
 0002:00004418       ??_C@_1M@BJNKEDC@?$AAc?$AAa?$AA?9?$AAE?$AAS?$AA?$AA@ 0000000180039418     libcpmt:winapinls.obj
 0002:00004428       ??_C@_1M@CLNBBOPM@?$AAz?$AAh?$AA?9?$AAT?$AAW?$AA?$AA@ 0000000180039428     libcpmt:winapinls.obj
 0002:00004438       ??_C@_1M@IJJHFJHA@?$AAc?$AAs?$AA?9?$AAC?$AAZ?$AA?$AA@ 0000000180039438     libcpmt:winapinls.obj
 0002:00004448       ??_C@_1M@CLPEOBGI@?$AAd?$AAa?$AA?9?$AAD?$AAK?$AA?$AA@ 0000000180039448     libcpmt:winapinls.obj
 0002:00004458       ??_C@_1M@MCMADGCB@?$AAd?$AAe?$AA?9?$AAD?$AAE?$AA?$AA@ 0000000180039458     libcpmt:winapinls.obj
 0002:00004468       ??_C@_1M@OOCKEMAM@?$AAe?$AAl?$AA?9?$AAG?$AAR?$AA?$AA@ 0000000180039468     libcpmt:winapinls.obj
 0002:00004478       ??_C@_1M@BMHNFIME@?$AAe?$AAn?$AA?9?$AAU?$AAS?$AA?$AA@ 0000000180039478     libcpmt:winapinls.obj
 0002:00004488       ??_C@_1M@DDNJFGID@?$AAf?$AAi?$AA?9?$AAF?$AAI?$AA?$AA@ 0000000180039488     libcpmt:winapinls.obj
 0002:00004498       ??_C@_1M@GLIPPMAC@?$AAf?$AAr?$AA?9?$AAF?$AAR?$AA?$AA@ 0000000180039498     libcpmt:winapinls.obj
 0002:000044a8       ??_C@_1M@GFMCHPE@?$AAh?$AAe?$AA?9?$AAI?$AAL?$AA?$AA@ 00000001800394a8     libcpmt:winapinls.obj
 0002:000044b8       ??_C@_1M@MHLPGNKM@?$AAh?$AAu?$AA?9?$AAH?$AAU?$AA?$AA@ 00000001800394b8     libcpmt:winapinls.obj
 0002:000044c8       ??_C@_1M@LPDDNNPN@?$AAi?$AAs?$AA?9?$AAI?$AAS?$AA?$AA@ 00000001800394c8     libcpmt:winapinls.obj
 0002:000044d8       ??_C@_1M@MADIPODN@?$AAi?$AAt?$AA?9?$AAI?$AAT?$AA?$AA@ 00000001800394d8     libcpmt:winapinls.obj
 0002:000044e8       ??_C@_1M@HPNHIDJI@?$AAj?$AAa?$AA?9?$AAJ?$AAP?$AA?$AA@ 00000001800394e8     libcpmt:winapinls.obj
 0002:000044f8       ??_C@_1M@JLOOOEGK@?$AAk?$AAo?$AA?9?$AAK?$AAR?$AA?$AA@ 00000001800394f8     libcpmt:winapinls.obj
 0002:00004508       ??_C@_1M@IHBJJGG@?$AAn?$AAl?$AA?9?$AAN?$AAL?$AA?$AA@ 0000000180039508     libcpmt:winapinls.obj
 0002:00004518       ??_C@_1M@EANAGDL@?$AAn?$AAb?$AA?9?$AAN?$AAO?$AA?$AA@ 0000000180039518     libcpmt:winapinls.obj
 0002:00004528       ??_C@_1M@NEIEMEGP@?$AAp?$AAl?$AA?9?$AAP?$AAL?$AA?$AA@ 0000000180039528     libcpmt:winapinls.obj
 0002:00004538       ??_C@_1M@BOCFIGEP@?$AAp?$AAt?$AA?9?$AAB?$AAR?$AA?$AA@ 0000000180039538     libcpmt:winapinls.obj
 0002:00004548       ??_C@_1M@IMPFOPBG@?$AAr?$AAo?$AA?9?$AAR?$AAO?$AA?$AA@ 0000000180039548     libcpmt:winapinls.obj
 0002:00004558       ??_C@_1M@IDNNEJMM@?$AAr?$AAu?$AA?9?$AAR?$AAU?$AA?$AA@ 0000000180039558     libcpmt:winapinls.obj
 0002:00004568       ??_C@_1M@LILEEOGM@?$AAh?$AAr?$AA?9?$AAH?$AAR?$AA?$AA@ 0000000180039568     libcpmt:winapinls.obj
 0002:00004578       ??_C@_1M@FKIFEHPB@?$AAs?$AAk?$AA?9?$AAS?$AAK?$AA?$AA@ 0000000180039578     libcpmt:winapinls.obj
 0002:00004588       ??_C@_1M@LJMAMNPJ@?$AAs?$AAq?$AA?9?$AAA?$AAL?$AA?$AA@ 0000000180039588     libcpmt:winapinls.obj
 0002:00004598       ??_C@_1M@GIAKDKJK@?$AAs?$AAv?$AA?9?$AAS?$AAE?$AA?$AA@ 0000000180039598     libcpmt:winapinls.obj
 0002:000045a8       ??_C@_1M@MKJKIKCL@?$AAt?$AAh?$AA?9?$AAT?$AAH?$AA?$AA@ 00000001800395a8     libcpmt:winapinls.obj
 0002:000045b8       ??_C@_1M@MFLCCMPB@?$AAt?$AAr?$AA?9?$AAT?$AAR?$AA?$AA@ 00000001800395b8     libcpmt:winapinls.obj
 0002:000045c8       ??_C@_1M@OIJHDKJN@?$AAu?$AAr?$AA?9?$AAP?$AAK?$AA?$AA@ 00000001800395c8     libcpmt:winapinls.obj
 0002:000045d8       ??_C@_1M@LHIPCIEK@?$AAi?$AAd?$AA?9?$AAI?$AAD?$AA?$AA@ 00000001800395d8     libcpmt:winapinls.obj
 0002:000045e8       ??_C@_1M@MFMOBGI@?$AAu?$AAk?$AA?9?$AAU?$AAA?$AA?$AA@ 00000001800395e8     libcpmt:winapinls.obj
 0002:000045f8       ??_C@_1M@OBGLJIPL@?$AAb?$AAe?$AA?9?$AAB?$AAY?$AA?$AA@ 00000001800395f8     libcpmt:winapinls.obj
 0002:00004608       ??_C@_1M@BCFAJEAD@?$AAs?$AAl?$AA?9?$AAS?$AAI?$AA?$AA@ 0000000180039608     libcpmt:winapinls.obj
 0002:00004618       ??_C@_1M@FKFFEDDN@?$AAe?$AAt?$AA?9?$AAE?$AAE?$AA?$AA@ 0000000180039618     libcpmt:winapinls.obj
 0002:00004628       ??_C@_1M@KGKKAACI@?$AAl?$AAv?$AA?9?$AAL?$AAV?$AA?$AA@ 0000000180039628     libcpmt:winapinls.obj
 0002:00004638       ??_C@_1M@IFGBIJO@?$AAl?$AAt?$AA?9?$AAL?$AAT?$AA?$AA@ 0000000180039638     libcpmt:winapinls.obj
 0002:00004648       ??_C@_1M@FGEAHEDM@?$AAf?$AAa?$AA?9?$AAI?$AAR?$AA?$AA@ 0000000180039648     libcpmt:winapinls.obj
 0002:00004658       ??_C@_1M@KBMAIBFN@?$AAv?$AAi?$AA?9?$AAV?$AAN?$AA?$AA@ 0000000180039658     libcpmt:winapinls.obj
 0002:00004668       ??_C@_1M@GPCBKDJK@?$AAh?$AAy?$AA?9?$AAA?$AAM?$AA?$AA@ 0000000180039668     libcpmt:winapinls.obj
 0002:00004678       ??_C@_1BG@BECMDDJB@?$AAa?$AAz?$AA?9?$AAA?$AAZ?$AA?9?$AAL?$AAa?$AAt?$AAn?$AA?$AA@ 0000000180039678     libcpmt:winapinls.obj
 0002:00004690       ??_C@_1M@MAOFCAEA@?$AAe?$AAu?$AA?9?$AAE?$AAS?$AA?$AA@ 0000000180039690     libcpmt:winapinls.obj
 0002:000046a0       ??_C@_1M@IGHABKPI@?$AAm?$AAk?$AA?9?$AAM?$AAK?$AA?$AA@ 00000001800396a0     libcpmt:winapinls.obj
 0002:000046b0       ??_C@_1M@IAIGNEJG@?$AAt?$AAn?$AA?9?$AAZ?$AAA?$AA?$AA@ 00000001800396b0     libcpmt:winapinls.obj
 0002:000046c0       ??_C@_1M@IIJCOJFA@?$AAx?$AAh?$AA?9?$AAZ?$AAA?$AA?$AA@ 00000001800396c0     libcpmt:winapinls.obj
 0002:000046d0       ??_C@_1M@LGPJHNJH@?$AAz?$AAu?$AA?9?$AAZ?$AAA?$AA?$AA@ 00000001800396d0     libcpmt:winapinls.obj
 0002:000046e0       ??_C@_1M@HOKAOIO@?$AAa?$AAf?$AA?9?$AAZ?$AAA?$AA?$AA@ 00000001800396e0     libcpmt:winapinls.obj
 0002:000046f0       ??_C@_1M@DPCLHLIE@?$AAk?$AAa?$AA?9?$AAG?$AAE?$AA?$AA@ 00000001800396f0     libcpmt:winapinls.obj
 0002:00004700       ??_C@_1M@BLKMHJBI@?$AAf?$AAo?$AA?9?$AAF?$AAO?$AA?$AA@ 0000000180039700     libcpmt:winapinls.obj
 0002:00004710       ??_C@_1M@LGGJAPPB@?$AAh?$AAi?$AA?9?$AAI?$AAN?$AA?$AA@ 0000000180039710     libcpmt:winapinls.obj
 0002:00004720       ??_C@_1M@FIKPIHFE@?$AAm?$AAt?$AA?9?$AAM?$AAT?$AA?$AA@ 0000000180039720     libcpmt:winapinls.obj
 0002:00004730       ??_C@_1M@HEGGPBFA@?$AAs?$AAe?$AA?9?$AAN?$AAO?$AA?$AA@ 0000000180039730     libcpmt:winapinls.obj
 0002:00004740       ??_C@_1M@EIBJEEPA@?$AAm?$AAs?$AA?9?$AAM?$AAY?$AA?$AA@ 0000000180039740     libcpmt:winapinls.obj
 0002:00004750       ??_C@_1M@FHLBGMPP@?$AAk?$AAk?$AA?9?$AAK?$AAZ?$AA?$AA@ 0000000180039750     libcpmt:winapinls.obj
 0002:00004760       ??_C@_1M@NGJJLCGI@?$AAk?$AAy?$AA?9?$AAK?$AAG?$AA?$AA@ 0000000180039760     libcpmt:winapinls.obj
 0002:00004770       ??_C@_1M@GIENNBFC@?$AAs?$AAw?$AA?9?$AAK?$AAE?$AA?$AA@ 0000000180039770     libcpmt:winapinls.obj
 0002:00004780       ??_C@_1BG@NDGMJIMJ@?$AAu?$AAz?$AA?9?$AAU?$AAZ?$AA?9?$AAL?$AAa?$AAt?$AAn?$AA?$AA@ 0000000180039780     libcpmt:winapinls.obj
 0002:00004798       ??_C@_1M@IDCCIHBC@?$AAt?$AAt?$AA?9?$AAR?$AAU?$AA?$AA@ 0000000180039798     libcpmt:winapinls.obj
 0002:000047a8       ??_C@_1M@LOICPMOJ@?$AAb?$AAn?$AA?9?$AAI?$AAN?$AA?$AA@ 00000001800397a8     libcpmt:winapinls.obj
 0002:000047b8       ??_C@_1M@KPKKNEAH@?$AAp?$AAa?$AA?9?$AAI?$AAN?$AA?$AA@ 00000001800397b8     libcpmt:winapinls.obj
 0002:000047c8       ??_C@_1M@PJGPPBOG@?$AAg?$AAu?$AA?9?$AAI?$AAN?$AA?$AA@ 00000001800397c8     libcpmt:winapinls.obj
 0002:000047d8       ??_C@_1M@KMKMOPHI@?$AAt?$AAa?$AA?9?$AAI?$AAN?$AA?$AA@ 00000001800397d8     libcpmt:winapinls.obj
 0002:000047e8       ??_C@_1M@KFEHEPAC@?$AAt?$AAe?$AA?9?$AAI?$AAN?$AA?$AA@ 00000001800397e8     libcpmt:winapinls.obj
 0002:000047f8       ??_C@_1M@CDCLMGHI@?$AAk?$AAn?$AA?9?$AAI?$AAN?$AA?$AA@ 00000001800397f8     libcpmt:winapinls.obj
 0002:00004808       ??_C@_1M@MIODLDKF@?$AAm?$AAl?$AA?9?$AAI?$AAN?$AA?$AA@ 0000000180039808     libcpmt:winapinls.obj
 0002:00004818       ??_C@_1M@PBIEACPO@?$AAm?$AAr?$AA?9?$AAI?$AAN?$AA?$AA@ 0000000180039818     libcpmt:winapinls.obj
 0002:00004828       ??_C@_1M@NIDEAGPH@?$AAs?$AAa?$AA?9?$AAI?$AAN?$AA?$AA@ 0000000180039828     libcpmt:winapinls.obj
 0002:00004838       ??_C@_1M@FHIHCBIO@?$AAm?$AAn?$AA?9?$AAM?$AAN?$AA?$AA@ 0000000180039838     libcpmt:winapinls.obj
 0002:00004848       ??_C@_1M@JAIJPENP@?$AAc?$AAy?$AA?9?$AAG?$AAB?$AA?$AA@ 0000000180039848     libcpmt:winapinls.obj
 0002:00004858       ??_C@_1M@PHGFBEPN@?$AAg?$AAl?$AA?9?$AAE?$AAS?$AA?$AA@ 0000000180039858     libcpmt:winapinls.obj
 0002:00004868       ??_C@_1O@KPIPDNCP@?$AAk?$AAo?$AAk?$AA?9?$AAI?$AAN?$AA?$AA@ 0000000180039868     libcpmt:winapinls.obj
 0002:00004878       ??_C@_1O@KNHJLDJA@?$AAs?$AAy?$AAr?$AA?9?$AAS?$AAY?$AA?$AA@ 0000000180039878     libcpmt:winapinls.obj
 0002:00004888       ??_C@_1O@MKEKBLAH@?$AAd?$AAi?$AAv?$AA?9?$AAM?$AAV?$AA?$AA@ 0000000180039888     libcpmt:winapinls.obj
 0002:00004898       ??_C@_1O@OHDCKDDF@?$AAq?$AAu?$AAz?$AA?9?$AAB?$AAO?$AA?$AA@ 0000000180039898     libcpmt:winapinls.obj
 0002:000048a8       ??_C@_1M@LEPJNLFD@?$AAn?$AAs?$AA?9?$AAZ?$AAA?$AA?$AA@ 00000001800398a8     libcpmt:winapinls.obj
 0002:000048b8       ??_C@_1M@OMLEIIJB@?$AAm?$AAi?$AA?9?$AAN?$AAZ?$AA?$AA@ 00000001800398b8     libcpmt:winapinls.obj
 0002:000048c8       ??_C@_1M@PMPEAILG@?$AAa?$AAr?$AA?9?$AAI?$AAQ?$AA?$AA@ 00000001800398c8     libcpmt:winapinls.obj
 0002:000048d8       ??_C@_1M@BIBDDEMK@?$AAz?$AAh?$AA?9?$AAC?$AAN?$AA?$AA@ 00000001800398d8     libcpmt:winapinls.obj
 0002:000048e8       ??_C@_1M@CNKPNOEE@?$AAd?$AAe?$AA?9?$AAC?$AAH?$AA?$AA@ 00000001800398e8     libcpmt:winapinls.obj
 0002:000048f8       ??_C@_1M@LKMGMLKO@?$AAe?$AAn?$AA?9?$AAG?$AAB?$AA?$AA@ 00000001800398f8     libcpmt:winapinls.obj
 0002:00004908       ??_C@_1M@PGKJFFGL@?$AAe?$AAs?$AA?9?$AAM?$AAX?$AA?$AA@ 0000000180039908     libcpmt:winapinls.obj
 0002:00004918       ??_C@_1M@DNNANBDC@?$AAf?$AAr?$AA?9?$AAB?$AAE?$AA?$AA@ 0000000180039918     libcpmt:winapinls.obj
 0002:00004928       ??_C@_1M@HLGMDFHM@?$AAi?$AAt?$AA?9?$AAC?$AAH?$AA?$AA@ 0000000180039928     libcpmt:winapinls.obj
 0002:00004938       ??_C@_1M@CLLBGJH@?$AAn?$AAl?$AA?9?$AAB?$AAE?$AA?$AA@ 0000000180039938     libcpmt:winapinls.obj
 0002:00004948       ??_C@_1M@BODBOGLF@?$AAn?$AAn?$AA?9?$AAN?$AAO?$AA?$AA@ 0000000180039948     libcpmt:winapinls.obj
 0002:00004958       ??_C@_1M@HFFAHKAD@?$AAp?$AAt?$AA?9?$AAP?$AAT?$AA?$AA@ 0000000180039958     libcpmt:winapinls.obj
 0002:00004968       ??_C@_1BG@LNOAKHIE@?$AAs?$AAr?$AA?9?$AAS?$AAP?$AA?9?$AAL?$AAa?$AAt?$AAn?$AA?$AA@ 0000000180039968     libcpmt:winapinls.obj
 0002:00004980       ??_C@_1M@HBMHBGAK@?$AAs?$AAv?$AA?9?$AAF?$AAI?$AA?$AA@ 0000000180039980     libcpmt:winapinls.obj
 0002:00004990       ??_C@_1BG@DGCJGJBE@?$AAa?$AAz?$AA?9?$AAA?$AAZ?$AA?9?$AAC?$AAy?$AAr?$AAl?$AA?$AA@ 0000000180039990     libcpmt:winapinls.obj
 0002:000049a8       ??_C@_1M@KEJDAAHB@?$AAs?$AAe?$AA?9?$AAS?$AAE?$AA?$AA@ 00000001800399a8     libcpmt:winapinls.obj
 0002:000049b8       ??_C@_1M@HEIBJJAD@?$AAm?$AAs?$AA?9?$AAB?$AAN?$AA?$AA@ 00000001800399b8     libcpmt:winapinls.obj
 0002:000049c8       ??_C@_1BG@PBGJMCEM@?$AAu?$AAz?$AA?9?$AAU?$AAZ?$AA?9?$AAC?$AAy?$AAr?$AAl?$AA?$AA@ 00000001800399c8     libcpmt:winapinls.obj
 0002:000049e0       ??_C@_1O@LAOBCMDF@?$AAq?$AAu?$AAz?$AA?9?$AAE?$AAC?$AA?$AA@ 00000001800399e0     libcpmt:winapinls.obj
 0002:000049f0       ??_C@_1M@POEEMAIO@?$AAa?$AAr?$AA?9?$AAE?$AAG?$AA?$AA@ 00000001800399f0     libcpmt:winapinls.obj
 0002:00004a00       ??_C@_1M@EFAKDEDL@?$AAz?$AAh?$AA?9?$AAH?$AAK?$AA?$AA@ 0000000180039a00     libcpmt:winapinls.obj
 0002:00004a10       ??_C@_1M@HKKIJHGI@?$AAd?$AAe?$AA?9?$AAA?$AAT?$AA?$AA@ 0000000180039a10     libcpmt:winapinls.obj
 0002:00004a20       ??_C@_1M@KBFBEHJF@?$AAe?$AAn?$AA?9?$AAA?$AAU?$AA?$AA@ 0000000180039a20     libcpmt:winapinls.obj
 0002:00004a30       ??_C@_1M@MNPLFAAH@?$AAe?$AAs?$AA?9?$AAE?$AAS?$AA?$AA@ 0000000180039a30     libcpmt:winapinls.obj
 0002:00004a40       ??_C@_1M@HJOOJFMA@?$AAf?$AAr?$AA?9?$AAC?$AAA?$AA?$AA@ 0000000180039a40     libcpmt:winapinls.obj
 0002:00004a50       ??_C@_1BG@JPOFPNAB@?$AAs?$AAr?$AA?9?$AAS?$AAP?$AA?9?$AAC?$AAy?$AAr?$AAl?$AA?$AA@ 0000000180039a50     libcpmt:winapinls.obj
 0002:00004a68       ??_C@_1M@LNFOCMOB@?$AAs?$AAe?$AA?9?$AAF?$AAI?$AA?$AA@ 0000000180039a68     libcpmt:winapinls.obj
 0002:00004a78       ??_C@_1O@MGJBOAMB@?$AAq?$AAu?$AAz?$AA?9?$AAP?$AAE?$AA?$AA@ 0000000180039a78     libcpmt:winapinls.obj
 0002:00004a88       ??_C@_1M@GJINLBOK@?$AAa?$AAr?$AA?9?$AAL?$AAY?$AA?$AA@ 0000000180039a88     libcpmt:winapinls.obj
 0002:00004a98       ??_C@_1M@GGMNHJNL@?$AAz?$AAh?$AA?9?$AAS?$AAG?$AA?$AA@ 0000000180039a98     libcpmt:winapinls.obj
 0002:00004aa8       ??_C@_1M@HOIKODND@?$AAd?$AAe?$AA?9?$AAL?$AAU?$AA?$AA@ 0000000180039aa8     libcpmt:winapinls.obj
 0002:00004ab8       ??_C@_1M@DDOCCGFG@?$AAe?$AAn?$AA?9?$AAC?$AAA?$AA?$AA@ 0000000180039ab8     libcpmt:winapinls.obj
 0002:00004ac8       ??_C@_1M@BNOEMJLF@?$AAe?$AAs?$AA?9?$AAG?$AAT?$AA?$AA@ 0000000180039ac8     libcpmt:winapinls.obj
 0002:00004ad8       ??_C@_1M@EOGNKEK@?$AAf?$AAr?$AA?9?$AAC?$AAH?$AA?$AA@ 0000000180039ad8     libcpmt:winapinls.obj
 0002:00004ae8       ??_C@_1M@FLIDJFHL@?$AAh?$AAr?$AA?9?$AAB?$AAA?$AA?$AA@ 0000000180039ae8     libcpmt:winapinls.obj
 0002:00004af8       ??_C@_1O@FMCELNAJ@?$AAs?$AAm?$AAj?$AA?9?$AAN?$AAO?$AA?$AA@ 0000000180039af8     libcpmt:winapinls.obj
 0002:00004b08       ??_C@_1M@JHGLJMGJ@?$AAa?$AAr?$AA?9?$AAD?$AAZ?$AA?$AA@ 0000000180039b08     libcpmt:winapinls.obj
 0002:00004b18       ??_C@_1M@JKKFDCNP@?$AAz?$AAh?$AA?9?$AAM?$AAO?$AA?$AA@ 0000000180039b18     libcpmt:winapinls.obj
 0002:00004b28       ??_C@_1M@GEEFALPE@?$AAd?$AAe?$AA?9?$AAL?$AAI?$AA?$AA@ 0000000180039b28     libcpmt:winapinls.obj
 0002:00004b38       ??_C@_1M@IGEOFBG@?$AAe?$AAn?$AA?9?$AAN?$AAZ?$AA?$AA@ 0000000180039b38     libcpmt:winapinls.obj
 0002:00004b48       ??_C@_1M@KDBONEHP@?$AAe?$AAs?$AA?9?$AAC?$AAR?$AA?$AA@ 0000000180039b48     libcpmt:winapinls.obj
 0002:00004b58       ??_C@_1M@FHMDOHNN@?$AAf?$AAr?$AA?9?$AAL?$AAU?$AA?$AA@ 0000000180039b58     libcpmt:winapinls.obj
 0002:00004b68       ??_C@_1BG@NFKKMAFG@?$AAb?$AAs?$AA?9?$AAB?$AAA?$AA?9?$AAL?$AAa?$AAt?$AAn?$AA?$AA@ 0000000180039b68     libcpmt:winapinls.obj
 0002:00004b80       ??_C@_1O@IMNBEMCI@?$AAs?$AAm?$AAj?$AA?9?$AAS?$AAE?$AA?$AA@ 0000000180039b80     libcpmt:winapinls.obj
 0002:00004b90       ??_C@_1M@DHHMBNDP@?$AAa?$AAr?$AA?9?$AAM?$AAA?$AA?$AA@ 0000000180039b90     libcpmt:winapinls.obj
 0002:00004ba0       ??_C@_1M@BNBLJCGH@?$AAe?$AAn?$AA?9?$AAI?$AAE?$AA?$AA@ 0000000180039ba0     libcpmt:winapinls.obj
 0002:00004bb0       ??_C@_1M@GEPAFMDL@?$AAe?$AAs?$AA?9?$AAP?$AAA?$AA?$AA@ 0000000180039bb0     libcpmt:winapinls.obj
 0002:00004bc0       ??_C@_1M@OJONDMDL@?$AAf?$AAr?$AA?9?$AAM?$AAC?$AA?$AA@ 0000000180039bc0     libcpmt:winapinls.obj
 0002:00004bd0       ??_C@_1BG@OBCNFJB@?$AAs?$AAr?$AA?9?$AAB?$AAA?$AA?9?$AAL?$AAa?$AAt?$AAn?$AA?$AA@ 0000000180039bd0     libcpmt:winapinls.obj
 0002:00004be8       ??_C@_1O@KEMEEGPO@?$AAs?$AAm?$AAa?$AA?9?$AAN?$AAO?$AA?$AA@ 0000000180039be8     libcpmt:winapinls.obj
 0002:00004bf8       ??_C@_1M@ELMGFODK@?$AAa?$AAr?$AA?9?$AAT?$AAN?$AA?$AA@ 0000000180039bf8     libcpmt:winapinls.obj
 0002:00004c08       ??_C@_1M@BHDLHFAF@?$AAe?$AAn?$AA?9?$AAZ?$AAA?$AA?$AA@ 0000000180039c08     libcpmt:winapinls.obj
 0002:00004c18       ??_C@_1M@BMGIGLIF@?$AAe?$AAs?$AA?9?$AAD?$AAO?$AA?$AA@ 0000000180039c18     libcpmt:winapinls.obj
 0002:00004c28       ??_C@_1BG@CMBHIPBE@?$AAs?$AAr?$AA?9?$AAB?$AAA?$AA?9?$AAC?$AAy?$AAr?$AAl?$AA?$AA@ 0000000180039c28     libcpmt:winapinls.obj
 0002:00004c40       ??_C@_1O@HEDBLHNP@?$AAs?$AAm?$AAa?$AA?9?$AAS?$AAE?$AA?$AA@ 0000000180039c40     libcpmt:winapinls.obj
 0002:00004c50       ??_C@_1M@DAGCADIM@?$AAa?$AAr?$AA?9?$AAO?$AAM?$AA?$AA@ 0000000180039c50     libcpmt:winapinls.obj
 0002:00004c60       ??_C@_1M@FODLMICG@?$AAe?$AAn?$AA?9?$AAJ?$AAM?$AA?$AA@ 0000000180039c60     libcpmt:winapinls.obj
 0002:00004c70       ??_C@_1M@DNMLCIHB@?$AAe?$AAs?$AA?9?$AAV?$AAE?$AA?$AA@ 0000000180039c70     libcpmt:winapinls.obj
 0002:00004c80       ??_C@_1O@EOKHMKJK@?$AAs?$AAm?$AAs?$AA?9?$AAF?$AAI?$AA?$AA@ 0000000180039c80     libcpmt:winapinls.obj
 0002:00004c90       ??_C@_1M@CAFJMKOF@?$AAa?$AAr?$AA?9?$AAY?$AAE?$AA?$AA@ 0000000180039c90     libcpmt:winapinls.obj
 0002:00004ca0       ??_C@_1M@CBFHIJLI@?$AAe?$AAn?$AA?9?$AAC?$AAB?$AA?$AA@ 0000000180039ca0     libcpmt:winapinls.obj
 0002:00004cb0       ??_C@_1M@BGNFLDN@?$AAe?$AAs?$AA?9?$AAC?$AAO?$AA?$AA@ 0000000180039cb0     libcpmt:winapinls.obj
 0002:00004cc0       ??_C@_1O@JMPHMAMC@?$AAs?$AAm?$AAn?$AA?9?$AAF?$AAI?$AA?$AA@ 0000000180039cc0     libcpmt:winapinls.obj
 0002:00004cd0       ??_C@_1M@JLANABKE@?$AAa?$AAr?$AA?9?$AAS?$AAY?$AA?$AA@ 0000000180039cd0     libcpmt:winapinls.obj
 0002:00004ce0       ??_C@_1M@HPKGCFGN@?$AAe?$AAn?$AA?9?$AAB?$AAZ?$AA?$AA@ 0000000180039ce0     libcpmt:winapinls.obj
 0002:00004cf0       ??_C@_1M@OLJCMLGM@?$AAe?$AAs?$AA?9?$AAP?$AAE?$AA?$AA@ 0000000180039cf0     libcpmt:winapinls.obj
 0002:00004d00       ??_C@_1M@MKKGFKLE@?$AAa?$AAr?$AA?9?$AAJ?$AAO?$AA?$AA@ 0000000180039d00     libcpmt:winapinls.obj
 0002:00004d10       ??_C@_1M@EKPGLDNI@?$AAe?$AAn?$AA?9?$AAT?$AAT?$AA?$AA@ 0000000180039d10     libcpmt:winapinls.obj
 0002:00004d20       ??_C@_1M@OONGHFHE@?$AAe?$AAs?$AA?9?$AAA?$AAR?$AA?$AA@ 0000000180039d20     libcpmt:winapinls.obj
 0002:00004d30       ??_C@_1M@OOJFGBHE@?$AAa?$AAr?$AA?9?$AAL?$AAB?$AA?$AA@ 0000000180039d30     libcpmt:winapinls.obj
 0002:00004d40       ??_C@_1M@GCEJHNEG@?$AAe?$AAn?$AA?9?$AAZ?$AAW?$AA?$AA@ 0000000180039d40     libcpmt:winapinls.obj
 0002:00004d50       ??_C@_1M@JNOCAHJI@?$AAe?$AAs?$AA?9?$AAE?$AAC?$AA?$AA@ 0000000180039d50     libcpmt:winapinls.obj
 0002:00004d60       ??_C@_1M@JEFHPGGB@?$AAa?$AAr?$AA?9?$AAK?$AAW?$AA?$AA@ 0000000180039d60     libcpmt:winapinls.obj
 0002:00004d70       ??_C@_1M@MLKIBJOJ@?$AAe?$AAn?$AA?9?$AAP?$AAH?$AA?$AA@ 0000000180039d70     libcpmt:winapinls.obj
 0002:00004d80       ??_C@_1M@BDNIPEND@?$AAe?$AAs?$AA?9?$AAC?$AAL?$AA?$AA@ 0000000180039d80     libcpmt:winapinls.obj
 0002:00004d90       ??_C@_1M@MPNMEKBD@?$AAa?$AAr?$AA?9?$AAA?$AAE?$AA?$AA@ 0000000180039d90     libcpmt:winapinls.obj
 0002:00004da0       ??_C@_1M@KBJALCPI@?$AAe?$AAs?$AA?9?$AAU?$AAY?$AA?$AA@ 0000000180039da0     libcpmt:winapinls.obj
 0002:00004db0       ??_C@_1M@LLCCOAGA@?$AAa?$AAr?$AA?9?$AAB?$AAH?$AA?$AA@ 0000000180039db0     libcpmt:winapinls.obj
 0002:00004dc0       ??_C@_1M@PBFNCDEL@?$AAe?$AAs?$AA?9?$AAP?$AAY?$AA?$AA@ 0000000180039dc0     libcpmt:winapinls.obj
 0002:00004dd0       ??_C@_1M@EDGINPNP@?$AAa?$AAr?$AA?9?$AAQ?$AAA?$AA?$AA@ 0000000180039dd0     libcpmt:winapinls.obj
 0002:00004de0       ??_C@_1M@MKDBIIJI@?$AAe?$AAs?$AA?9?$AAB?$AAO?$AA?$AA@ 0000000180039de0     libcpmt:winapinls.obj
 0002:00004df0       ??_C@_1M@CPKKEBLD@?$AAe?$AAs?$AA?9?$AAS?$AAV?$AA?$AA@ 0000000180039df0     libcpmt:winapinls.obj
 0002:00004e00       ??_C@_1M@NDBGMMJL@?$AAe?$AAs?$AA?9?$AAH?$AAN?$AA?$AA@ 0000000180039e00     libcpmt:winapinls.obj
 0002:00004e10       ??_C@_1M@JIJIBHDP@?$AAe?$AAs?$AA?9?$AAN?$AAI?$AA?$AA@ 0000000180039e10     libcpmt:winapinls.obj
 0002:00004e20       ??_C@_1M@CGFMKEEK@?$AAe?$AAs?$AA?9?$AAP?$AAR?$AA?$AA@ 0000000180039e20     libcpmt:winapinls.obj
 0002:00004e30       ??_C@_1O@ICJHKIIK@?$AAz?$AAh?$AA?9?$AAC?$AAH?$AAT?$AA?$AA@ 0000000180039e30     libcpmt:winapinls.obj
 0002:00004e40       ??_C@_15CLNEJCE@?$AAs?$AAr?$AA?$AA@ 0000000180039e40     libcpmt:winapinls.obj
 0002:00004e48       ??_C@_1M@KAHEKEIG@?$AAa?$AAf?$AA?9?$AAz?$AAa?$AA?$AA@ 0000000180039e48     libcpmt:winapinls.obj
 0002:00004e58       ??_C@_1M@GIECOABL@?$AAa?$AAr?$AA?9?$AAa?$AAe?$AA?$AA@ 0000000180039e58     libcpmt:winapinls.obj
 0002:00004e68       ??_C@_1M@BMLMEKGI@?$AAa?$AAr?$AA?9?$AAb?$AAh?$AA?$AA@ 0000000180039e68     libcpmt:winapinls.obj
 0002:00004e78       ??_C@_1M@DAPFDGGB@?$AAa?$AAr?$AA?9?$AAd?$AAz?$AA?$AA@ 0000000180039e78     libcpmt:winapinls.obj
 0002:00004e88       ??_C@_1M@FJNKGKIG@?$AAa?$AAr?$AA?9?$AAe?$AAg?$AA?$AA@ 0000000180039e88     libcpmt:winapinls.obj
 0002:00004e98       ??_C@_1M@FLGKKCLO@?$AAa?$AAr?$AA?9?$AAi?$AAq?$AA?$AA@ 0000000180039e98     libcpmt:winapinls.obj
 0002:00004ea8       ??_C@_1M@GNDIPALM@?$AAa?$AAr?$AA?9?$AAj?$AAo?$AA?$AA@ 0000000180039ea8     libcpmt:winapinls.obj
 0002:00004eb8       ??_C@_1M@DDMJFMGJ@?$AAa?$AAr?$AA?9?$AAk?$AAw?$AA?$AA@ 0000000180039eb8     libcpmt:winapinls.obj
 0002:00004ec8       ??_C@_1M@EJALMLHM@?$AAa?$AAr?$AA?9?$AAl?$AAb?$AA?$AA@ 0000000180039ec8     libcpmt:winapinls.obj
 0002:00004ed8       ??_C@_1M@MOBDBLOC@?$AAa?$AAr?$AA?9?$AAl?$AAy?$AA?$AA@ 0000000180039ed8     libcpmt:winapinls.obj
 0002:00004ee8       ??_C@_1M@JAOCLHDH@?$AAa?$AAr?$AA?9?$AAm?$AAa?$AA?$AA@ 0000000180039ee8     libcpmt:winapinls.obj
 0002:00004ef8       ??_C@_1M@JHPMKJIE@?$AAa?$AAr?$AA?9?$AAo?$AAm?$AA?$AA@ 0000000180039ef8     libcpmt:winapinls.obj
 0002:00004f08       ??_C@_1M@OEPGHFNH@?$AAa?$AAr?$AA?9?$AAq?$AAa?$AA?$AA@ 0000000180039f08     libcpmt:winapinls.obj
 0002:00004f18       ??_C@_1M@KJDONENM@?$AAa?$AAr?$AA?9?$AAs?$AAa?$AA?$AA@ 0000000180039f18     libcpmt:winapinls.obj
 0002:00004f28       ??_C@_1M@DMJDKLKM@?$AAa?$AAr?$AA?9?$AAs?$AAy?$AA?$AA@ 0000000180039f28     libcpmt:winapinls.obj
 0002:00004f38       ??_C@_1M@OMFIPEDC@?$AAa?$AAr?$AA?9?$AAt?$AAn?$AA?$AA@ 0000000180039f38     libcpmt:winapinls.obj
 0002:00004f48       ??_C@_1M@IHMHGAON@?$AAa?$AAr?$AA?9?$AAy?$AAe?$AA?$AA@ 0000000180039f48     libcpmt:winapinls.obj
 0002:00004f58       ??_C@_1BG@KDCPGJGB@?$AAa?$AAz?$AA?9?$AAa?$AAz?$AA?9?$AAc?$AAy?$AAr?$AAl?$AA?$AA@ 0000000180039f58     libcpmt:winapinls.obj
 0002:00004f70       ??_C@_1BG@IBCKDDOE@?$AAa?$AAz?$AA?9?$AAa?$AAz?$AA?9?$AAl?$AAa?$AAt?$AAn?$AA?$AA@ 0000000180039f70     libcpmt:winapinls.obj
 0002:00004f88       ??_C@_1M@EGPFDCPD@?$AAb?$AAe?$AA?9?$AAb?$AAy?$AA?$AA@ 0000000180039f88     libcpmt:winapinls.obj
 0002:00004f98       ??_C@_1M@PCMGMCGC@?$AAb?$AAg?$AA?9?$AAb?$AAg?$AA?$AA@ 0000000180039f98     libcpmt:winapinls.obj
 0002:00004fa8       ??_C@_1M@BJBMFGOB@?$AAb?$AAn?$AA?9?$AAi?$AAn?$AA?$AA@ 0000000180039fa8     libcpmt:winapinls.obj
 0002:00004fb8       ??_C@_1BG@EAKMMACD@?$AAb?$AAs?$AA?9?$AAb?$AAa?$AA?9?$AAl?$AAa?$AAt?$AAn?$AA?$AA@ 0000000180039fb8     libcpmt:winapinls.obj
 0002:00004fd0       ??_C@_1M@KGADAODK@?$AAc?$AAa?$AA?9?$AAe?$AAs?$AA?$AA@ 0000000180039fd0     libcpmt:winapinls.obj
 0002:00004fe0       ??_C@_1M@COAJPDHI@?$AAc?$AAs?$AA?9?$AAc?$AAz?$AA?$AA@ 0000000180039fe0     libcpmt:winapinls.obj
 0002:00004ff0       ??_C@_1M@DHBHFONH@?$AAc?$AAy?$AA?9?$AAg?$AAb?$AA?$AA@ 0000000180039ff0     libcpmt:winapinls.obj
 0002:00005000       ??_C@_1M@IMGKELGA@?$AAd?$AAa?$AA?9?$AAd?$AAk?$AA?$AA@ 000000018003a000     libcpmt:winapinls.obj
 0002:00005010       ??_C@_1M@NNDGDNGA@?$AAd?$AAe?$AA?9?$AAa?$AAt?$AA?$AA@ 000000018003a010     libcpmt:winapinls.obj
 0002:00005020       ??_C@_1M@IKDBHEEM@?$AAd?$AAe?$AA?9?$AAc?$AAh?$AA?$AA@ 000000018003a020     libcpmt:winapinls.obj
 0002:00005030       ??_C@_1M@GFFOJMCJ@?$AAd?$AAe?$AA?9?$AAd?$AAe?$AA?$AA@ 000000018003a030     libcpmt:winapinls.obj
 0002:00005040       ??_C@_1M@MDNLKBPM@?$AAd?$AAe?$AA?9?$AAl?$AAi?$AA?$AA@ 000000018003a040     libcpmt:winapinls.obj
 0002:00005050       ??_C@_1M@NJBEEJNL@?$AAd?$AAe?$AA?9?$AAl?$AAu?$AA?$AA@ 000000018003a050     libcpmt:winapinls.obj
 0002:00005060       ??_C@_1O@GNNELBAP@?$AAd?$AAi?$AAv?$AA?9?$AAm?$AAv?$AA?$AA@ 000000018003a060     libcpmt:winapinls.obj
 0002:00005070       ??_C@_1M@EJLEOGAE@?$AAe?$AAl?$AA?9?$AAg?$AAr?$AA?$AA@ 000000018003a070     libcpmt:winapinls.obj
 0002:00005080       ??_C@_1M@GMPONJN@?$AAe?$AAn?$AA?9?$AAa?$AAu?$AA?$AA@ 000000018003a080     libcpmt:winapinls.obj
 0002:00005090       ??_C@_1M@NIDIIPGF@?$AAe?$AAn?$AA?9?$AAb?$AAz?$AA?$AA@ 000000018003a090     libcpmt:winapinls.obj
 0002:000050a0       ??_C@_1M@JEHMIMFO@?$AAe?$AAn?$AA?9?$AAc?$AAa?$AA?$AA@ 000000018003a0a0     libcpmt:winapinls.obj
 0002:000050b0       ??_C@_1M@IGMJCDLA@?$AAe?$AAn?$AA?9?$AAc?$AAb?$AA?$AA@ 000000018003a0b0     libcpmt:winapinls.obj
 0002:000050c0       ??_C@_1M@BNFIGBKG@?$AAe?$AAn?$AA?9?$AAg?$AAb?$AA?$AA@ 000000018003a0c0     libcpmt:winapinls.obj
 0002:000050d0       ??_C@_1M@LKIFDIGP@?$AAe?$AAn?$AA?9?$AAi?$AAe?$AA?$AA@ 000000018003a0d0     libcpmt:winapinls.obj
 0002:000050e0       ??_C@_1M@PJKFGCCO@?$AAe?$AAn?$AA?9?$AAj?$AAm?$AA?$AA@ 000000018003a0e0     libcpmt:winapinls.obj
 0002:000050f0       ??_C@_1M@KPPKEPBO@?$AAe?$AAn?$AA?9?$AAn?$AAz?$AA?$AA@ 000000018003a0f0     libcpmt:winapinls.obj
 0002:00005100       ??_C@_1M@GMDGLDOB@?$AAe?$AAn?$AA?9?$AAp?$AAh?$AA?$AA@ 000000018003a100     libcpmt:winapinls.obj
 0002:00005110       ??_C@_1M@ONGIBJNA@?$AAe?$AAn?$AA?9?$AAt?$AAt?$AA?$AA@ 000000018003a110     libcpmt:winapinls.obj
 0002:00005120       ??_C@_1M@LLODPCMM@?$AAe?$AAn?$AA?9?$AAu?$AAs?$AA?$AA@ 000000018003a120     libcpmt:winapinls.obj
 0002:00005130       ??_C@_1M@LAKFNPAN@?$AAe?$AAn?$AA?9?$AAz?$AAa?$AA?$AA@ 000000018003a130     libcpmt:winapinls.obj
 0002:00005140       ??_C@_1M@MFNHNHEO@?$AAe?$AAn?$AA?9?$AAz?$AAw?$AA?$AA@ 000000018003a140     libcpmt:winapinls.obj
 0002:00005150       ??_C@_1M@EJEINPHM@?$AAe?$AAs?$AA?9?$AAa?$AAr?$AA?$AA@ 000000018003a150     libcpmt:winapinls.obj
 0002:00005160       ??_C@_1M@GNKPCCJA@?$AAe?$AAs?$AA?9?$AAb?$AAo?$AA?$AA@ 000000018003a160     libcpmt:winapinls.obj
 0002:00005170       ??_C@_1M@LEEGFONL@?$AAe?$AAs?$AA?9?$AAc?$AAl?$AA?$AA@ 000000018003a170     libcpmt:winapinls.obj
 0002:00005180       ??_C@_1M@KGPDPBDF@?$AAe?$AAs?$AA?9?$AAc?$AAo?$AA?$AA@ 000000018003a180     libcpmt:winapinls.obj
 0002:00005190       ??_C@_1M@EIAHOHH@?$AAe?$AAs?$AA?9?$AAc?$AAr?$AA?$AA@ 000000018003a190     libcpmt:winapinls.obj
 0002:000051a0       ??_C@_1M@LLPGMBIN@?$AAe?$AAs?$AA?9?$AAd?$AAo?$AA?$AA@ 000000018003a1a0     libcpmt:winapinls.obj
 0002:000051b0       ??_C@_1M@DKHMKNJA@?$AAe?$AAs?$AA?9?$AAe?$AAc?$AA?$AA@ 000000018003a1b0     libcpmt:winapinls.obj
 0002:000051c0       ??_C@_1M@GKGFPKAP@?$AAe?$AAs?$AA?9?$AAe?$AAs?$AA?$AA@ 000000018003a1c0     libcpmt:winapinls.obj
 0002:000051d0       ??_C@_1M@LKHKGDLN@?$AAe?$AAs?$AA?9?$AAg?$AAt?$AA?$AA@ 000000018003a1d0     libcpmt:winapinls.obj
 0002:000051e0       ??_C@_1M@HEIIGGJD@?$AAe?$AAs?$AA?9?$AAh?$AAn?$AA?$AA@ 000000018003a1e0     libcpmt:winapinls.obj
 0002:000051f0       ??_C@_1M@FBDHPPGD@?$AAe?$AAs?$AA?9?$AAm?$AAx?$AA?$AA@ 000000018003a1f0     libcpmt:winapinls.obj
 0002:00005200       ??_C@_1M@DPAGLNDH@?$AAe?$AAs?$AA?9?$AAn?$AAi?$AA?$AA@ 000000018003a200     libcpmt:winapinls.obj
 0002:00005210       ??_C@_1M@MDGOPGDD@?$AAe?$AAs?$AA?9?$AAp?$AAa?$AA?$AA@ 000000018003a210     libcpmt:winapinls.obj
 0002:00005220       ??_C@_1M@EMAMGBGE@?$AAe?$AAs?$AA?9?$AAp?$AAe?$AA?$AA@ 000000018003a220     libcpmt:winapinls.obj
 0002:00005230       ??_C@_1M@IBMCAOEC@?$AAe?$AAs?$AA?9?$AAp?$AAr?$AA?$AA@ 000000018003a230     libcpmt:winapinls.obj
 0002:00005240       ??_C@_1M@FGMDIJED@?$AAe?$AAs?$AA?9?$AAp?$AAy?$AA?$AA@ 000000018003a240     libcpmt:winapinls.obj
 0002:00005250       ??_C@_1M@IIDEOLLL@?$AAe?$AAs?$AA?9?$AAs?$AAv?$AA?$AA@ 000000018003a250     libcpmt:winapinls.obj
 0002:00005260       ??_C@_1M@GAOBIPA@?$AAe?$AAs?$AA?9?$AAu?$AAy?$AA?$AA@ 000000018003a260     libcpmt:winapinls.obj
 0002:00005270       ??_C@_1M@JKFFICHJ@?$AAe?$AAs?$AA?9?$AAv?$AAe?$AA?$AA@ 000000018003a270     libcpmt:winapinls.obj
 0002:00005280       GUID_ATLVer110             000000018003a280     atls:atlbase.obj
 0002:00005290       ??_C@_1IC@ONKHOIDK@?$AAE?$AAR?$AAR?$AAO?$AAR?$AA?5?$AA?3?$AA?5?$AAU?$AAn?$AAa?$AAb?$AAl?$AAe?$AA?5?$AAt?$AAo?$AA?5?$AAi?$AAn?$AAi?$AAt?$AAi?$AAa?$AAl?$AAi?$AAz?$AAe?$AA?5?$AAc?$AAr?$AAi@ 000000018003a290     atls:atlbase.obj
 0002:00005318       ImageFormatTIFF            000000018003a318     GdiPlus:imagingguds.obj
 0002:00005328       ImageFormatPNG             000000018003a328     GdiPlus:imagingguds.obj
 0002:00005338       EncoderQuality             000000018003a338     GdiPlus:imagingguds.obj
 0002:00005348       ImageFormatBMP             000000018003a348     GdiPlus:imagingguds.obj
 0002:00005358       ImageFormatJPEG            000000018003a358     GdiPlus:imagingguds.obj
 0002:00005368       ImageFormatGIF             000000018003a368     GdiPlus:imagingguds.obj
 0002:00005378       _pRawDllMain               000000018003a378     LIBCMT:dll_dllmain.obj
 0002:00005378       _pDefaultRawDllMain        000000018003a378     LIBCMT:dll_dllmain.obj
 0002:00005388       ??_7type_info@@6B@         000000018003a388     LIBCMT:std_type_info_static.obj
 0002:000053a8       ??_7bad_array_new_length@std@@6B@ 000000018003a3a8     LIBCMT:throw_bad_alloc.obj
 0002:000053b8       ??_C@_0BF@KINCDENJ@bad?5array?5new?5length?$AA@ 000000018003a3b8     LIBCMT:throw_bad_alloc.obj
 0002:000053d0       _pDestructExceptionObject  000000018003a3d0     libvcruntime:frame.obj
 0002:000053e0       ??_7bad_exception@std@@6B@ 000000018003a3e0     libvcruntime:frame.obj
 0002:000053f0       ??_C@_0O@DPKOEFFH@bad?5exception?$AA@ 000000018003a3f0     libvcruntime:frame.obj
 0002:000054f8       ??_C@_1BC@DNHGCMLG@?$AAa?$AAd?$AAv?$AAa?$AAp?$AAi?$AA3?$AA2?$AA?$AA@ 000000018003a4f8     libvcruntime:winapi_downlevel.obj
 0002:00005510       ??_C@_1DM@KHCHBNEB@?$AAa?$AAp?$AAi?$AA?9?$AAm?$AAs?$AA?9?$AAw?$AAi?$AAn?$AA?9?$AAc?$AAo?$AAr?$AAe?$AA?9?$AAf?$AAi?$AAb?$AAe?$AAr?$AAs?$AA?9?$AAl?$AA1?$AA?9?$AA1?$AA?9?$AA1?$AA?$AA@ 000000018003a510     libvcruntime:winapi_downlevel.obj
 0002:00005550       ??_C@_1DK@LPPGFMPP@?$AAa?$AAp?$AAi?$AA?9?$AAm?$AAs?$AA?9?$AAw?$AAi?$AAn?$AA?9?$AAc?$AAo?$AAr?$AAe?$AA?9?$AAs?$AAy?$AAn?$AAc?$AAh?$AA?9?$AAl?$AA1?$AA?9?$AA2?$AA?9?$AA0?$AA?$AA@ 000000018003a550     libvcruntime:winapi_downlevel.obj
 0002:00005590       ??_C@_1BC@GDMECMAK@?$AAk?$AAe?$AAr?$AAn?$AAe?$AAl?$AA3?$AA2?$AA?$AA@ 000000018003a590     libvcruntime:winapi_downlevel.obj
 0002:000055a8       ??_C@_0O@BAMBGLIE@EventRegister?$AA@ 000000018003a5a8     libvcruntime:winapi_downlevel.obj
 0002:000055c0       ??_C@_0BE@BJEEGHGK@EventSetInformation?$AA@ 000000018003a5c0     libvcruntime:winapi_downlevel.obj
 0002:000055d8       ??_C@_0BA@FAKLIPIC@EventUnregister?$AA@ 000000018003a5d8     libvcruntime:winapi_downlevel.obj
 0002:000055f0       ??_C@_0BD@PKLHJPHD@EventWriteTransfer?$AA@ 000000018003a5f0     libvcruntime:winapi_downlevel.obj
 0002:00005630       _Microsoft_CRTProvider     000000018003a630     libvcruntime:telemetry.obj
 0002:00005638       ??_C@_0O@JEOPJOMI@Main?5Invoked?4?$AA@ 000000018003a638     libvcruntime:telemetry.obj
 0002:00005648       ??_C@_0P@NEAEIBDO@Main?5Returned?4?$AA@ 000000018003a648     libvcruntime:telemetry.obj
 0002:00005980       ??_C@_08EHJDFFNH@__based?$CI?$AA@ 000000018003a980     libvcruntime:undname.obj
 0002:00005990       ??_C@_07KOLFKCDI@__cdecl?$AA@ 000000018003a990     libvcruntime:undname.obj
 0002:00005998       ??_C@_08GHMPAG@__pascal?$AA@ 000000018003a998     libvcruntime:undname.obj
 0002:000059a8       ??_C@_09IFJBGAPI@__stdcall?$AA@ 000000018003a9a8     libvcruntime:undname.obj
 0002:000059b8       ??_C@_0L@NPHFGOKO@__thiscall?$AA@ 000000018003a9b8     libvcruntime:undname.obj
 0002:000059c8       ??_C@_0L@JMKHOMEK@__fastcall?$AA@ 000000018003a9c8     libvcruntime:undname.obj
 0002:000059d8       ??_C@_0N@BCKKPABJ@__vectorcall?$AA@ 000000018003a9d8     libvcruntime:undname.obj
 0002:000059e8       ??_C@_09HIJEGCPM@__clrcall?$AA@ 000000018003a9e8     libvcruntime:undname.obj
 0002:000059f4       ??_C@_06GHPCKEAG@__eabi?$AA@ 000000018003a9f4     libvcruntime:undname.obj
 0002:00005a00       ??_C@_07JOMMBBKO@__ptr64?$AA@ 000000018003aa00     libvcruntime:undname.obj
 0002:00005a08       ??_C@_0L@PILCLIHE@__restrict?$AA@ 000000018003aa08     libvcruntime:undname.obj
 0002:00005a18       ??_C@_0M@GFIIJFMG@__unaligned?$AA@ 000000018003aa18     libvcruntime:undname.obj
 0002:00005a28       ??_C@_09DHDLOLLB@restrict?$CI?$AA@ 000000018003aa28     libvcruntime:undname.obj
 0002:00005a34       ??_C@_04NIHEBCM@?5new?$AA@ 000000018003aa34     libvcruntime:undname.obj
 0002:00005a40       ??_C@_07FPCDHGMM@?5delete?$AA@ 000000018003aa40     libvcruntime:undname.obj
 0002:00005a48       ??_C@_01NEMOKFLO@?$DN?$AA@ 000000018003aa48     libvcruntime:undname.obj
 0002:00005a4c       ??_C@_02GPIOPFAK@?$DO?$DO?$AA@ 000000018003aa4c     libvcruntime:undname.obj
 0002:00005a50       ??_C@_02FODMEDOG@?$DM?$DM?$AA@ 000000018003aa50     libvcruntime:undname.obj
 0002:00005a54       ??_C@_01DCLJPIOD@?$CB?$AA@ 000000018003aa54     libvcruntime:undname.obj
 0002:00005a58       ??_C@_02EGOFBIJA@?$DN?$DN?$AA@ 000000018003aa58     libvcruntime:undname.obj
 0002:00005a5c       ??_C@_02FDNJECIE@?$CB?$DN?$AA@ 000000018003aa5c     libvcruntime:undname.obj
 0002:00005a60       ??_C@_02GPECMEKF@?$FL?$FN?$AA@ 000000018003aa60     libvcruntime:undname.obj
 0002:00005a68       ??_C@_08LHJFAFGD@operator?$AA@ 000000018003aa68     libvcruntime:undname.obj
 0002:00005a74       ??_C@_02HBOOOICD@?9?$DO?$AA@ 000000018003aa74     libvcruntime:undname.obj
 0002:00005a78       ??_C@_02ECNGHCIF@?$CL?$CL?$AA@ 000000018003aa78     libvcruntime:undname.obj
 0002:00005a7c       ??_C@_02BAABKJLB@?9?9?$AA@ 000000018003aa7c     libvcruntime:undname.obj
 0002:00005a80       ??_C@_01MIFGBAGJ@?$CL?$AA@ 000000018003aa80     libvcruntime:undname.obj
 0002:00005a84       ??_C@_01HNPIGOCE@?$CG?$AA@ 000000018003aa84     libvcruntime:undname.obj
 0002:00005a88       ??_C@_03MNHNFDLC@?9?$DO?$CK?$AA@ 000000018003aa88     libvcruntime:undname.obj
 0002:00005a8c       ??_C@_01KMDKNFGN@?1?$AA@   000000018003aa8c     libvcruntime:undname.obj
 0002:00005a90       ??_C@_01FGNFDNOH@?$CF?$AA@ 000000018003aa90     libvcruntime:undname.obj
 0002:00005a94       ??_C@_01MNNFJEPP@?$DM?$AA@ 000000018003aa94     libvcruntime:undname.obj
 0002:00005a98       ??_C@_02EHCHHCKH@?$DM?$DN?$AA@ 000000018003aa98     libvcruntime:undname.obj
 0002:00005a9c       ??_C@_01PPODPGHN@?$DO?$AA@ 000000018003aa9c     libvcruntime:undname.obj
 0002:00005aa0       ??_C@_02EEKDKGMJ@?$DO?$DN?$AA@ 000000018003aaa0     libvcruntime:undname.obj
 0002:00005aa4       ??_C@_01IHBHIGKO@?0?$AA@   000000018003aaa4     libvcruntime:undname.obj
 0002:00005aa8       ??_C@_02HCKGKOFO@?$CI?$CJ?$AA@ 000000018003aaa8     libvcruntime:undname.obj
 0002:00005aac       ??_C@_01PJKLJHI@?$HO?$AA@  000000018003aaac     libvcruntime:undname.obj
 0002:00005ab0       ??_C@_01JKBOJNNK@?$FO?$AA@ 000000018003aab0     libvcruntime:undname.obj
 0002:00005ab4       ??_C@_01DNKMNLPK@?$HM?$AA@ 000000018003aab4     libvcruntime:undname.obj
 0002:00005ab8       ??_C@_02PPKAJPJL@?$CG?$CG?$AA@ 000000018003aab8     libvcruntime:undname.obj
 0002:00005abc       ??_C@_02NONPIBCD@?$HM?$HM?$AA@ 000000018003aabc     libvcruntime:undname.obj
 0002:00005ac0       ??_C@_02FPIMKNGF@?$CK?$DN?$AA@ 000000018003aac0     libvcruntime:undname.obj
 0002:00005ac4       ??_C@_02FOEOMHFC@?$CL?$DN?$AA@ 000000018003aac4     libvcruntime:undname.obj
 0002:00005ac8       ??_C@_02FKMDLLOA@?9?$DN?$AA@ 000000018003aac8     libvcruntime:undname.obj
 0002:00005acc       ??_C@_02FJEHGPIO@?1?$DN?$AA@ 000000018003aacc     libvcruntime:undname.obj
 0002:00005ad0       ??_C@_02FENAOKFI@?$CF?$DN?$AA@ 000000018003aad0     libvcruntime:undname.obj
 0002:00005ad4       ??_C@_03IKFCCPFF@?$DO?$DO?$DN?$AA@ 000000018003aad4     libvcruntime:undname.obj
 0002:00005ad8       ??_C@_03CDNPDDLA@?$DM?$DM?$DN?$AA@ 000000018003aad8     libvcruntime:undname.obj
 0002:00005adc       ??_C@_02FGJGFEAB@?$CG?$DN?$AA@ 000000018003aadc     libvcruntime:undname.obj
 0002:00005ae0       ??_C@_02DHLNPPGH@?$HM?$DN?$AA@ 000000018003aae0     libvcruntime:undname.obj
 0002:00005ae4       ??_C@_02MHEGNOJ@?$FO?$DN?$AA@ 000000018003aae4     libvcruntime:undname.obj
 0002:00005ae8       ??_C@_09IFPLHPGF@?$GAvftable?8?$AA@ 000000018003aae8     libvcruntime:undname.obj
 0002:00005af8       ??_C@_09BLBHBJP@?$GAvbtable?8?$AA@ 000000018003aaf8     libvcruntime:undname.obj
 0002:00005b08       ??_C@_07FEEIOKP@?$GAvcall?8?$AA@ 000000018003ab08     libvcruntime:undname.obj
 0002:00005b10       ??_C@_08LLFFHHDJ@?$GAtypeof?8?$AA@ 000000018003ab10     libvcruntime:undname.obj
 0002:00005b20       ??_C@_0BF@KDPPACIK@?$GAlocal?5static?5guard?8?$AA@ 000000018003ab20     libvcruntime:undname.obj
 0002:00005b38       ??_C@_08OBABFOLI@?$GAstring?8?$AA@ 000000018003ab38     libvcruntime:undname.obj
 0002:00005b48       ??_C@_0BD@JDLKDPAB@?$GAvbase?5destructor?8?$AA@ 000000018003ab48     libvcruntime:undname.obj
 0002:00005b60       ??_C@_0BN@DEGPLNFK@?$GAvector?5deleting?5destructor?8?$AA@ 000000018003ab60     libvcruntime:undname.obj
 0002:00005b80       ??_C@_0BO@OBMKPJIG@?$GAdefault?5constructor?5closure?8?$AA@ 000000018003ab80     libvcruntime:undname.obj
 0002:00005ba0       ??_C@_0BN@IMDCHIKM@?$GAscalar?5deleting?5destructor?8?$AA@ 000000018003aba0     libvcruntime:undname.obj
 0002:00005bc0       ??_C@_0BO@PFGOCPJJ@?$GAvector?5constructor?5iterator?8?$AA@ 000000018003abc0     libvcruntime:undname.obj
 0002:00005be0       ??_C@_0BN@LFPFMEDL@?$GAvector?5destructor?5iterator?8?$AA@ 000000018003abe0     libvcruntime:undname.obj
 0002:00005c00       ??_C@_0CE@IKBNEHA@?$GAvector?5vbase?5constructor?5iterat@ 000000018003ac00     libvcruntime:undname.obj
 0002:00005c28       ??_C@_0BL@NILFHHPC@?$GAvirtual?5displacement?5map?8?$AA@ 000000018003ac28     libvcruntime:undname.obj
 0002:00005c48       ??_C@_0CB@JONCMFFK@?$GAeh?5vector?5constructor?5iterator?8@ 000000018003ac48     libvcruntime:undname.obj
 0002:00005c70       ??_C@_0CA@GCEOPDGL@?$GAeh?5vector?5destructor?5iterator?8?$AA@ 000000018003ac70     libvcruntime:undname.obj
 0002:00005c90       ??_C@_0CH@OOJPLCPH@?$GAeh?5vector?5vbase?5constructor?5ite@ 000000018003ac90     libvcruntime:undname.obj
 0002:00005cb8       ??_C@_0BL@LLKPOHJI@?$GAcopy?5constructor?5closure?8?$AA@ 000000018003acb8     libvcruntime:undname.obj
 0002:00005cd8       ??_C@_0BA@KBCDOMBN@?$GAudt?5returning?8?$AA@ 000000018003acd8     libvcruntime:undname.obj
 0002:00005ce8       ??_C@_03KLGMFNMG@?$GAEH?$AA@ 000000018003ace8     libvcruntime:undname.obj
 0002:00005cec       ??_C@_05KHLCHHI@?$GARTTI?$AA@ 000000018003acec     libvcruntime:undname.obj
 0002:00005cf8       ??_C@_0BA@KKLDJDLB@?$GAlocal?5vftable?8?$AA@ 000000018003acf8     libvcruntime:undname.obj
 0002:00005d08       ??_C@_0CE@IIHCMGGL@?$GAlocal?5vftable?5constructor?5closu@ 000000018003ad08     libvcruntime:undname.obj
 0002:00005d2c       ??_C@_06FHBGPFGH@?5new?$FL?$FN?$AA@ 000000018003ad2c     libvcruntime:undname.obj
 0002:00005d38       ??_C@_09LBNFPBCA@?5delete?$FL?$FN?$AA@ 000000018003ad38     libvcruntime:undname.obj
 0002:00005d48       ??_C@_0P@HJKNJFNN@?$GAomni?5callsig?8?$AA@ 000000018003ad48     libvcruntime:undname.obj
 0002:00005d58       ??_C@_0BL@CNOONJFP@?$GAplacement?5delete?5closure?8?$AA@ 000000018003ad58     libvcruntime:undname.obj
 0002:00005d78       ??_C@_0BN@CKNJLHMB@?$GAplacement?5delete?$FL?$FN?5closure?8?$AA@ 000000018003ad78     libvcruntime:undname.obj
 0002:00005d98       ??_C@_0CG@CFDHKGGD@?$GAmanaged?5vector?5constructor?5iter@ 000000018003ad98     libvcruntime:undname.obj
 0002:00005dc0       ??_C@_0CF@IMGKMJNO@?$GAmanaged?5vector?5destructor?5itera@ 000000018003adc0     libvcruntime:undname.obj
 0002:00005de8       ??_C@_0CG@HLDDJMAG@?$GAeh?5vector?5copy?5constructor?5iter@ 000000018003ade8     libvcruntime:undname.obj
 0002:00005e10       ??_C@_0CM@FCBBDIGB@?$GAeh?5vector?5vbase?5copy?5constructo@ 000000018003ae10     libvcruntime:undname.obj
 0002:00005e40       ??_C@_0BL@CLIPGLGB@?$GAdynamic?5initializer?5for?5?8?$AA@ 000000018003ae40     libvcruntime:undname.obj
 0002:00005e60       ??_C@_0CB@PDBIFEP@?$GAdynamic?5atexit?5destructor?5for?5?8@ 000000018003ae60     libvcruntime:undname.obj
 0002:00005e88       ??_C@_0CD@CGAJBKEJ@?$GAvector?5copy?5constructor?5iterato@ 000000018003ae88     libvcruntime:undname.obj
 0002:00005eb0       ??_C@_0CJ@GJELGAMM@?$GAvector?5vbase?5copy?5constructor?5i@ 000000018003aeb0     libvcruntime:undname.obj
 0002:00005ee0       ??_C@_0CL@FGIJHLCE@?$GAmanaged?5vector?5copy?5constructor@ 000000018003aee0     libvcruntime:undname.obj
 0002:00005f10       ??_C@_0BM@PMGGMLDN@?$GAlocal?5static?5thread?5guard?8?$AA@ 000000018003af10     libvcruntime:undname.obj
 0002:00005f30       ??_C@_0N@BDNMDMOL@operator?5?$CC?$CC?5?$AA@ 000000018003af30     libvcruntime:undname.obj
 0002:00005f40       ??_C@_0BC@DAFEJGAK@?5Type?5Descriptor?8?$AA@ 000000018003af40     libvcruntime:undname.obj
 0002:00005f58       ??_C@_0BM@LDKODKLH@?5Base?5Class?5Descriptor?5at?5?$CI?$AA@ 000000018003af58     libvcruntime:undname.obj
 0002:00005f78       ??_C@_0BD@LGICGFMM@?5Base?5Class?5Array?8?$AA@ 000000018003af78     libvcruntime:undname.obj
 0002:00005f90       ??_C@_0BN@MECKDCOJ@?5Class?5Hierarchy?5Descriptor?8?$AA@ 000000018003af90     libvcruntime:undname.obj
 0002:00005fb0       ??_C@_0BK@CFCOFLF@?5Complete?5Object?5Locator?8?$AA@ 000000018003afb0     libvcruntime:undname.obj
 0002:00005fd0       standard_lookup_table      000000018003afd0     libucrt:output.obj
 0002:0000602c       ??_C@_06OJHGLDPL@?$CInull?$CJ?$AA@ 000000018003b02c     libucrt:output.obj
 0002:00006038       ??_C@_1O@CEDCILHN@?$AA?$CI?$AAn?$AAu?$AAl?$AAl?$AA?$CJ?$AA?$AA@ 000000018003b038     libucrt:output.obj
 0002:00006050       ??_C@_1EK@MBDPDCGA@?$AAM?$AAi?$AAc?$AAr?$AAo?$AAs?$AAo?$AAf?$AAt?$AA?5?$AAV?$AAi?$AAs?$AAu?$AAa?$AAl?$AA?5?$AAC?$AA?$CL?$AA?$CL?$AA?5?$AAR?$AAu?$AAn?$AAt?$AAi?$AAm?$AAe?$AA?5?$AAL?$AAi?$AAb@ 000000018003b050     libucrt:assert.obj
 0002:000060a0       ??_C@_1FE@LHBLIKM@?$AAA?$AAs?$AAs?$AAe?$AAr?$AAt?$AAi?$AAo?$AAn?$AA?5?$AAf?$AAa?$AAi?$AAl?$AAe?$AAd?$AA?3?$AA?5?$AA?$CF?$AAT?$AAs?$AA?0?$AA?5?$AAf?$AAi?$AAl?$AAe?$AA?5?$AA?$CF?$AAT?$AAs?$AA?0@ 000000018003b0a0     libucrt:assert.obj
 0002:000060f8       ??_C@_1CE@OJBNHDMO@?$AAA?$AAs?$AAs?$AAe?$AAr?$AAt?$AAi?$AAo?$AAn?$AA?5?$AAf?$AAa?$AAi?$AAl?$AAe?$AAd?$AA?$CB?$AA?$AA@ 000000018003b0f8     libucrt:assert.obj
 0002:00006120       ??_C@_1BE@PHKBBGE@?$AAP?$AAr?$AAo?$AAg?$AAr?$AAa?$AAm?$AA?3?$AA?5?$AA?$AA@ 000000018003b120     libucrt:assert.obj
 0002:00006138       ??_C@_1O@HEMHKNDC@?$AAF?$AAi?$AAl?$AAe?$AA?3?$AA?5?$AA?$AA@ 000000018003b138     libucrt:assert.obj
 0002:00006148       ??_C@_1O@KCAFKHJE@?$AAL?$AAi?$AAn?$AAe?$AA?3?$AA?5?$AA?$AA@ 000000018003b148     libucrt:assert.obj
 0002:00006158       ??_C@_1BK@PEDCIPMA@?$AAE?$AAx?$AAp?$AAr?$AAe?$AAs?$AAs?$AAi?$AAo?$AAn?$AA?3?$AA?5?$AA?$AA@ 000000018003b158     libucrt:assert.obj
 0002:00006180       ??_C@_1OA@EGMLFBHJ@?$AAF?$AAo?$AAr?$AA?5?$AAi?$AAn?$AAf?$AAo?$AAr?$AAm?$AAa?$AAt?$AAi?$AAo?$AAn?$AA?5?$AAo?$AAn?$AA?5?$AAh?$AAo?$AAw?$AA?5?$AAy?$AAo?$AAu?$AAr?$AA?5?$AAp?$AAr?$AAo?$AAg@ 000000018003b180     libucrt:assert.obj
 0002:00006260       ??_C@_1HK@POCJMFGK@?$AA?$CI?$AAP?$AAr?$AAe?$AAs?$AAs?$AA?5?$AAR?$AAe?$AAt?$AAr?$AAy?$AA?5?$AAt?$AAo?$AA?5?$AAd?$AAe?$AAb?$AAu?$AAg?$AA?5?$AAt?$AAh?$AAe?$AA?5?$AAa?$AAp?$AAp?$AAl?$AAi?$AAc@ 000000018003b260     libucrt:assert.obj
 0002:000062e0       ??_C@_17LGKOMLJ@?$AA?4?$AA?4?$AA?4?$AA?$AA@ 000000018003b2e0     libucrt:assert.obj
 0002:000062e8       ??_C@_13LBAGMAIH@?$AA?6?$AA?$AA@ 000000018003b2e8     libucrt:assert.obj
 0002:000062ec       ??_C@_15IABLJNFO@?$AA?6?$AA?6?$AA?$AA@ 000000018003b2ec     libucrt:assert.obj
 0002:000062f8       ??_C@_1CO@EAEJAADC@?$AA?$DM?$AAp?$AAr?$AAo?$AAg?$AAr?$AAa?$AAm?$AA?5?$AAn?$AAa?$AAm?$AAe?$AA?5?$AAu?$AAn?$AAk?$AAn?$AAo?$AAw?$AAn?$AA?$DO?$AA?$AA@ 000000018003b2f8     libucrt:assert.obj
 0002:000064a0       __newctype                 000000018003b4a0     libucrt:ctype.obj
 0002:000067a0       __newclmap                 000000018003b7a0     libucrt:ctype.obj
 0002:00006920       __newcumap                 000000018003b920     libucrt:ctype.obj
 0002:00006aa0       _wctype                    000000018003baa0     libucrt:ctype.obj
 0002:00006cb0       ?large_power_data@?1??multiply_by_power_of_ten@__crt_strtox@@YA_NAEAUbig_integer@2@I@Z@4QBIB 000000018003bcb0     libucrt:strtod.obj
 0002:000075c0       ?large_power_indices@?1??multiply_by_power_of_ten@__crt_strtox@@YA_NAEAUbig_integer@2@I@Z@4QBUunpack_index@?1??12@YA_N0I@Z@B 000000018003c5c0     libucrt:strtod.obj
 0002:00007658       ?small_powers_of_ten@?6??multiply_by_power_of_ten@__crt_strtox@@YA_NAEAUbig_integer@2@I@Z@4QBIB 000000018003c658     libucrt:strtod.obj
 0002:00009330       __acrt_exception_action_table 000000018003e330     libucrt:exception_filter.obj
 0002:000093f0       __acrt_signal_action_table_count 000000018003e3f0     libucrt:exception_filter.obj
 0002:000093f8       __acrt_signal_action_first_fpe_index 000000018003e3f8     libucrt:exception_filter.obj
 0002:00009400       __acrt_signal_action_fpe_count 000000018003e400     libucrt:exception_filter.obj
 0002:00009408       ??_C@_1BI@BGOHAHKC@?$AAm?$AAs?$AAc?$AAo?$AAr?$AAe?$AAe?$AA?4?$AAd?$AAl?$AAl?$AA?$AA@ 000000018003e408     libucrt:exit.obj
 0002:00009420       ??_C@_0P@MIGLKIOC@CorExitProcess?$AA@ 000000018003e420     libucrt:exit.obj
 0002:00009520       __lc_category              000000018003e520     libucrt:wsetlocale.obj
 0002:000095b0       ??_C@_1O@GIFLHMA@?$AAL?$AAC?$AA_?$AAA?$AAL?$AAL?$AA?$AA@ 000000018003e5b0     libucrt:wsetlocale.obj
 0002:000095c0       ??_C@_1BG@PPOMIBNJ@?$AAL?$AAC?$AA_?$AAC?$AAO?$AAL?$AAL?$AAA?$AAT?$AAE?$AA?$AA@ 000000018003e5c0     libucrt:wsetlocale.obj
 0002:000095d8       ??_C@_1BC@FFJGAPJM@?$AAL?$AAC?$AA_?$AAC?$AAT?$AAY?$AAP?$AAE?$AA?$AA@ 000000018003e5d8     libucrt:wsetlocale.obj
 0002:000095f0       ??_C@_1BI@PCKFNJFB@?$AAL?$AAC?$AA_?$AAM?$AAO?$AAN?$AAE?$AAT?$AAA?$AAR?$AAY?$AA?$AA@ 000000018003e5f0     libucrt:wsetlocale.obj
 0002:00009608       ??_C@_1BG@ENIEDKID@?$AAL?$AAC?$AA_?$AAN?$AAU?$AAM?$AAE?$AAR?$AAI?$AAC?$AA?$AA@ 000000018003e608     libucrt:wsetlocale.obj
 0002:00009620       ??_C@_1BA@HAAOMIIG@?$AAL?$AAC?$AA_?$AAT?$AAI?$AAM?$AAE?$AA?$AA@ 000000018003e620     libucrt:wsetlocale.obj
 0002:000096b0       ??_C@_15NBPDDFIP@?$AA?$DN?$AA?$DL?$AA?$AA@ 000000018003e6b0     libucrt:wsetlocale.obj
 0002:000096b8       ??_C@_13PJJBFPED@?$AA?$DL?$AA?$AA@ 000000018003e6b8     libucrt:wsetlocale.obj
 0002:000096bc       ??_C@_13NMPKAAJP@?$AA?$DN?$AA?$AA@ 000000018003e6bc     libucrt:wsetlocale.obj
 0002:000096c0       ??_C@_13FHBKNHDA@?$AAC?$AA?$AA@ 000000018003e6c0     libucrt:wsetlocale.obj
 0002:000096c8       ??_C@_17MBJJLFDM@?$AA_?$AA?4?$AA?0?$AA?$AA@ 000000018003e6c8     libucrt:wsetlocale.obj
 0002:000096d0       ??_C@_13ENNFDPBH@?$AA_?$AA?$AA@ 000000018003e6d0     libucrt:wsetlocale.obj
 0002:000096e0       __lc_time_c                000000018003e6e0     libucrt:nlsdata.obj
 0002:000099a0       ??_C@_03KOEHGMDN@Sun?$AA@  000000018003e9a0     libucrt:nlsdata.obj
 0002:000099a4       ??_C@_03PDAGKDH@Mon?$AA@   000000018003e9a4     libucrt:nlsdata.obj
 0002:000099a8       ??_C@_03NAGEINEP@Tue?$AA@  000000018003e9a8     libucrt:nlsdata.obj
 0002:000099ac       ??_C@_03MHOMLAJA@Wed?$AA@  000000018003e9ac     libucrt:nlsdata.obj
 0002:000099b0       ??_C@_03IOFIKPDN@Thu?$AA@  000000018003e9b0     libucrt:nlsdata.obj
 0002:000099b4       ??_C@_03IDIOELNC@Fri?$AA@  000000018003e9b4     libucrt:nlsdata.obj
 0002:000099b8       ??_C@_03FEFJNEK@Sat?$AA@   000000018003e9b8     libucrt:nlsdata.obj
 0002:000099bc       ??_C@_06OOPIFAJ@Sunday?$AA@ 000000018003e9bc     libucrt:nlsdata.obj
 0002:000099c4       ??_C@_06JLEDEDGH@Monday?$AA@ 000000018003e9c4     libucrt:nlsdata.obj
 0002:000099d0       ??_C@_07BAAGCFCM@Tuesday?$AA@ 000000018003e9d0     libucrt:nlsdata.obj
 0002:000099d8       ??_C@_09DLIGFAKA@Wednesday?$AA@ 000000018003e9d8     libucrt:nlsdata.obj
 0002:000099e8       ??_C@_08HACCIKIA@Thursday?$AA@ 000000018003e9e8     libucrt:nlsdata.obj
 0002:000099f4       ??_C@_06JECMNKMI@Friday?$AA@ 000000018003e9f4     libucrt:nlsdata.obj
 0002:00009a00       ??_C@_08INBOOONO@Saturday?$AA@ 000000018003ea00     libucrt:nlsdata.obj
 0002:00009a0c       ??_C@_03JIHJHPIE@Jan?$AA@  000000018003ea0c     libucrt:nlsdata.obj
 0002:00009a10       ??_C@_03HJBDCHOM@Feb?$AA@  000000018003ea10     libucrt:nlsdata.obj
 0002:00009a14       ??_C@_03ODNJBKGA@Mar?$AA@  000000018003ea14     libucrt:nlsdata.obj
 0002:00009a18       ??_C@_03LEOLGMJP@Apr?$AA@  000000018003ea18     libucrt:nlsdata.obj
 0002:00009a1c       ??_C@_03CNMDKL@May?$AA@    000000018003ea1c     libucrt:nlsdata.obj
 0002:00009a20       ??_C@_03IDFGHECI@Jun?$AA@  000000018003ea20     libucrt:nlsdata.obj
 0002:00009a24       ??_C@_03LBGABGKK@Jul?$AA@  000000018003ea24     libucrt:nlsdata.obj
 0002:00009a28       ??_C@_03IFJFEIGA@Aug?$AA@  000000018003ea28     libucrt:nlsdata.obj
 0002:00009a2c       ??_C@_03GGCAPAJC@Sep?$AA@  000000018003ea2c     libucrt:nlsdata.obj
 0002:00009a30       ??_C@_03BMAOKBAD@Oct?$AA@  000000018003ea30     libucrt:nlsdata.obj
 0002:00009a34       ??_C@_03JPJOFNIA@Nov?$AA@  000000018003ea34     libucrt:nlsdata.obj
 0002:00009a38       ??_C@_03MKABNOCG@Dec?$AA@  000000018003ea38     libucrt:nlsdata.obj
 0002:00009a40       ??_C@_07CGJPFGJA@January?$AA@ 000000018003ea40     libucrt:nlsdata.obj
 0002:00009a48       ??_C@_08GNJGEPFN@February?$AA@ 000000018003ea48     libucrt:nlsdata.obj
 0002:00009a54       ??_C@_05HPCKOFNC@March?$AA@ 000000018003ea54     libucrt:nlsdata.obj
 0002:00009a5c       ??_C@_05DMJDNLEJ@April?$AA@ 000000018003ea5c     libucrt:nlsdata.obj
 0002:00009a64       ??_C@_04CNLMGBGM@June?$AA@ 000000018003ea64     libucrt:nlsdata.obj
 0002:00009a6c       ??_C@_04MIEPOIFP@July?$AA@ 000000018003ea6c     libucrt:nlsdata.obj
 0002:00009a74       ??_C@_06LBBHFDDG@August?$AA@ 000000018003ea74     libucrt:nlsdata.obj
 0002:00009a80       ??_C@_09BHHEALKD@September?$AA@ 000000018003ea80     libucrt:nlsdata.obj
 0002:00009a90       ??_C@_07JJNFCEND@October?$AA@ 000000018003ea90     libucrt:nlsdata.obj
 0002:00009a98       ??_C@_08HCHEGEOA@November?$AA@ 000000018003ea98     libucrt:nlsdata.obj
 0002:00009aa8       ??_C@_08EDHMEBNP@December?$AA@ 000000018003eaa8     libucrt:nlsdata.obj
 0002:00009ab4       ??_C@_02DEDBPAFC@AM?$AA@   000000018003eab4     libucrt:nlsdata.obj
 0002:00009ab8       ??_C@_02CJNFDJBF@PM?$AA@   000000018003eab8     libucrt:nlsdata.obj
 0002:00009ac0       ??_C@_08BPBNCDIB@MM?1dd?1yy?$AA@ 000000018003eac0     libucrt:nlsdata.obj
 0002:00009ad0       ??_C@_0BE@CKGJFCPC@dddd?0?5MMMM?5dd?0?5yyyy?$AA@ 000000018003ead0     libucrt:nlsdata.obj
 0002:00009ae8       ??_C@_08JCCMCCIL@HH?3mm?3ss?$AA@ 000000018003eae8     libucrt:nlsdata.obj
 0002:00009af8       ??_C@_17MBGCMIPB@?$AAS?$AAu?$AAn?$AA?$AA@ 000000018003eaf8     libucrt:nlsdata.obj
 0002:00009b00       ??_C@_17KBOMKBF@?$AAM?$AAo?$AAn?$AA?$AA@ 000000018003eb00     libucrt:nlsdata.obj
 0002:00009b08       ??_C@_17BMKGEGOJ@?$AAT?$AAu?$AAe?$AA?$AA@ 000000018003eb08     libucrt:nlsdata.obj
 0002:00009b10       ??_C@_17CJEDCEPE@?$AAW?$AAe?$AAd?$AA?$AA@ 000000018003eb10     libucrt:nlsdata.obj
 0002:00009b18       ??_C@_17PDPHAADD@?$AAT?$AAh?$AAu?$AA?$AA@ 000000018003eb18     libucrt:nlsdata.obj
 0002:00009b20       ??_C@_17HFOLPPLP@?$AAF?$AAr?$AAi?$AA?$AA@ 000000018003eb20     libucrt:nlsdata.obj
 0002:00009b28       ??_C@_17GGIBDPIH@?$AAS?$AAa?$AAt?$AA?$AA@ 000000018003eb28     libucrt:nlsdata.obj
 0002:00009b30       ??_C@_1O@IHNHDHPB@?$AAS?$AAu?$AAn?$AAd?$AAa?$AAy?$AA?$AA@ 000000018003eb30     libucrt:nlsdata.obj
 0002:00009b40       ??_C@_1O@MMNBFLIA@?$AAM?$AAo?$AAn?$AAd?$AAa?$AAy?$AA?$AA@ 000000018003eb40     libucrt:nlsdata.obj
 0002:00009b50       ??_C@_1BA@ENFBFFEK@?$AAT?$AAu?$AAe?$AAs?$AAd?$AAa?$AAy?$AA?$AA@ 000000018003eb50     libucrt:nlsdata.obj
 0002:00009b60       ??_C@_1BE@EBOGMDOH@?$AAW?$AAe?$AAd?$AAn?$AAe?$AAs?$AAd?$AAa?$AAy?$AA?$AA@ 000000018003eb60     libucrt:nlsdata.obj
 0002:00009b78       ??_C@_1BC@HHMNLIHE@?$AAT?$AAh?$AAu?$AAr?$AAs?$AAd?$AAa?$AAy?$AA?$AA@ 000000018003eb78     libucrt:nlsdata.obj
 0002:00009b90       ??_C@_1O@PDICJHAG@?$AAF?$AAr?$AAi?$AAd?$AAa?$AAy?$AA?$AA@ 000000018003eb90     libucrt:nlsdata.obj
 0002:00009ba0       ??_C@_1BC@ENMNNPAJ@?$AAS?$AAa?$AAt?$AAu?$AAr?$AAd?$AAa?$AAy?$AA?$AA@ 000000018003eba0     libucrt:nlsdata.obj
 0002:00009bb8       ??_C@_17DKNBKCHM@?$AAJ?$AAa?$AAn?$AA?$AA@ 000000018003ebb8     libucrt:nlsdata.obj
 0002:00009bc0       ??_C@_17LMDJEKJN@?$AAF?$AAe?$AAb?$AA?$AA@ 000000018003ebc0     libucrt:nlsdata.obj
 0002:00009bc8       ??_C@_17CKNLEDEC@?$AAM?$AAa?$AAr?$AA?$AA@ 000000018003ebc8     libucrt:nlsdata.obj
 0002:00009bd0       ??_C@_17LFPOIHDD@?$AAA?$AAp?$AAr?$AA?$AA@ 000000018003ebd0     libucrt:nlsdata.obj
 0002:00009bd8       ??_C@_17PNNKMEED@?$AAM?$AAa?$AAy?$AA?$AA@ 000000018003ebd8     libucrt:nlsdata.obj
 0002:00009be0       ??_C@_17KCJGOCPB@?$AAJ?$AAu?$AAn?$AA?$AA@ 000000018003ebe0     libucrt:nlsdata.obj
 0002:00009be8       ??_C@_17IJPCKHK@?$AAJ?$AAu?$AAl?$AA?$AA@ 000000018003ebe8     libucrt:nlsdata.obj
 0002:00009bf0       ??_C@_17ICPELBCN@?$AAA?$AAu?$AAg?$AA?$AA@ 000000018003ebf0     libucrt:nlsdata.obj
 0002:00009bf8       ??_C@_17HCHCOKMG@?$AAS?$AAe?$AAp?$AA?$AA@ 000000018003ebf8     libucrt:nlsdata.obj
 0002:00009c00       ??_C@_17FNLKOI@?$AAO?$AAc?$AAt?$AA?$AA@ 000000018003ec00     libucrt:nlsdata.obj
 0002:00009c08       ??_C@_17BBDMLCIG@?$AAN?$AAo?$AAv?$AA?$AA@ 000000018003ec08     libucrt:nlsdata.obj
 0002:00009c10       ??_C@_17EGKACKIF@?$AAD?$AAe?$AAc?$AA?$AA@ 000000018003ec10     libucrt:nlsdata.obj
 0002:00009c18       ??_C@_1BA@EFMEIEBA@?$AAJ?$AAa?$AAn?$AAu?$AAa?$AAr?$AAy?$AA?$AA@ 000000018003ec18     libucrt:nlsdata.obj
 0002:00009c28       ??_C@_1BC@JGDDFFAM@?$AAF?$AAe?$AAb?$AAr?$AAu?$AAa?$AAr?$AAy?$AA?$AA@ 000000018003ec28     libucrt:nlsdata.obj
 0002:00009c40       ??_C@_1M@IKEENEDF@?$AAM?$AAa?$AAr?$AAc?$AAh?$AA?$AA@ 000000018003ec40     libucrt:nlsdata.obj
 0002:00009c50       ??_C@_1M@GJNLMHFD@?$AAA?$AAp?$AAr?$AAi?$AAl?$AA?$AA@ 000000018003ec50     libucrt:nlsdata.obj
 0002:00009c60       ??_C@_19EPFLPGAP@?$AAJ?$AAu?$AAn?$AAe?$AA?$AA@ 000000018003ec60     libucrt:nlsdata.obj
 0002:00009c70       ??_C@_19BIFMLPCD@?$AAJ?$AAu?$AAl?$AAy?$AA?$AA@ 000000018003ec70     libucrt:nlsdata.obj
 0002:00009c80       ??_C@_1O@PAHLKOAC@?$AAA?$AAu?$AAg?$AAu?$AAs?$AAt?$AA?$AA@ 000000018003ec80     libucrt:nlsdata.obj
 0002:00009c90       ??_C@_1BE@DKAAMBJL@?$AAS?$AAe?$AAp?$AAt?$AAe?$AAm?$AAb?$AAe?$AAr?$AA?$AA@ 000000018003ec90     libucrt:nlsdata.obj
 0002:00009ca8       ??_C@_1BA@EPANDLNG@?$AAO?$AAc?$AAt?$AAo?$AAb?$AAe?$AAr?$AA?$AA@ 000000018003eca8     libucrt:nlsdata.obj
 0002:00009cb8       ??_C@_1BC@BGLIFPF@?$AAN?$AAo?$AAv?$AAe?$AAm?$AAb?$AAe?$AAr?$AA?$AA@ 000000018003ecb8     libucrt:nlsdata.obj
 0002:00009cd0       ??_C@_1BC@FEMKIFH@?$AAD?$AAe?$AAc?$AAe?$AAm?$AAb?$AAe?$AAr?$AA?$AA@ 000000018003ecd0     libucrt:nlsdata.obj
 0002:00009ce4       ??_C@_15ODEHAHHF@?$AAA?$AAM?$AA?$AA@ 000000018003ece4     libucrt:nlsdata.obj
 0002:00009cec       ??_C@_15CLMNNGEL@?$AAP?$AAM?$AA?$AA@ 000000018003ecec     libucrt:nlsdata.obj
 0002:00009cf8       ??_C@_1BC@IEBCMHCM@?$AAM?$AAM?$AA?1?$AAd?$AAd?$AA?1?$AAy?$AAy?$AA?$AA@ 000000018003ecf8     libucrt:nlsdata.obj
 0002:00009d10       ??_C@_1CI@KNAKOEBC@?$AAd?$AAd?$AAd?$AAd?$AA?0?$AA?5?$AAM?$AAM?$AAM?$AAM?$AA?5?$AAd?$AAd?$AA?0?$AA?5?$AAy?$AAy?$AAy?$AAy?$AA?$AA@ 000000018003ed10     libucrt:nlsdata.obj
 0002:00009d38       ??_C@_1BC@GDGBMEMK@?$AAH?$AAH?$AA?3?$AAm?$AAm?$AA?3?$AAs?$AAs?$AA?$AA@ 000000018003ed38     libucrt:nlsdata.obj
 0002:00009d4c       ??_C@_03OEIAHPBN@INF?$AA@  000000018003ed4c     libucrt:cvt.obj
 0002:00009d50       ??_C@_03OJHLLCGB@inf?$AA@  000000018003ed50     libucrt:cvt.obj
 0002:00009d54       ??_C@_03LKNCIKJB@NAN?$AA@  000000018003ed54     libucrt:cvt.obj
 0002:00009d58       ??_C@_03LHCJEHON@nan?$AA@  000000018003ed58     libucrt:cvt.obj
 0002:00009d60       ??_C@_09OFJJIMPC@NAN?$CISNAN?$CJ?$AA@ 000000018003ed60     libucrt:cvt.obj
 0002:00009d70       ??_C@_09IPFBKMDL@nan?$CIsnan?$CJ?$AA@ 000000018003ed70     libucrt:cvt.obj
 0002:00009d80       ??_C@_08IKHNHAJ@NAN?$CIIND?$CJ?$AA@ 000000018003ed80     libucrt:cvt.obj
 0002:00009d90       ??_C@_08OFCDMILK@nan?$CIind?$CJ?$AA@ 000000018003ed90     libucrt:cvt.obj
 0002:00009d9c       ??_C@_05KLBDPFGC@e?$CL000?$AA@ 000000018003ed9c     libucrt:cvt.obj
 0002:00009da4       ??_C@_03KHJOGHMM@exp?$AA@  000000018003eda4     libucrt:fpexcept.obj
 0002:00009da8       ??_C@_03JGHBODFD@pow?$AA@  000000018003eda8     libucrt:fpexcept.obj
 0002:00009dac       ??_C@_05HGHHAHAP@log10?$AA@ 000000018003edac     libucrt:fpexcept.obj
 0002:00009db4       ??_C@_04EIAKFFMI@sqrt?$AA@ 000000018003edb4     libucrt:fpexcept.obj
 0002:00009dbc       ??_C@_03BLEJJJBH@sin?$AA@  000000018003edbc     libucrt:fpexcept.obj
 0002:00009dc0       ??_C@_03LALBNOCG@cos?$AA@  000000018003edc0     libucrt:fpexcept.obj
 0002:00009dc4       ??_C@_04KEPJIHGP@fmod?$AA@ 000000018003edc4     libucrt:fpexcept.obj
 0002:00009e70       ??_C@_1EG@CNNIPFIM@?$AAa?$AAp?$AAi?$AA?9?$AAm?$AAs?$AA?9?$AAw?$AAi?$AAn?$AA?9?$AAa?$AAp?$AAp?$AAm?$AAo?$AAd?$AAe?$AAl?$AA?9?$AAr?$AAu?$AAn?$AAt?$AAi?$AAm?$AAe?$AA?9?$AAl?$AA1?$AA?9?$AA1@ 000000018003ee70     libucrt:winapi_thunks.obj
 0002:00009ec0       ??_C@_1EA@JGEFHKEI@?$AAa?$AAp?$AAi?$AA?9?$AAm?$AAs?$AA?9?$AAw?$AAi?$AAn?$AA?9?$AAc?$AAo?$AAr?$AAe?$AA?9?$AAd?$AAa?$AAt?$AAe?$AAt?$AAi?$AAm?$AAe?$AA?9?$AAl?$AA1?$AA?9?$AA1?$AA?9?$AA1?$AA?$AA@ 000000018003eec0     libucrt:winapi_thunks.obj
 0002:00009f00       ??_C@_1DI@GCIAAENM@?$AAa?$AAp?$AAi?$AA?9?$AAm?$AAs?$AA?9?$AAw?$AAi?$AAn?$AA?9?$AAc?$AAo?$AAr?$AAe?$AA?9?$AAf?$AAi?$AAl?$AAe?$AA?9?$AAl?$AA2?$AA?9?$AA1?$AA?9?$AA1?$AA?$AA@ 000000018003ef00     libucrt:winapi_thunks.obj
 0002:00009f40       ??_C@_1EI@MPIAOHOC@?$AAa?$AAp?$AAi?$AA?9?$AAm?$AAs?$AA?9?$AAw?$AAi?$AAn?$AA?9?$AAc?$AAo?$AAr?$AAe?$AA?9?$AAl?$AAo?$AAc?$AAa?$AAl?$AAi?$AAz?$AAa?$AAt?$AAi?$AAo?$AAn?$AA?9?$AAl?$AA1?$AA?9@ 000000018003ef40     libucrt:winapi_thunks.obj
 0002:00009f90       ??_C@_1FK@FPHCKFIE@?$AAa?$AAp?$AAi?$AA?9?$AAm?$AAs?$AA?9?$AAw?$AAi?$AAn?$AA?9?$AAc?$AAo?$AAr?$AAe?$AA?9?$AAl?$AAo?$AAc?$AAa?$AAl?$AAi?$AAz?$AAa?$AAt?$AAi?$AAo?$AAn?$AA?9?$AAo?$AAb?$AAs@ 000000018003ef90     libucrt:winapi_thunks.obj
 0002:00009ff0       ??_C@_1EM@DILCGIIO@?$AAa?$AAp?$AAi?$AA?9?$AAm?$AAs?$AA?9?$AAw?$AAi?$AAn?$AA?9?$AAc?$AAo?$AAr?$AAe?$AA?9?$AAp?$AAr?$AAo?$AAc?$AAe?$AAs?$AAs?$AAt?$AAh?$AAr?$AAe?$AAa?$AAd?$AAs?$AA?9?$AAl@ 000000018003eff0     libucrt:winapi_thunks.obj
 0002:0000a040       ??_C@_1DM@LNCGDDPN@?$AAa?$AAp?$AAi?$AA?9?$AAm?$AAs?$AA?9?$AAw?$AAi?$AAn?$AA?9?$AAc?$AAo?$AAr?$AAe?$AA?9?$AAs?$AAt?$AAr?$AAi?$AAn?$AAg?$AA?9?$AAl?$AA1?$AA?9?$AA1?$AA?9?$AA0?$AA?$AA@ 000000018003f040     libucrt:winapi_thunks.obj
 0002:0000a080       ??_C@_1DO@FPAPJEMD@?$AAa?$AAp?$AAi?$AA?9?$AAm?$AAs?$AA?9?$AAw?$AAi?$AAn?$AA?9?$AAc?$AAo?$AAr?$AAe?$AA?9?$AAs?$AAy?$AAs?$AAi?$AAn?$AAf?$AAo?$AA?9?$AAl?$AA1?$AA?9?$AA2?$AA?9?$AA1?$AA?$AA@ 000000018003f080     libucrt:winapi_thunks.obj
 0002:0000a0c0       ??_C@_1DK@NDHNAHIO@?$AAa?$AAp?$AAi?$AA?9?$AAm?$AAs?$AA?9?$AAw?$AAi?$AAn?$AA?9?$AAc?$AAo?$AAr?$AAe?$AA?9?$AAw?$AAi?$AAn?$AAr?$AAt?$AA?9?$AAl?$AA1?$AA?9?$AA1?$AA?9?$AA0?$AA?$AA@ 000000018003f0c0     libucrt:winapi_thunks.obj
 0002:0000a100       ??_C@_1DM@KGHDGBCM@?$AAa?$AAp?$AAi?$AA?9?$AAm?$AAs?$AA?9?$AAw?$AAi?$AAn?$AA?9?$AAc?$AAo?$AAr?$AAe?$AA?9?$AAx?$AAs?$AAt?$AAa?$AAt?$AAe?$AA?9?$AAl?$AA2?$AA?9?$AA1?$AA?9?$AA0?$AA?$AA@ 000000018003f100     libucrt:winapi_thunks.obj
 0002:0000a140       ??_C@_1EO@IJIOEFOH@?$AAa?$AAp?$AAi?$AA?9?$AAm?$AAs?$AA?9?$AAw?$AAi?$AAn?$AA?9?$AAr?$AAt?$AAc?$AAo?$AAr?$AAe?$AA?9?$AAn?$AAt?$AAu?$AAs?$AAe?$AAr?$AA?9?$AAw?$AAi?$AAn?$AAd?$AAo?$AAw?$AA?9@ 000000018003f140     libucrt:winapi_thunks.obj
 0002:0000a190       ??_C@_1FG@HHGEKANL@?$AAa?$AAp?$AAi?$AA?9?$AAm?$AAs?$AA?9?$AAw?$AAi?$AAn?$AA?9?$AAs?$AAe?$AAc?$AAu?$AAr?$AAi?$AAt?$AAy?$AA?9?$AAs?$AAy?$AAs?$AAt?$AAe?$AAm?$AAf?$AAu?$AAn?$AAc?$AAt?$AAi@ 000000018003f190     libucrt:winapi_thunks.obj
 0002:0000a1f0       ??_C@_1FG@NCKKOLKO@?$AAe?$AAx?$AAt?$AA?9?$AAm?$AAs?$AA?9?$AAw?$AAi?$AAn?$AA?9?$AAk?$AAe?$AAr?$AAn?$AAe?$AAl?$AA3?$AA2?$AA?9?$AAp?$AAa?$AAc?$AAk?$AAa?$AAg?$AAe?$AA?9?$AAc?$AAu?$AAr?$AAr@ 000000018003f1f0     libucrt:winapi_thunks.obj
 0002:0000a250       ??_C@_1EG@DBIOJECG@?$AAe?$AAx?$AAt?$AA?9?$AAm?$AAs?$AA?9?$AAw?$AAi?$AAn?$AA?9?$AAn?$AAt?$AAu?$AAs?$AAe?$AAr?$AA?9?$AAd?$AAi?$AAa?$AAl?$AAo?$AAg?$AAb?$AAo?$AAx?$AA?9?$AAl?$AA1?$AA?9?$AA1@ 000000018003f250     libucrt:winapi_thunks.obj
 0002:0000a2a0       ??_C@_1EO@FIHMJCLF@?$AAe?$AAx?$AAt?$AA?9?$AAm?$AAs?$AA?9?$AAw?$AAi?$AAn?$AA?9?$AAn?$AAt?$AAu?$AAs?$AAe?$AAr?$AA?9?$AAw?$AAi?$AAn?$AAd?$AAo?$AAw?$AAs?$AAt?$AAa?$AAt?$AAi?$AAo?$AAn?$AA?9@ 000000018003f2a0     libucrt:winapi_thunks.obj
 0002:0000a2f0       ??_C@_1O@BCCLBEOE@?$AAu?$AAs?$AAe?$AAr?$AA3?$AA2?$AA?$AA@ 000000018003f2f0     libucrt:winapi_thunks.obj
 0002:0000a310       ??_C@_0BE@LJANKFHF@EnumSystemLocalesEx?$AA@ 000000018003f310     libucrt:winapi_thunks.obj
 0002:0000a350       ??_C@_0BA@HNOPNCHB@GetActiveWindow?$AA@ 000000018003f350     libucrt:winapi_thunks.obj
 0002:0000a370       ??_C@_0BD@HHGDFDBJ@GetLastActivePopup?$AA@ 000000018003f370     libucrt:winapi_thunks.obj
 0002:0000a398       ??_C@_0BI@DFKBFLJE@GetProcessWindowStation?$AA@ 000000018003f398     libucrt:winapi_thunks.obj
 0002:0000a3b8       ??_C@_0BJ@PBCCBIPI@GetUserDefaultLocaleName?$AA@ 000000018003f3b8     libucrt:winapi_thunks.obj
 0002:0000a3e0       ??_C@_0BK@DEKFELLI@GetUserObjectInformationW?$AA@ 000000018003f3e0     libucrt:winapi_thunks.obj
 0002:0000a410       ??_C@_0BC@CELBKLLA@IsValidLocaleName?$AA@ 000000018003f410     libucrt:winapi_thunks.obj
 0002:0000a438       ??_C@_0BB@CDHDDLLP@LCIDToLocaleName?$AA@ 000000018003f438     libucrt:winapi_thunks.obj
 0002:0000a458       ??_C@_0BB@HBDEELFH@LocaleNameToLCID?$AA@ 000000018003f458     libucrt:winapi_thunks.obj
 0002:0000a478       ??_C@_0M@CHKKJDAI@MessageBoxA?$AA@ 000000018003f478     libucrt:winapi_thunks.obj
 0002:0000a490       ??_C@_0M@DLDCCGNP@MessageBoxW?$AA@ 000000018003f490     libucrt:winapi_thunks.obj
 0002:0000a4a0       __log_256_lead             000000018003f4a0     libucrt:log_256_lead_tail_table.obj
 0002:0000acb0       __log_256_tail             000000018003fcb0     libucrt:log_256_lead_tail_table.obj
 0002:0000b4c0       __two_to_jby64_head_table  00000001800404c0     libucrt:two_to_jby64_head_tail_table.obj
 0002:0000b6c0       __two_to_jby64_tail_table  00000001800406c0     libucrt:two_to_jby64_head_tail_table.obj
 0002:0000b8c0       ??_C@_04MBFDLNIM@powf?$AA@ 00000001800408c0     libucrt:pow_special.obj
 0002:0000b8d0       __two_to_jby64_table       00000001800408d0     libucrt:two_to_jby64_table.obj
 0002:0000bad0       __log_F_inv_qword          0000000180040ad0     libucrt:log_f_inv_qword_table.obj
 0002:0000c300       __acrt_rg_language         0000000180041300     libucrt:get_qualified_locale.obj
 0002:0000c710       __acrt_rg_language_count   0000000180041710     libucrt:get_qualified_locale.obj
 0002:0000c720       __acrt_rg_country          0000000180041720     libucrt:get_qualified_locale.obj
 0002:0000c890       __acrt_rg_country_count    0000000180041890     libucrt:get_qualified_locale.obj
 0002:0000c898       ??_C@_1BC@LLOKLNP@?$AAa?$AAm?$AAe?$AAr?$AAi?$AAc?$AAa?$AAn?$AA?$AA@ 0000000180041898     libucrt:get_qualified_locale.obj
 0002:0000c8b0       ??_C@_1CC@HEIGCDGG@?$AAa?$AAm?$AAe?$AAr?$AAi?$AAc?$AAa?$AAn?$AA?5?$AAe?$AAn?$AAg?$AAl?$AAi?$AAs?$AAh?$AA?$AA@ 00000001800418b0     libucrt:get_qualified_locale.obj
 0002:0000c8d8       ??_C@_1CC@IHCNOMIN@?$AAa?$AAm?$AAe?$AAr?$AAi?$AAc?$AAa?$AAn?$AA?9?$AAe?$AAn?$AAg?$AAl?$AAi?$AAs?$AAh?$AA?$AA@ 00000001800418d8     libucrt:get_qualified_locale.obj
 0002:0000c900       ??_C@_1BG@GKAGPCGG@?$AAa?$AAu?$AAs?$AAt?$AAr?$AAa?$AAl?$AAi?$AAa?$AAn?$AA?$AA@ 0000000180041900     libucrt:get_qualified_locale.obj
 0002:0000c918       ??_C@_1BA@GMENCENF@?$AAb?$AAe?$AAl?$AAg?$AAi?$AAa?$AAn?$AA?$AA@ 0000000180041918     libucrt:get_qualified_locale.obj
 0002:0000c928       ??_C@_1BC@PJMIIAAN@?$AAc?$AAa?$AAn?$AAa?$AAd?$AAi?$AAa?$AAn?$AA?$AA@ 0000000180041928     libucrt:get_qualified_locale.obj
 0002:0000c940       ??_C@_17NOIMNFBF@?$AAc?$AAh?$AAh?$AA?$AA@ 0000000180041940     libucrt:get_qualified_locale.obj
 0002:0000c948       ??_C@_17GGDALCHA@?$AAc?$AAh?$AAi?$AA?$AA@ 0000000180041948     libucrt:get_qualified_locale.obj
 0002:0000c950       ??_C@_1BA@NPNJKIBL@?$AAc?$AAh?$AAi?$AAn?$AAe?$AAs?$AAe?$AA?$AA@ 0000000180041950     libucrt:get_qualified_locale.obj
 0002:0000c960       ??_C@_1CC@DINBAMMJ@?$AAc?$AAh?$AAi?$AAn?$AAe?$AAs?$AAe?$AA?9?$AAh?$AAo?$AAn?$AAg?$AAk?$AAo?$AAn?$AAg?$AA?$AA@ 0000000180041960     libucrt:get_qualified_locale.obj
 0002:0000c988       ??_C@_1CG@IOBJPACO@?$AAc?$AAh?$AAi?$AAn?$AAe?$AAs?$AAe?$AA?9?$AAs?$AAi?$AAm?$AAp?$AAl?$AAi?$AAf?$AAi?$AAe?$AAd?$AA?$AA@ 0000000180041988     libucrt:get_qualified_locale.obj
 0002:0000c9b0       ??_C@_1CE@GAJNDCKG@?$AAc?$AAh?$AAi?$AAn?$AAe?$AAs?$AAe?$AA?9?$AAs?$AAi?$AAn?$AAg?$AAa?$AAp?$AAo?$AAr?$AAe?$AA?$AA@ 00000001800419b0     libucrt:get_qualified_locale.obj
 0002:0000c9d8       ??_C@_1CI@PAJPIOOD@?$AAc?$AAh?$AAi?$AAn?$AAe?$AAs?$AAe?$AA?9?$AAt?$AAr?$AAa?$AAd?$AAi?$AAt?$AAi?$AAo?$AAn?$AAa?$AAl?$AA?$AA@ 00000001800419d8     libucrt:get_qualified_locale.obj
 0002:0000ca00       ??_C@_1BM@NILJBMMD@?$AAd?$AAu?$AAt?$AAc?$AAh?$AA?9?$AAb?$AAe?$AAl?$AAg?$AAi?$AAa?$AAn?$AA?$AA@ 0000000180041a00     libucrt:get_qualified_locale.obj
 0002:0000ca20       ??_C@_1CC@OOJPJNEJ@?$AAe?$AAn?$AAg?$AAl?$AAi?$AAs?$AAh?$AA?9?$AAa?$AAm?$AAe?$AAr?$AAi?$AAc?$AAa?$AAn?$AA?$AA@ 0000000180041a20     libucrt:get_qualified_locale.obj
 0002:0000ca48       ??_C@_1BI@IOLFEEM@?$AAe?$AAn?$AAg?$AAl?$AAi?$AAs?$AAh?$AA?9?$AAa?$AAu?$AAs?$AA?$AA@ 0000000180041a48     libucrt:get_qualified_locale.obj
 0002:0000ca60       ??_C@_1BO@HFFNLENJ@?$AAe?$AAn?$AAg?$AAl?$AAi?$AAs?$AAh?$AA?9?$AAb?$AAe?$AAl?$AAi?$AAz?$AAe?$AA?$AA@ 0000000180041a60     libucrt:get_qualified_locale.obj
 0002:0000ca80       ??_C@_1BI@HAPKJMPO@?$AAe?$AAn?$AAg?$AAl?$AAi?$AAs?$AAh?$AA?9?$AAc?$AAa?$AAn?$AA?$AA@ 0000000180041a80     libucrt:get_qualified_locale.obj
 0002:0000ca98       ??_C@_1CE@HLNDMIOJ@?$AAe?$AAn?$AAg?$AAl?$AAi?$AAs?$AAh?$AA?9?$AAc?$AAa?$AAr?$AAi?$AAb?$AAb?$AAe?$AAa?$AAn?$AA?$AA@ 0000000180041a98     libucrt:get_qualified_locale.obj
 0002:0000cac0       ??_C@_1BI@LDHJHHAC@?$AAe?$AAn?$AAg?$AAl?$AAi?$AAs?$AAh?$AA?9?$AAi?$AAr?$AAe?$AA?$AA@ 0000000180041ac0     libucrt:get_qualified_locale.obj
 0002:0000cad8       ??_C@_1CA@NJMMCFOC@?$AAe?$AAn?$AAg?$AAl?$AAi?$AAs?$AAh?$AA?9?$AAj?$AAa?$AAm?$AAa?$AAi?$AAc?$AAa?$AA?$AA@ 0000000180041ad8     libucrt:get_qualified_locale.obj
 0002:0000caf8       ??_C@_1BG@BHJEBBGG@?$AAe?$AAn?$AAg?$AAl?$AAi?$AAs?$AAh?$AA?9?$AAn?$AAz?$AA?$AA@ 0000000180041af8     libucrt:get_qualified_locale.obj
 0002:0000cb10       ??_C@_1CK@FGOEJJCO@?$AAe?$AAn?$AAg?$AAl?$AAi?$AAs?$AAh?$AA?9?$AAs?$AAo?$AAu?$AAt?$AAh?$AA?5?$AAa?$AAf?$AAr?$AAi?$AAc?$AAa?$AA?$AA@ 0000000180041b10     libucrt:get_qualified_locale.obj
 0002:0000cb40       ??_C@_1DE@PDBJPCJ@?$AAe?$AAn?$AAg?$AAl?$AAi?$AAs?$AAh?$AA?9?$AAt?$AAr?$AAi?$AAn?$AAi?$AAd?$AAa?$AAd?$AA?5?$AAy?$AA?5?$AAt?$AAo?$AAb?$AAa?$AAg?$AAo?$AA?$AA@ 0000000180041b40     libucrt:get_qualified_locale.obj
 0002:0000cb78       ??_C@_1BG@JGCANDME@?$AAe?$AAn?$AAg?$AAl?$AAi?$AAs?$AAh?$AA?9?$AAu?$AAk?$AA?$AA@ 0000000180041b78     libucrt:get_qualified_locale.obj
 0002:0000cb90       ??_C@_1BG@DINKMLE@?$AAe?$AAn?$AAg?$AAl?$AAi?$AAs?$AAh?$AA?9?$AAu?$AAs?$AA?$AA@ 0000000180041b90     libucrt:get_qualified_locale.obj
 0002:0000cba8       ??_C@_1BI@NMFDBHJE@?$AAe?$AAn?$AAg?$AAl?$AAi?$AAs?$AAh?$AA?9?$AAu?$AAs?$AAa?$AA?$AA@ 0000000180041ba8     libucrt:get_qualified_locale.obj
 0002:0000cbc0       ??_C@_1BO@OIHKJKII@?$AAf?$AAr?$AAe?$AAn?$AAc?$AAh?$AA?9?$AAb?$AAe?$AAl?$AAg?$AAi?$AAa?$AAn?$AA?$AA@ 0000000180041bc0     libucrt:get_qualified_locale.obj
 0002:0000cbe0       ??_C@_1CA@NKAELJKI@?$AAf?$AAr?$AAe?$AAn?$AAc?$AAh?$AA?9?$AAc?$AAa?$AAn?$AAa?$AAd?$AAi?$AAa?$AAn?$AA?$AA@ 0000000180041be0     libucrt:get_qualified_locale.obj
 0002:0000cc00       ??_C@_1CE@MGKCNLGN@?$AAf?$AAr?$AAe?$AAn?$AAc?$AAh?$AA?9?$AAl?$AAu?$AAx?$AAe?$AAm?$AAb?$AAo?$AAu?$AAr?$AAg?$AA?$AA@ 0000000180041c00     libucrt:get_qualified_locale.obj
 0002:0000cc28       ??_C@_1BK@CEGEAILM@?$AAf?$AAr?$AAe?$AAn?$AAc?$AAh?$AA?9?$AAs?$AAw?$AAi?$AAs?$AAs?$AA?$AA@ 0000000180041c28     libucrt:get_qualified_locale.obj
 0002:0000cc48       ??_C@_1CA@PAFKEOCC@?$AAg?$AAe?$AAr?$AAm?$AAa?$AAn?$AA?9?$AAa?$AAu?$AAs?$AAt?$AAr?$AAi?$AAa?$AAn?$AA?$AA@ 0000000180041c48     libucrt:get_qualified_locale.obj
 0002:0000cc68       ??_C@_1CI@HCFHGOFD@?$AAg?$AAe?$AAr?$AAm?$AAa?$AAn?$AA?9?$AAl?$AAi?$AAc?$AAh?$AAt?$AAe?$AAn?$AAs?$AAt?$AAe?$AAi?$AAn?$AA?$AA@ 0000000180041c68     libucrt:get_qualified_locale.obj
 0002:0000cc90       ??_C@_1CE@FEDDNPDG@?$AAg?$AAe?$AAr?$AAm?$AAa?$AAn?$AA?9?$AAl?$AAu?$AAx?$AAe?$AAm?$AAb?$AAo?$AAu?$AAr?$AAg?$AA?$AA@ 0000000180041c90     libucrt:get_qualified_locale.obj
 0002:0000ccb8       ??_C@_1BK@LIMINNMN@?$AAg?$AAe?$AAr?$AAm?$AAa?$AAn?$AA?9?$AAs?$AAw?$AAi?$AAs?$AAs?$AA?$AA@ 0000000180041cb8     libucrt:get_qualified_locale.obj
 0002:0000ccd8       ??_C@_1BM@LGMDBEPD@?$AAi?$AAr?$AAi?$AAs?$AAh?$AA?9?$AAe?$AAn?$AAg?$AAl?$AAi?$AAs?$AAh?$AA?$AA@ 0000000180041cd8     libucrt:get_qualified_locale.obj
 0002:0000ccf8       ??_C@_1BM@NNCFBAEE@?$AAi?$AAt?$AAa?$AAl?$AAi?$AAa?$AAn?$AA?9?$AAs?$AAw?$AAi?$AAs?$AAs?$AA?$AA@ 0000000180041cf8     libucrt:get_qualified_locale.obj
 0002:0000cd18       ??_C@_1BE@FEDJNPIB@?$AAn?$AAo?$AAr?$AAw?$AAe?$AAg?$AAi?$AAa?$AAn?$AA?$AA@ 0000000180041d18     libucrt:get_qualified_locale.obj
 0002:0000cd30       ??_C@_1CC@CILKDEIE@?$AAn?$AAo?$AAr?$AAw?$AAe?$AAg?$AAi?$AAa?$AAn?$AA?9?$AAb?$AAo?$AAk?$AAm?$AAa?$AAl?$AA?$AA@ 0000000180041d30     libucrt:get_qualified_locale.obj
 0002:0000cd58       ??_C@_1CE@DHMMHEPL@?$AAn?$AAo?$AAr?$AAw?$AAe?$AAg?$AAi?$AAa?$AAn?$AA?9?$AAn?$AAy?$AAn?$AAo?$AAr?$AAs?$AAk?$AA?$AA@ 0000000180041d58     libucrt:get_qualified_locale.obj
 0002:0000cd80       ??_C@_1CK@OPNMHECD@?$AAp?$AAo?$AAr?$AAt?$AAu?$AAg?$AAu?$AAe?$AAs?$AAe?$AA?9?$AAb?$AAr?$AAa?$AAz?$AAi?$AAl?$AAi?$AAa?$AAn?$AA?$AA@ 0000000180041d80     libucrt:get_qualified_locale.obj
 0002:0000cdb0       ??_C@_1CE@KEEHCDB@?$AAs?$AAp?$AAa?$AAn?$AAi?$AAs?$AAh?$AA?9?$AAa?$AAr?$AAg?$AAe?$AAn?$AAt?$AAi?$AAn?$AAa?$AA?$AA@ 0000000180041db0     libucrt:get_qualified_locale.obj
 0002:0000cdd8       ??_C@_1CA@GIAOLHJD@?$AAs?$AAp?$AAa?$AAn?$AAi?$AAs?$AAh?$AA?9?$AAb?$AAo?$AAl?$AAi?$AAv?$AAi?$AAa?$AA?$AA@ 0000000180041dd8     libucrt:get_qualified_locale.obj
 0002:0000cdf8       ??_C@_1BM@OJNDFNPD@?$AAs?$AAp?$AAa?$AAn?$AAi?$AAs?$AAh?$AA?9?$AAc?$AAh?$AAi?$AAl?$AAe?$AA?$AA@ 0000000180041df8     libucrt:get_qualified_locale.obj
 0002:0000ce18       ??_C@_1CC@OCOLPALL@?$AAs?$AAp?$AAa?$AAn?$AAi?$AAs?$AAh?$AA?9?$AAc?$AAo?$AAl?$AAo?$AAm?$AAb?$AAi?$AAa?$AA?$AA@ 0000000180041e18     libucrt:get_qualified_locale.obj
 0002:0000ce40       ??_C@_1CG@BPOFMKBB@?$AAs?$AAp?$AAa?$AAn?$AAi?$AAs?$AAh?$AA?9?$AAc?$AAo?$AAs?$AAt?$AAa?$AA?5?$AAr?$AAi?$AAc?$AAa?$AA?$AA@ 0000000180041e40     libucrt:get_qualified_locale.obj
 0002:0000ce68       ??_C@_1DG@IGOBAPBB@?$AAs?$AAp?$AAa?$AAn?$AAi?$AAs?$AAh?$AA?9?$AAd?$AAo?$AAm?$AAi?$AAn?$AAi?$AAc?$AAa?$AAn?$AA?5?$AAr?$AAe?$AAp?$AAu?$AAb?$AAl?$AAi?$AAc?$AA?$AA@ 0000000180041e68     libucrt:get_qualified_locale.obj
 0002:0000cea0       ??_C@_1CA@JHAPGEGI@?$AAs?$AAp?$AAa?$AAn?$AAi?$AAs?$AAh?$AA?9?$AAe?$AAc?$AAu?$AAa?$AAd?$AAo?$AAr?$AA?$AA@ 0000000180041ea0     libucrt:get_qualified_locale.obj
 0002:0000cec0       ??_C@_1CI@LAPALJPP@?$AAs?$AAp?$AAa?$AAn?$AAi?$AAs?$AAh?$AA?9?$AAe?$AAl?$AA?5?$AAs?$AAa?$AAl?$AAv?$AAa?$AAd?$AAo?$AAr?$AA?$AA@ 0000000180041ec0     libucrt:get_qualified_locale.obj
 0002:0000cee8       ??_C@_1CE@PDGBOFOM@?$AAs?$AAp?$AAa?$AAn?$AAi?$AAs?$AAh?$AA?9?$AAg?$AAu?$AAa?$AAt?$AAe?$AAm?$AAa?$AAl?$AAa?$AA?$AA@ 0000000180041ee8     libucrt:get_qualified_locale.obj
 0002:0000cf10       ??_C@_1CC@NBEBAODI@?$AAs?$AAp?$AAa?$AAn?$AAi?$AAs?$AAh?$AA?9?$AAh?$AAo?$AAn?$AAd?$AAu?$AAr?$AAa?$AAs?$AA?$AA@ 0000000180041f10     libucrt:get_qualified_locale.obj
 0002:0000cf38       ??_C@_1CA@LLKGHBMF@?$AAs?$AAp?$AAa?$AAn?$AAi?$AAs?$AAh?$AA?9?$AAm?$AAe?$AAx?$AAi?$AAc?$AAa?$AAn?$AA?$AA@ 0000000180041f38     libucrt:get_qualified_locale.obj
 0002:0000cf58       ??_C@_1BO@LKNDOIGD@?$AAs?$AAp?$AAa?$AAn?$AAi?$AAs?$AAh?$AA?9?$AAm?$AAo?$AAd?$AAe?$AAr?$AAn?$AA?$AA@ 0000000180041f58     libucrt:get_qualified_locale.obj
 0002:0000cf78       ??_C@_1CE@NMDMOEEB@?$AAs?$AAp?$AAa?$AAn?$AAi?$AAs?$AAh?$AA?9?$AAn?$AAi?$AAc?$AAa?$AAr?$AAa?$AAg?$AAu?$AAa?$AA?$AA@ 0000000180041f78     libucrt:get_qualified_locale.obj
 0002:0000cfa0       ??_C@_1BO@LLCBEJGB@?$AAs?$AAp?$AAa?$AAn?$AAi?$AAs?$AAh?$AA?9?$AAp?$AAa?$AAn?$AAa?$AAm?$AAa?$AA?$AA@ 0000000180041fa0     libucrt:get_qualified_locale.obj
 0002:0000cfc0       ??_C@_1CC@FKPGGIHO@?$AAs?$AAp?$AAa?$AAn?$AAi?$AAs?$AAh?$AA?9?$AAp?$AAa?$AAr?$AAa?$AAg?$AAu?$AAa?$AAy?$AA?$AA@ 0000000180041fc0     libucrt:get_qualified_locale.obj
 0002:0000cfe8       ??_C@_1BK@CDEIHOOP@?$AAs?$AAp?$AAa?$AAn?$AAi?$AAs?$AAh?$AA?9?$AAp?$AAe?$AAr?$AAu?$AA?$AA@ 0000000180041fe8     libucrt:get_qualified_locale.obj
 0002:0000d008       ??_C@_1CI@GAHAKKGP@?$AAs?$AAp?$AAa?$AAn?$AAi?$AAs?$AAh?$AA?9?$AAp?$AAu?$AAe?$AAr?$AAt?$AAo?$AA?5?$AAr?$AAi?$AAc?$AAo?$AA?$AA@ 0000000180042008     libucrt:get_qualified_locale.obj
 0002:0000d030       ??_C@_1CA@NKJBCAGP@?$AAs?$AAp?$AAa?$AAn?$AAi?$AAs?$AAh?$AA?9?$AAu?$AAr?$AAu?$AAg?$AAu?$AAa?$AAy?$AA?$AA@ 0000000180042030     libucrt:get_qualified_locale.obj
 0002:0000d050       ??_C@_1CE@ODILCONM@?$AAs?$AAp?$AAa?$AAn?$AAi?$AAs?$AAh?$AA?9?$AAv?$AAe?$AAn?$AAe?$AAz?$AAu?$AAe?$AAl?$AAa?$AA?$AA@ 0000000180042050     libucrt:get_qualified_locale.obj
 0002:0000d078       ??_C@_1CA@OBNMCGFO@?$AAs?$AAw?$AAe?$AAd?$AAi?$AAs?$AAh?$AA?9?$AAf?$AAi?$AAn?$AAl?$AAa?$AAn?$AAd?$AA?$AA@ 0000000180042078     libucrt:get_qualified_locale.obj
 0002:0000d098       ??_C@_1M@PIPDDPPI@?$AAs?$AAw?$AAi?$AAs?$AAs?$AA?$AA@ 0000000180042098     libucrt:get_qualified_locale.obj
 0002:0000d0a4       ??_C@_15GMFIMNFM@?$AAu?$AAs?$AA?$AA@ 00000001800420a4     libucrt:get_qualified_locale.obj
 0002:0000d0b0       ??_C@_17HAEBFAGL@?$AAu?$AAs?$AAa?$AA?$AA@ 00000001800420b0     libucrt:get_qualified_locale.obj
 0002:0000d0b8       ??_C@_1BA@DPFJEPHB@?$AAa?$AAm?$AAe?$AAr?$AAi?$AAc?$AAa?$AA?$AA@ 00000001800420b8     libucrt:get_qualified_locale.obj
 0002:0000d0c8       ??_C@_1BA@ELOGGFK@?$AAb?$AAr?$AAi?$AAt?$AAa?$AAi?$AAn?$AA?$AA@ 00000001800420c8     libucrt:get_qualified_locale.obj
 0002:0000d0d8       ??_C@_1M@GHBGIGDA@?$AAc?$AAh?$AAi?$AAn?$AAa?$AA?$AA@ 00000001800420d8     libucrt:get_qualified_locale.obj
 0002:0000d0e8       ??_C@_1M@NCHEJOPO@?$AAc?$AAz?$AAe?$AAc?$AAh?$AA?$AA@ 00000001800420e8     libucrt:get_qualified_locale.obj
 0002:0000d0f8       ??_C@_1BA@BKPAPBLA@?$AAe?$AAn?$AAg?$AAl?$AAa?$AAn?$AAd?$AA?$AA@ 00000001800420f8     libucrt:get_qualified_locale.obj
 0002:0000d108       ??_C@_1BM@HKBCKIPC@?$AAg?$AAr?$AAe?$AAa?$AAt?$AA?5?$AAb?$AAr?$AAi?$AAt?$AAa?$AAi?$AAn?$AA?$AA@ 0000000180042108     libucrt:get_qualified_locale.obj
 0002:0000d128       ??_C@_1BA@PPCHPGJB@?$AAh?$AAo?$AAl?$AAl?$AAa?$AAn?$AAd?$AA?$AA@ 0000000180042128     libucrt:get_qualified_locale.obj
 0002:0000d138       ??_C@_1BE@JBMPEGDG@?$AAh?$AAo?$AAn?$AAg?$AA?9?$AAk?$AAo?$AAn?$AAg?$AA?$AA@ 0000000180042138     libucrt:get_qualified_locale.obj
 0002:0000d150       ??_C@_1BI@KOELBBPJ@?$AAn?$AAe?$AAw?$AA?9?$AAz?$AAe?$AAa?$AAl?$AAa?$AAn?$AAd?$AA?$AA@ 0000000180042150     libucrt:get_qualified_locale.obj
 0002:0000d168       ??_C@_15HIEBHAIO@?$AAn?$AAz?$AA?$AA@ 0000000180042168     libucrt:get_qualified_locale.obj
 0002:0000d170       ??_C@_1BC@CHBCPFPI@?$AAp?$AAr?$AA?5?$AAc?$AAh?$AAi?$AAn?$AAa?$AA?$AA@ 0000000180042170     libucrt:get_qualified_locale.obj
 0002:0000d188       ??_C@_1BC@JAOIIFKD@?$AAp?$AAr?$AA?9?$AAc?$AAh?$AAi?$AAn?$AAa?$AA?$AA@ 0000000180042188     libucrt:get_qualified_locale.obj
 0002:0000d1a0       ??_C@_1BI@BEHPPHKC@?$AAp?$AAu?$AAe?$AAr?$AAt?$AAo?$AA?9?$AAr?$AAi?$AAc?$AAo?$AA?$AA@ 00000001800421a0     libucrt:get_qualified_locale.obj
 0002:0000d1b8       ??_C@_1O@PAEOFKDI@?$AAs?$AAl?$AAo?$AAv?$AAa?$AAk?$AA?$AA@ 00000001800421b8     libucrt:get_qualified_locale.obj
 0002:0000d1c8       ??_C@_1BK@FIHMCKAM@?$AAs?$AAo?$AAu?$AAt?$AAh?$AA?5?$AAa?$AAf?$AAr?$AAi?$AAc?$AAa?$AA?$AA@ 00000001800421c8     libucrt:get_qualified_locale.obj
 0002:0000d1e8       ??_C@_1BI@NAEOODKB@?$AAs?$AAo?$AAu?$AAt?$AAh?$AA?5?$AAk?$AAo?$AAr?$AAe?$AAa?$AA?$AA@ 00000001800421e8     libucrt:get_qualified_locale.obj
 0002:0000d200       ??_C@_1BK@FBDGGIFF@?$AAs?$AAo?$AAu?$AAt?$AAh?$AA?9?$AAa?$AAf?$AAr?$AAi?$AAc?$AAa?$AA?$AA@ 0000000180042200     libucrt:get_qualified_locale.obj
 0002:0000d220       ??_C@_1BI@GHLEJDPK@?$AAs?$AAo?$AAu?$AAt?$AAh?$AA?9?$AAk?$AAo?$AAr?$AAe?$AAa?$AA?$AA@ 0000000180042220     libucrt:get_qualified_locale.obj
 0002:0000d238       ??_C@_1CE@PLHLOMJF@?$AAt?$AAr?$AAi?$AAn?$AAi?$AAd?$AAa?$AAd?$AA?5?$AA?$CG?$AA?5?$AAt?$AAo?$AAb?$AAa?$AAg?$AAo?$AA?$AA@ 0000000180042238     libucrt:get_qualified_locale.obj
 0002:0000d260       ??_C@_1BO@MODIMHHI@?$AAu?$AAn?$AAi?$AAt?$AAe?$AAd?$AA?9?$AAk?$AAi?$AAn?$AAg?$AAd?$AAo?$AAm?$AA?$AA@ 0000000180042260     libucrt:get_qualified_locale.obj
 0002:0000d280       ??_C@_1BM@FFHJONBJ@?$AAu?$AAn?$AAi?$AAt?$AAe?$AAd?$AA?9?$AAs?$AAt?$AAa?$AAt?$AAe?$AAs?$AA?$AA@ 0000000180042280     libucrt:get_qualified_locale.obj
 0002:0000d2a0       ??_C@_17DNCLJFIF@?$AAA?$AAC?$AAP?$AA?$AA@ 00000001800422a0     libucrt:get_qualified_locale.obj
 0002:0000d2a8       ??_C@_17CIKBIHLH@?$AAO?$AAC?$AAP?$AA?$AA@ 00000001800422a8     libucrt:get_qualified_locale.obj
 0002:0000d2b0       __rglangidNotDefault       00000001800422b0     libucrt:getqloc_downlevel.obj
 0002:0000d2c4       ??_C@_01GBGANLPD@0?$AA@    00000001800422c4     libucrt:cfout.obj
 0002:0000d2c8       ??_C@_05DNEBIAHO@1?$CDINF?$AA@ 00000001800422c8     libucrt:cfout.obj
 0002:0000d2d0       ??_C@_06IMKFLFPG@1?$CDQNAN?$AA@ 00000001800422d0     libucrt:cfout.obj
 0002:0000d2d8       ??_C@_06PGGFOGJG@1?$CDSNAN?$AA@ 00000001800422d8     libucrt:cfout.obj
 0002:0000d2e0       ??_C@_05PHHOCPM@1?$CDIND?$AA@ 00000001800422e0     libucrt:cfout.obj
 0002:0000f1d0       ??_C@_1BA@BALFACEM@?$AAC?$AAO?$AAN?$AAO?$AAU?$AAT?$AA$?$AA?$AA@ 00000001800441d0     libucrt:initcon.obj
 0002:0000f1e0       __log10_256_lead           00000001800441e0     libucrt:log10_256_lead_tail_table.obj
 0002:0000f9f0       __log10_256_tail           00000001800449f0     libucrt:log10_256_lead_tail_table.obj
 0002:000101f8       ??_C@_1BK@DBDEIDLH@?$AAK?$AAE?$AAR?$AAN?$AAE?$AAL?$AA3?$AA2?$AA?4?$AAD?$AAL?$AAL?$AA?$AA@ 00000001800451f8     DelayImp:delayhlp.obj
 0002:00010220       _load_config_used          0000000180045220     LIBCMT:loadcfg.obj
 0002:000102b8       ??_C@_07FLMNHPPG@exports?$AA@ 00000001800452b8     addon.obj
 0002:000102c0       ??_C@_0BL@EBEJDBMA@?4?4?2addon?2include?2addon?4cpp?$AA@ 00000001800452c0     addon.obj
 0002:000102dc       ??_C@_05ONJGPJEO@addon?$AA@ 00000001800452dc     addon.obj
 0002:000102e8       ??_C@_0BC@BDKFLDHL@unknown?5exception?$AA@ 00000001800452e8     dealImg.obj
 0002:00010300       ??_C@_0BA@ELKIONDK@bad?5locale?5name?$AA@ 0000000180045300     dealImg.obj
 0002:00010310       ??_C@_00CNPNBAHC@?$AA@     0000000180045310     dealImg.obj
 0002:00010314       ??_C@_02LMMGGCAJ@?3?5?$AA@ 0000000180045314     dealImg.obj
 0002:00010318       ??_C@_08LLGCOLLL@iostream?$AA@ 0000000180045318     dealImg.obj
 0002:00010328       ??_C@_0BG@PADBLCHM@iostream?5stream?5error?$AA@ 0000000180045328     dealImg.obj
 0002:00010340       ??_C@_0BF@PHHKMMFD@ios_base?3?3badbit?5set?$AA@ 0000000180045340     dealImg.obj
 0002:00010358       ??_C@_0BG@FMKFHCIL@ios_base?3?3failbit?5set?$AA@ 0000000180045358     dealImg.obj
 0002:00010370       ??_C@_0BF@OOHOMBOF@ios_base?3?3eofbit?5set?$AA@ 0000000180045370     dealImg.obj
 0002:00010390       ??_C@_1IO@HKAAODNC@?$AAC?$AA?3?$AA?2?$AAU?$AAs?$AAe?$AAr?$AAs?$AA?2?$AAA?$AAd?$AAm?$AAi?$AAn?$AAi?$AAs?$AAt?$AAr?$AAa?$AAt?$AAo?$AAr?$AA?2?$AA?4?$AAn?$AAo?$AAd?$AAe?$AA?9?$AAg?$AAy?$AAp@ 0000000180045390     dealImg.obj
 0002:00010420       ??_C@_1DG@OKCGPKIB@?$AAp?$AAe?$AAr?$AAs?$AAi?$AAs?$AAt?$AAe?$AAn?$AAt?$AA?$CI?$AA?$CJ?$AA?4?$AAI?$AAs?$AAN?$AAe?$AAa?$AAr?$AAD?$AAe?$AAa?$AAt?$AAh?$AA?$CI?$AA?$CJ?$AA?$AA@ 0000000180045420     dealImg.obj
 0002:00010458       ??_C@_1CO@EGNPJLKI@?$AAp?$AAe?$AAr?$AAs?$AAi?$AAs?$AAt?$AAe?$AAn?$AAt?$AA?$CI?$AA?$CJ?$AA?4?$AAI?$AAs?$AAE?$AAm?$AAp?$AAt?$AAy?$AA?$CI?$AA?$CJ?$AA?$AA@ 0000000180045458     dealImg.obj
 0002:00010490       ??_C@_1EC@NOLNIHNJ@?$AAh?$AAa?$AAn?$AAd?$AAl?$AAe?$AA?9?$AA?$DO?$AAI?$AAn?$AAt?$AAe?$AAr?$AAn?$AAa?$AAl?$AAF?$AAi?$AAe?$AAl?$AAd?$AAC?$AAo?$AAu?$AAn?$AAt?$AA?$CI?$AA?$CJ?$AA?5?$AA?$DO?$AA?5?$AA0@ 0000000180045490     dealImg.obj
 0002:000104d8       ??_C@_1DA@FBGAEOIO@?$AA?$CB?$AAp?$AAe?$AAr?$AAs?$AAi?$AAs?$AAt?$AAe?$AAn?$AAt?$AA?$CI?$AA?$CJ?$AA?4?$AAI?$AAs?$AAE?$AAm?$AAp?$AAt?$AAy?$AA?$CI?$AA?$CJ?$AA?$AA@ 00000001800454d8     dealImg.obj
 0002:00010508       ??_C@_1CO@JCKLEFMA@?$AA?$CB?$AAp?$AAe?$AAr?$AAs?$AAi?$AAs?$AAt?$AAe?$AAn?$AAt?$AA?$CI?$AA?$CJ?$AA?4?$AAI?$AAs?$AAW?$AAe?$AAa?$AAk?$AA?$CI?$AA?$CJ?$AA?$AA@ 0000000180045508     dealImg.obj
 0002:00010538       ??_C@_1BE@GMLLOIPJ@?$AAr?$AAe?$AAf?$AAs?$AA_?$AA?5?$AA?$DO?$AA?5?$AA0?$AA?$AA@ 0000000180045538     dealImg.obj
 0002:00010550       ??_C@_1CC@GBFLAAPF@?$AAw?$AAr?$AAa?$AAp?$AA?9?$AA?$DO?$AAr?$AAe?$AAf?$AAs?$AA_?$AA?5?$AA?$DN?$AA?$DN?$AA?5?$AA0?$AA?$AA@ 0000000180045550     dealImg.obj
 0002:00010578       ??_C@_1DI@ELDBKNAK@?$AAw?$AAr?$AAa?$AAp?$AA?9?$AA?$DO?$AAh?$AAa?$AAn?$AAd?$AAl?$AAe?$AA_?$AA?4?$AAI?$AAs?$AAN?$AAe?$AAa?$AAr?$AAD?$AAe?$AAa?$AAt?$AAh?$AA?$CI?$AA?$CJ?$AA?$AA@ 0000000180045578     dealImg.obj
 0002:000105b0       ??_C@_1IM@GACIBGHJ@?$AAd?$AAa?$AAt?$AAa?$AA?4?$AAG?$AAe?$AAt?$AAV?$AAa?$AAl?$AAu?$AAe?$AA?$CI?$AA?$CJ?$AA?5?$AA?$DN?$AA?$DN?$AA?5?$AAv?$AA8?$AA?3?$AA?3?$AAL?$AAo?$AAc?$AAa?$AAl?$AA?$DM?$AAv?$AA8?$AA?3@ 00000001800455b0     dealImg.obj
 0002:00010640       ??_C@_1KC@DEDNCBGK@?$AAc?$AA?3?$AA?2?$AAu?$AAs?$AAe?$AAr?$AAs?$AA?2?$AAa?$AAd?$AAm?$AAi?$AAn?$AAi?$AAs?$AAt?$AAr?$AAa?$AAt?$AAo?$AAr?$AA?2?$AAd?$AAe?$AAs?$AAk?$AAt?$AAo?$AAp?$AA?2?$AAt@ 0000000180045640     dealImg.obj
 0002:000106e8       ??_C@_1M@HLGKFCJM@?$AAf?$AAa?$AAl?$AAs?$AAe?$AA?$AA@ 00000001800456e8     dealImg.obj
 0002:00010700       ??_C@_1KO@NFKEEPJP@?$AAc?$AA?3?$AA?2?$AAu?$AAs?$AAe?$AAr?$AAs?$AA?2?$AAa?$AAd?$AAm?$AAi?$AAn?$AAi?$AAs?$AAt?$AAr?$AAa?$AAt?$AAo?$AAr?$AA?2?$AAd?$AAe?$AAs?$AAk?$AAt?$AAo?$AAp?$AA?2?$AAt@ 0000000180045700     dealImg.obj
 0002:000107b0       ??_C@_13JOFGPIOO@?$AA?4?$AA?$AA@ 00000001800457b0     dealImg.obj
 0002:000107b8       ??_C@_17HGCFFOJO@?$AAj?$AAp?$AAg?$AA?$AA@ 00000001800457b8     dealImg.obj
 0002:000107c0       ??_C@_19IICIMDPD@?$AAj?$AAp?$AAe?$AAg?$AA?$AA@ 00000001800457c0     dealImg.obj
 0002:000107d0       ??_C@_17NMCMJGBF@?$AAj?$AAp?$AAe?$AA?$AA@ 00000001800457d0     dealImg.obj
 0002:000107d8       ??_C@_19PNICFMEB@?$AAj?$AAf?$AAi?$AAf?$AA?$AA@ 00000001800457d8     dealImg.obj
 0002:000107e8       ??_C@_17HBEFHPHJ@?$AAg?$AAi?$AAf?$AA?$AA@ 00000001800457e8     dealImg.obj
 0002:000107f0       ??_C@_17NHEGDLEI@?$AAb?$AAm?$AAp?$AA?$AA@ 00000001800457f0     dealImg.obj
 0002:000107f8       ??_C@_17KCICBAJG@?$AAp?$AAn?$AAg?$AA?$AA@ 00000001800457f8     dealImg.obj
 0002:00010800       ??_C@_17CEKMBAHI@?$AAt?$AAg?$AAa?$AA?$AA@ 0000000180045800     dealImg.obj
 0002:00010808       ??_C@_17IDHBEJLB@?$AAt?$AAi?$AAf?$AA?$AA@ 0000000180045808     dealImg.obj
 0002:00010810       ??_C@_19OMJDENGD@?$AAt?$AAi?$AAf?$AAf?$AA?$AA@ 0000000180045810     dealImg.obj
 0002:00010820       ??_C@_17LIFMABKH@?$AAi?$AAc?$AAo?$AA?$AA@ 0000000180045820     dealImg.obj
 0002:00010828       ??_C@_17PHPKODN@?$AAp?$AAs?$AAd?$AA?$AA@ 0000000180045828     dealImg.obj
 0002:00010830       ??_C@_17BGGGEEIB@?$AAp?$AAc?$AAx?$AA?$AA@ 0000000180045830     dealImg.obj
 0002:00010838       ??_C@_17CHAGIIKM@?$AAx?$AAp?$AAm?$AA?$AA@ 0000000180045838     dealImg.obj
 0002:00010840       ??_C@_17BHCCPKHI@?$AAo?$AAx?$AAo?$AA?$AA@ 0000000180045840     dealImg.obj
 0002:00010850       ??_C@_1KC@PJAIGPOJ@?$AAc?$AA?3?$AA?2?$AAu?$AAs?$AAe?$AAr?$AAs?$AA?2?$AAa?$AAd?$AAm?$AAi?$AAn?$AAi?$AAs?$AAt?$AAr?$AAa?$AAt?$AAo?$AAr?$AA?2?$AAd?$AAe?$AAs?$AAk?$AAt?$AAo?$AAp?$AA?2?$AAt@ 0000000180045850     dealImg.obj
 0002:000108f8       ??_C@_1CE@KBDCPJBO@?$AAI?$AAs?$AAI?$AAn?$AAs?$AAi?$AAd?$AAe?$AA?$CI?$AA0?$AA?0?$AAn?$AAL?$AAi?$AAn?$AAe?$AA?$CJ?$AA?$AA@ 00000001800458f8     dealImg.obj
 0002:00010920       ??_C@_1BM@MPLHJANM@?$AAI?$AAs?$AAI?$AAn?$AAs?$AAi?$AAd?$AAe?$AA?$CI?$AAx?$AA?0?$AAy?$AA?$CJ?$AA?$AA@ 0000000180045920     dealImg.obj
 0002:00010940       ??_C@_19GCAABOFN@?$AAb?$AAR?$AAe?$AAt?$AA?$AA@ 0000000180045940     dealImg.obj
 0002:00010950       ??_C@_1KO@ICOHODPF@?$AAc?$AA?3?$AA?2?$AAu?$AAs?$AAe?$AAr?$AAs?$AA?2?$AAa?$AAd?$AAm?$AAi?$AAn?$AAi?$AAs?$AAt?$AAr?$AAa?$AAt?$AAo?$AAr?$AA?2?$AAd?$AAe?$AAs?$AAk?$AAt?$AAo?$AAp?$AA?2?$AAt@ 0000000180045950     dealImg.obj
 0002:00010a00       ??_C@_1MK@GGBCDNPH@?$AAc?$AA?3?$AA?2?$AAu?$AAs?$AAe?$AAr?$AAs?$AA?2?$AAa?$AAd?$AAm?$AAi?$AAn?$AAi?$AAs?$AAt?$AAr?$AAa?$AAt?$AAo?$AAr?$AA?2?$AAd?$AAe?$AAs?$AAk?$AAt?$AAo?$AAp?$AA?2?$AAt@ 0000000180045a00     dealImg.obj
 0002:00010ad0       ??_C@_1LK@IPJEOPKH@?$AAc?$AA?3?$AA?2?$AAu?$AAs?$AAe?$AAr?$AAs?$AA?2?$AAa?$AAd?$AAm?$AAi?$AAn?$AAi?$AAs?$AAt?$AAr?$AAa?$AAt?$AAo?$AAr?$AA?2?$AAd?$AAe?$AAs?$AAk?$AAt?$AAo?$AAp?$AA?2?$AAt@ 0000000180045ad0     dealImg.obj
 0002:00010b90       ??_C@_1BI@JKIEHBF@?$AAm?$AA_?$AAb?$AAp?$AAp?$AA?5?$AA?$DN?$AA?$DN?$AA?5?$AA3?$AA2?$AA?$AA@ 0000000180045b90     dealImg.obj
 0002:00010ba8       ??_C@_03KCHOJKKI@set?$AA@  0000000180045ba8     dealImg.obj
 0002:00010bac       ??_C@_04EONOHKEP@load?$AA@ 0000000180045bac     dealImg.obj
 0002:00010bb4       ??_C@_04EMMDIJJL@save?$AA@ 0000000180045bb4     dealImg.obj
 0002:00010bc0       ??_C@_08BNDADMBM@drawText?$AA@ 0000000180045bc0     dealImg.obj
 0002:00010bcc       ??_C@_03OOEBGOEH@cut?$AA@  0000000180045bcc     dealImg.obj
 0002:00010bd0       ??_C@_06HOPIODND@effect?$AA@ 0000000180045bd0     dealImg.obj
 0002:00010bd8       ??_C@_0P@NHIBONKI@Invalid?5Image?4?$AA@ 0000000180045bd8     dealImg.obj
 0002:00010be8       ??_C@_0BD@DFLDOKE@Invalid?5parameter?4?$AA@ 0000000180045be8     dealImg.obj
 0002:00010c00       ??_C@_08JCKLBEEE@?N?$KC?H?m?Q?E?$LK?Z?$AA@ 0000000180045c00     dealImg.obj
 0002:00010c10       ??_C@_0BC@PFFKOADJ@Invalid?5selector?4?$AA@ 0000000180045c10     dealImg.obj
 0002:00010c28       ??_C@_07IPNMCAN@success?$AA@ 0000000180045c28     dealImg.obj
 0002:00010c30       ??_C@_0BD@OLBABOEK@vector?$DMT?$DO?5too?5long?$AA@ 0000000180045c30     dealImg.obj
 0002:00010c48       ??_C@_0BA@JFNIOLAK@string?5too?5long?$AA@ 0000000180045c48     dealImg.obj
 0002:00010c58       ??_C@_0BI@CFPLBAOH@invalid?5string?5position?$AA@ 0000000180045c58     dealImg.obj
 0002:00010c70       ??_C@_1CE@IAEMMFJ@?$AA?$CB?$AAh?$AAa?$AAn?$AAd?$AAl?$AAe?$AA?4?$AAI?$AAs?$AAE?$AAm?$AAp?$AAt?$AAy?$AA?$CI?$AA?$CJ?$AA?$AA@ 0000000180045c70     dealImg.obj
 0002:00010c98       ??_7ObjectWrap@node@@6B@   0000000180045c98     dealImg.obj
 0002:00010cb0       ??_7FCAutoInitGDIPlus@@6B@ 0000000180045cb0     dealImg.obj
 0002:00010cb8       ??_7FCEffectAdjustRGB@@6B@ 0000000180045cb8     dealImg.obj
 0002:00010ce8       ??_7FCEffectOldPhoto@@6B@  0000000180045ce8     dealImg.obj
 0002:00010d20       ??_7FCEffectRipple@@6B@    0000000180045d20     dealImg.obj
 0002:00010d58       ??_7FCEffectGetHistogram@@6B@ 0000000180045d58     dealImg.obj
 0002:00010d88       ??_7FCEffectGamma@@6B@     0000000180045d88     dealImg.obj
 0002:00010dc0       ??_7FCEffectBlur_Radial@@6B@ 0000000180045dc0     dealImg.obj
 0002:00010df0       ??_7FCEffectBlur_Zoom@@6B@ 0000000180045df0     dealImg.obj
 0002:00010e20       ??_7FCImageProperty@@6B@   0000000180045e20     dealImg.obj
 0002:00010e28       ??_7FCEffectAutoColorEnhance@@6B@ 0000000180045e28     dealImg.obj
 0002:00010e58       ??_7FCEffectColorTone@@6B@ 0000000180045e58     dealImg.obj
 0002:00010e88       ??_7FCEffectPencilSketch@@6B@ 0000000180045e88     dealImg.obj
 0002:00010ec0       ??_7FCObjGraph@@6B@        0000000180045ec0     dealImg.obj
 0002:00010ec8       ??_7FCEffectRibbon@@6B@    0000000180045ec8     dealImg.obj
 0002:00010f00       ??_7FCEffectAutoContrast@@6B@ 0000000180045f00     dealImg.obj
 0002:00010f30       ??_7FCEffectBrightnessContrast@@6B@ 0000000180045f30     dealImg.obj
 0002:00010f68       ??_7FCEffectAutoColorLevel@@6B@ 0000000180045f68     dealImg.obj
 0002:00010f98       ??_7FCEffectBulge@@6B@     0000000180045f98     dealImg.obj
 0002:00010fd0       ??_7FCImageCodecFactory_Gdiplus@@6B@ 0000000180045fd0     dealImg.obj
 0002:00010fe8       ??_7set@dealImg@@6B@       0000000180045fe8     dealImg.obj
 0002:00011000       ??_7FCEffectInvert@@6B@    0000000180046000     dealImg.obj
 0002:00011038       ??_7FCEffectBlur_Motion@@6B@ 0000000180046038     dealImg.obj
 0002:00011068       ??_7exception@stdext@@6B@  0000000180046068     dealImg.obj
 0002:00011080       ??_7FCEffect3DGrid@@6B@    0000000180046080     dealImg.obj
 0002:000110b0       ??_7FCEffectColorBalance@@6B@ 00000001800460b0     dealImg.obj
 0002:000110e0       ??_7FCEffectOilPaint@@6B@  00000001800460e0     dealImg.obj
 0002:00011110       ??_7FCEffectGrayscale@@6B@ 0000000180046110     dealImg.obj
 0002:00011140       ??_7FCEffectNoisify@@6B@   0000000180046140     dealImg.obj
 0002:00011170       ??_7FCImageCodec_Gdiplus@@6B@ 0000000180046170     dealImg.obj
 0002:00011190       ??_7FCEffectTwist@@6B@     0000000180046190     dealImg.obj
 0002:000111c8       ??_7FCImageEffect@@6B@     00000001800461c8     dealImg.obj
 0002:000111f8       ??_7FCEffectWave@@6B@      00000001800461f8     dealImg.obj
 0002:00011230       ??_7FCImageCodec@@6B@      0000000180046230     dealImg.obj
 0002:00011250       ??_7Image@Gdiplus@@6B@     0000000180046250     dealImg.obj
 0002:00011250       ??_7Bitmap@Gdiplus@@6B@    0000000180046250     dealImg.obj
 0002:00011260       ??_7FCEffectBlinds@@6B@    0000000180046260     dealImg.obj
 0002:00011290       ??_7FCEffectShear@@6B@     0000000180046290     dealImg.obj
 0002:000112c8       ??_7FCEffectRotate@@6B@    00000001800462c8     dealImg.obj
 0002:00011300       ??_7FCEffectMosaic@@6B@    0000000180046300     dealImg.obj
 0002:00011330       ??_7FCObjImage@@6B@        0000000180046330     dealImg.obj
 0002:00011338       ??_7FCImageCodecFactory@@6B@ 0000000180046338     dealImg.obj
 0002:00011350       ??_7FCEffectBlur_Gauss@@6B@ 0000000180046350     dealImg.obj
 0002:00011388       ??_C@_08HCOMDCCD@iojs?4exe?$AA@ 0000000180046388     win_delay_load_hook.obj
 0002:00011398       ??_C@_08JDDNMFDB@node?4exe?$AA@ 0000000180046398     win_delay_load_hook.obj
 0002:000113a8       __real@3f0bb6b255bcf881    00000001800463a8     dealImg.obj
 0002:000113b0       __real@3f60101010101010    00000001800463b0     dealImg.obj
 0002:000113b8       __real@3f789374bc6a7efa    00000001800463b8     dealImg.obj
 0002:000113c0       __real@3f80000000000000    00000001800463c0     dealImg.obj
 0002:000113c8       __real@3fb0000000000000    00000001800463c8     dealImg.obj
 0002:000113d0       __real@3fe0000000000000    00000001800463d0     dealImg.obj
 0002:000113d8       __real@3fe55810624dd2f2    00000001800463d8     dealImg.obj
 0002:000113e0       __real@3ff0000000000000    00000001800463e0     dealImg.obj
 0002:000113e8       __real@3ff1333333333333    00000001800463e8     dealImg.obj
 0002:000113f0       __real@4000000000000000    00000001800463f0     dealImg.obj
 0002:000113f8       __real@4008000000000000    00000001800463f8     dealImg.obj
 0002:00011400       __real@400921fb54442d18    0000000180046400     dealImg.obj
 0002:00011408       __real@400bb67ae858606b    0000000180046408     dealImg.obj
 0002:00011410       __real@4010000000000000    0000000180046410     dealImg.obj
 0002:00011418       __real@4018000000000000    0000000180046418     dealImg.obj
 0002:00011420       __real@401921fb54442d18    0000000180046420     dealImg.obj
 0002:00011428       __real@4022000000000000    0000000180046428     dealImg.obj
 0002:00011430       __real@4024000000000000    0000000180046430     dealImg.obj
 0002:00011438       __real@403e000000000000    0000000180046438     dealImg.obj
 0002:00011440       __real@4052c00000000000    0000000180046440     dealImg.obj
 0002:00011448       __real@4059000000000000    0000000180046448     dealImg.obj
 0002:00011450       __real@405fc00000000000    0000000180046450     dealImg.obj
 0002:00011458       __real@4066800000000000    0000000180046458     dealImg.obj
 0002:00011460       __real@4066a00000000000    0000000180046460     dealImg.obj
 0002:00011468       __real@406fe00000000000    0000000180046468     dealImg.obj
 0002:00011470       __real@40f0000000000000    0000000180046470     dealImg.obj
 0002:00011478       __real@8000000000000000    0000000180046478     dealImg.obj
 0002:00011480       __real@bfe0000000000000    0000000180046480     dealImg.obj
 0002:00011488       __real@bff0000000000000    0000000180046488     dealImg.obj
 0002:00011490       __real@c000000000000000    0000000180046490     dealImg.obj
 0002:00011498       __real@c018000000000000    0000000180046498     dealImg.obj
 0002:000114a0       __real@c03e000000000000    00000001800464a0     dealImg.obj
 0002:000114a8       __real@c0e0000000000000    00000001800464a8     dealImg.obj
 0002:000114b0       __xmm@7fffffffffffffff7fffffffffffffff 00000001800464b0     dealImg.obj
 0002:000123d8       __real@3c91a62633145c07    00000001800473d8     libucrt:atan2.obj
 0002:000123e0       __real@3e45798ee2308c3a    00000001800473e0     libucrt:atan2.obj
 0002:000123e8       __real@3e6110b4611a6263    00000001800473e8     libucrt:atan2.obj
 0002:000123f0       __real@3f70000000000000    00000001800473f0     libucrt:atan2.obj
 0002:000123f8       __real@3fb70c3192d751c2    00000001800473f8     libucrt:atan2.obj
 0002:00012400       __real@3fbc718839b8c4eb    0000000180047400     libucrt:atan2.obj
 0002:00012408       __real@3fc2492482bd6be1    0000000180047408     libucrt:atan2.obj
 0002:00012410       __real@3fc99992b9802d7d    0000000180047410     libucrt:atan2.obj
 0002:00012418       __real@3fc99999999643a3    0000000180047418     libucrt:atan2.obj
 0002:00012420       __real@3fd5555555550877    0000000180047420     libucrt:atan2.obj
 0002:00012428       __real@3fd5555555555538    0000000180047428     libucrt:atan2.obj
 0002:00012430       __real@3fe921fb54442d18    0000000180047430     libucrt:atan2.obj
 0002:00012438       __real@3ff921fb54442d18    0000000180047438     libucrt:atan2.obj
 0002:00012440       __real@4002d97c7f3321d2    0000000180047440     libucrt:atan2.obj
 0002:00012448       __real@400921fb50000000    0000000180047448     libucrt:atan2.obj
 0002:00012450       __real@4070000000000000    0000000180047450     libucrt:atan2.obj
 0002:00012458       __real@bfe921fb54442d18    0000000180047458     libucrt:atan2.obj
 0002:00012460       __real@bff921fb54442d18    0000000180047460     libucrt:atan2.obj
 0002:00012468       __real@c002d97c7f3321d2    0000000180047468     libucrt:atan2.obj
 0002:00012470       __real@c00921fb54442d18    0000000180047470     libucrt:atan2.obj
 0002:00012478       __real@c010000000000000    0000000180047478     libucrt:atan2.obj
 0002:00012740       __Lcosarray                0000000180047740     libucrt:lsincos_array.obj
 0002:000127a0       __Lsinarray                00000001800477a0     libucrt:lsincos_array.obj
 0002:00012b20       __L_2_by_pi_bits           0000000180047b20     libucrt:l2_by_pi_bits.obj
 0002:00012c18       _tls_used                  0000000180047c18     LIBCMT:tlssup.obj
 0002:00012c40       ??_R4exception@std@@6B@    0000000180047c40     libcpmt:cout.obj
 0002:00012c68       ??_R3exception@std@@8      0000000180047c68     libcpmt:cout.obj
 0002:00012c80       ??_R2exception@std@@8      0000000180047c80     libcpmt:cout.obj
 0002:00012c90       ??_R1A@?0A@EA@exception@std@@8 0000000180047c90     libcpmt:cout.obj
 0002:00012cb8       ??_R4ios_base@std@@6B@     0000000180047cb8     libcpmt:cout.obj
 0002:00012ce0       ??_R3ios_base@std@@8       0000000180047ce0     libcpmt:cout.obj
 0002:00012cf8       ??_R2ios_base@std@@8       0000000180047cf8     libcpmt:cout.obj
 0002:00012d10       ??_R1A@?0A@EA@ios_base@std@@8 0000000180047d10     libcpmt:cout.obj
 0002:00012d38       ??_R17?0A@EA@?$_Iosb@H@std@@8 0000000180047d38     libcpmt:cout.obj
 0002:00012d60       ??_R3?$_Iosb@H@std@@8      0000000180047d60     libcpmt:cout.obj
 0002:00012d78       ??_R2?$_Iosb@H@std@@8      0000000180047d78     libcpmt:cout.obj
 0002:00012d88       ??_R1A@?0A@EA@?$_Iosb@H@std@@8 0000000180047d88     libcpmt:cout.obj
 0002:00012db0       ??_R4?$basic_ios@DU?$char_traits@D@std@@@std@@6B@ 0000000180047db0     libcpmt:cout.obj
 0002:00012dd8       ??_R3?$basic_ios@DU?$char_traits@D@std@@@std@@8 0000000180047dd8     libcpmt:cout.obj
 0002:00012df0       ??_R2?$basic_ios@DU?$char_traits@D@std@@@std@@8 0000000180047df0     libcpmt:cout.obj
 0002:00012e10       ??_R1A@?0A@EA@?$basic_ios@DU?$char_traits@D@std@@@std@@8 0000000180047e10     libcpmt:cout.obj
 0002:00012e38       ??_R4?$basic_streambuf@DU?$char_traits@D@std@@@std@@6B@ 0000000180047e38     libcpmt:cout.obj
 0002:00012e60       ??_R3?$basic_streambuf@DU?$char_traits@D@std@@@std@@8 0000000180047e60     libcpmt:cout.obj
 0002:00012e78       ??_R2?$basic_streambuf@DU?$char_traits@D@std@@@std@@8 0000000180047e78     libcpmt:cout.obj
 0002:00012e88       ??_R1A@?0A@EA@?$basic_streambuf@DU?$char_traits@D@std@@@std@@8 0000000180047e88     libcpmt:cout.obj
 0002:00012eb0       ??_R1A@A@3FA@?$basic_ios@DU?$char_traits@D@std@@@std@@8 0000000180047eb0     libcpmt:cout.obj
 0002:00012ed8       ??_R1A@A@3EA@ios_base@std@@8 0000000180047ed8     libcpmt:cout.obj
 0002:00012f00       ??_R17A@3EA@?$_Iosb@H@std@@8 0000000180047f00     libcpmt:cout.obj
 0002:00012f28       ??_R4?$basic_ostream@DU?$char_traits@D@std@@@std@@6B@ 0000000180047f28     libcpmt:cout.obj
 0002:00012f50       ??_R3?$basic_ostream@DU?$char_traits@D@std@@@std@@8 0000000180047f50     libcpmt:cout.obj
 0002:00012f68       ??_R2?$basic_ostream@DU?$char_traits@D@std@@@std@@8 0000000180047f68     libcpmt:cout.obj
 0002:00012f90       ??_R1A@?0A@EA@?$basic_ostream@DU?$char_traits@D@std@@@std@@8 0000000180047f90     libcpmt:cout.obj
 0002:00012fb8       ??_R4?$basic_filebuf@DU?$char_traits@D@std@@@std@@6B@ 0000000180047fb8     libcpmt:cout.obj
 0002:00012fe0       ??_R3?$basic_filebuf@DU?$char_traits@D@std@@@std@@8 0000000180047fe0     libcpmt:cout.obj
 0002:00012ff8       ??_R2?$basic_filebuf@DU?$char_traits@D@std@@@std@@8 0000000180047ff8     libcpmt:cout.obj
 0002:00013010       ??_R1A@?0A@EA@?$basic_filebuf@DU?$char_traits@D@std@@@std@@8 0000000180048010     libcpmt:cout.obj
 0002:00013038       ??_R4runtime_error@std@@6B@ 0000000180048038     libcpmt:cout.obj
 0002:00013060       ??_R3runtime_error@std@@8  0000000180048060     libcpmt:cout.obj
 0002:00013078       ??_R2runtime_error@std@@8  0000000180048078     libcpmt:cout.obj
 0002:00013090       ??_R1A@?0A@EA@runtime_error@std@@8 0000000180048090     libcpmt:cout.obj
 0002:000130b8       ??_R4bad_cast@std@@6B@     00000001800480b8     libcpmt:cout.obj
 0002:000130e0       ??_R3bad_cast@std@@8       00000001800480e0     libcpmt:cout.obj
 0002:000130f8       ??_R2bad_cast@std@@8       00000001800480f8     libcpmt:cout.obj
 0002:00013110       ??_R1A@?0A@EA@bad_cast@std@@8 0000000180048110     libcpmt:cout.obj
 0002:00013138       ??_R4_Facet_base@std@@6B@  0000000180048138     libcpmt:cout.obj
 0002:00013160       ??_R3_Facet_base@std@@8    0000000180048160     libcpmt:cout.obj
 0002:00013178       ??_R2_Facet_base@std@@8    0000000180048178     libcpmt:cout.obj
 0002:00013188       ??_R1A@?0A@EA@_Facet_base@std@@8 0000000180048188     libcpmt:cout.obj
 0002:000131b0       ??_R1A@?0A@EA@facet@locale@std@@8 00000001800481b0     libcpmt:cout.obj
 0002:000131d8       ??_R3facet@locale@std@@8   00000001800481d8     libcpmt:cout.obj
 0002:000131f0       ??_R2facet@locale@std@@8   00000001800481f0     libcpmt:cout.obj
 0002:00013210       ??_R17?0A@EA@_Crt_new_delete@std@@8 0000000180048210     libcpmt:cout.obj
 0002:00013238       ??_R3_Crt_new_delete@std@@8 0000000180048238     libcpmt:cout.obj
 0002:00013250       ??_R2_Crt_new_delete@std@@8 0000000180048250     libcpmt:cout.obj
 0002:00013260       ??_R1A@?0A@EA@_Crt_new_delete@std@@8 0000000180048260     libcpmt:cout.obj
 0002:00013288       ??_R3codecvt_base@std@@8   0000000180048288     libcpmt:cout.obj
 0002:000132a0       ??_R2codecvt_base@std@@8   00000001800482a0     libcpmt:cout.obj
 0002:000132c8       ??_R1A@?0A@EA@codecvt_base@std@@8 00000001800482c8     libcpmt:cout.obj
 0002:000132f0       ??_R3ctype_base@std@@8     00000001800482f0     libcpmt:cout.obj
 0002:00013308       ??_R2ctype_base@std@@8     0000000180048308     libcpmt:cout.obj
 0002:00013330       ??_R1A@?0A@EA@ctype_base@std@@8 0000000180048330     libcpmt:cout.obj
 0002:00013358       ??_R4?$ctype@D@std@@6B@    0000000180048358     libcpmt:cout.obj
 0002:00013380       ??_R3?$ctype@D@std@@8      0000000180048380     libcpmt:cout.obj
 0002:00013398       ??_R2?$ctype@D@std@@8      0000000180048398     libcpmt:cout.obj
 0002:000133c8       ??_R1A@?0A@EA@?$ctype@D@std@@8 00000001800483c8     libcpmt:cout.obj
 0002:000133f0       ??_R4error_category@std@@6B@ 00000001800483f0     libcpmt:cout.obj
 0002:00013418       ??_R3error_category@std@@8 0000000180048418     libcpmt:cout.obj
 0002:00013430       ??_R2error_category@std@@8 0000000180048430     libcpmt:cout.obj
 0002:00013440       ??_R1A@?0A@EA@error_category@std@@8 0000000180048440     libcpmt:cout.obj
 0002:00013468       ??_R4_System_error@std@@6B@ 0000000180048468     libcpmt:cout.obj
 0002:00013490       ??_R3_System_error@std@@8  0000000180048490     libcpmt:cout.obj
 0002:000134a8       ??_R2_System_error@std@@8  00000001800484a8     libcpmt:cout.obj
 0002:000134c8       ??_R1A@?0A@EA@_System_error@std@@8 00000001800484c8     libcpmt:cout.obj
 0002:000134f0       ??_R3system_error@std@@8   00000001800484f0     libcpmt:cout.obj
 0002:00013508       ??_R2system_error@std@@8   0000000180048508     libcpmt:cout.obj
 0002:00013530       ??_R1A@?0A@EA@system_error@std@@8 0000000180048530     libcpmt:cout.obj
 0002:00013558       ??_R3_Generic_error_category@std@@8 0000000180048558     libcpmt:cout.obj
 0002:00013570       ??_R2_Generic_error_category@std@@8 0000000180048570     libcpmt:cout.obj
 0002:00013588       ??_R1A@?0A@EA@_Generic_error_category@std@@8 0000000180048588     libcpmt:cout.obj
 0002:000135b0       ??_R4_Iostream_error_category@std@@6B@ 00000001800485b0     libcpmt:cout.obj
 0002:000135d8       ??_R3_Iostream_error_category@std@@8 00000001800485d8     libcpmt:cout.obj
 0002:000135f0       ??_R2_Iostream_error_category@std@@8 00000001800485f0     libcpmt:cout.obj
 0002:00013610       ??_R1A@?0A@EA@_Iostream_error_category@std@@8 0000000180048610     libcpmt:cout.obj
 0002:00013638       ??_R4failure@ios_base@std@@6B@ 0000000180048638     libcpmt:cout.obj
 0002:00013660       ??_R3failure@ios_base@std@@8 0000000180048660     libcpmt:cout.obj
 0002:00013678       ??_R2failure@ios_base@std@@8 0000000180048678     libcpmt:cout.obj
 0002:000136a8       ??_R1A@?0A@EA@failure@ios_base@std@@8 00000001800486a8     libcpmt:cout.obj
 0002:000136d0       ??_R4?$codecvt@DDU_Mbstatet@@@std@@6B@ 00000001800486d0     libcpmt:cout.obj
 0002:000136f8       ??_R3?$codecvt@DDU_Mbstatet@@@std@@8 00000001800486f8     libcpmt:cout.obj
 0002:00013710       ??_R2?$codecvt@DDU_Mbstatet@@@std@@8 0000000180048710     libcpmt:cout.obj
 0002:00013740       ??_R1A@?0A@EA@?$codecvt@DDU_Mbstatet@@@std@@8 0000000180048740     libcpmt:cout.obj
 0002:00013768       ??_R4_Locimp@locale@std@@6B@ 0000000180048768     libcpmt:locale0.obj
 0002:00013790       ??_R3_Locimp@locale@std@@8 0000000180048790     libcpmt:locale0.obj
 0002:000137a8       ??_R2_Locimp@locale@std@@8 00000001800487a8     libcpmt:locale0.obj
 0002:000137d0       ??_R1A@?0A@EA@_Locimp@locale@std@@8 00000001800487d0     libcpmt:locale0.obj
 0002:000137f8       ??_R4bad_alloc@std@@6B@    00000001800487f8     libcpmt:xthrow.obj
 0002:00013820       ??_R3bad_alloc@std@@8      0000000180048820     libcpmt:xthrow.obj
 0002:00013838       ??_R2bad_alloc@std@@8      0000000180048838     libcpmt:xthrow.obj
 0002:00013850       ??_R1A@?0A@EA@bad_alloc@std@@8 0000000180048850     libcpmt:xthrow.obj
 0002:00013878       ??_R4logic_error@std@@6B@  0000000180048878     libcpmt:xthrow.obj
 0002:000138a0       ??_R3logic_error@std@@8    00000001800488a0     libcpmt:xthrow.obj
 0002:000138b8       ??_R2logic_error@std@@8    00000001800488b8     libcpmt:xthrow.obj
 0002:000138d0       ??_R1A@?0A@EA@logic_error@std@@8 00000001800488d0     libcpmt:xthrow.obj
 0002:000138f8       ??_R4length_error@std@@6B@ 00000001800488f8     libcpmt:xthrow.obj
 0002:00013920       ??_R3length_error@std@@8   0000000180048920     libcpmt:xthrow.obj
 0002:00013938       ??_R2length_error@std@@8   0000000180048938     libcpmt:xthrow.obj
 0002:00013958       ??_R1A@?0A@EA@length_error@std@@8 0000000180048958     libcpmt:xthrow.obj
 0002:00013980       ??_R4out_of_range@std@@6B@ 0000000180048980     libcpmt:xthrow.obj
 0002:000139a8       ??_R3out_of_range@std@@8   00000001800489a8     libcpmt:xthrow.obj
 0002:000139c0       ??_R2out_of_range@std@@8   00000001800489c0     libcpmt:xthrow.obj
 0002:000139e0       ??_R1A@?0A@EA@out_of_range@std@@8 00000001800489e0     libcpmt:xthrow.obj
 0002:00013a08       ??_R4type_info@@6B@        0000000180048a08     LIBCMT:std_type_info_static.obj
 0002:00013a30       ??_R3type_info@@8          0000000180048a30     LIBCMT:std_type_info_static.obj
 0002:00013a48       ??_R2type_info@@8          0000000180048a48     LIBCMT:std_type_info_static.obj
 0002:00013a58       ??_R1A@?0A@EA@type_info@@8 0000000180048a58     LIBCMT:std_type_info_static.obj
 0002:00013a80       ??_R4bad_array_new_length@std@@6B@ 0000000180048a80     LIBCMT:throw_bad_alloc.obj
 0002:00013aa8       ??_R3bad_array_new_length@std@@8 0000000180048aa8     LIBCMT:throw_bad_alloc.obj
 0002:00013ac0       ??_R2bad_array_new_length@std@@8 0000000180048ac0     LIBCMT:throw_bad_alloc.obj
 0002:00013ae0       ??_R1A@?0A@EA@bad_array_new_length@std@@8 0000000180048ae0     LIBCMT:throw_bad_alloc.obj
 0002:00013b08       ??_R4bad_exception@std@@6B@ 0000000180048b08     libvcruntime:frame.obj
 0002:00013b30       ??_R3bad_exception@std@@8  0000000180048b30     libvcruntime:frame.obj
 0002:00013b48       ??_R2bad_exception@std@@8  0000000180048b48     libvcruntime:frame.obj
 0002:00013b60       ??_R1A@?0A@EA@bad_exception@std@@8 0000000180048b60     libvcruntime:frame.obj
 0002:00013b88       ?_TraceLoggingMetadata@?1??_TlgWrite@__vcrt_trace_logging_provider@@YAJPEBU_TlgProvider_t@2@PEFBXPEBU_GUID@@2IPEAU_EVENT_DATA_DESCRIPTOR@@@Z@4U_TraceLoggingMetadata_t@2@B 0000000180048b88     libvcruntime:telemetry.obj
 0002:00013c3b       ?_TraceLoggingMetadataEnd@?1??_TlgWrite@__vcrt_trace_logging_provider@@YAJPEBU_TlgProvider_t@2@PEFBXPEBU_GUID@@2IPEAU_EVENT_DATA_DESCRIPTOR@@@Z@4EB 0000000180048c3b     libvcruntime:telemetry.obj
 0002:00014148       __rtc_iaa                  0000000180049148     LIBCMT:_initsect_.obj
 0002:00014150       __rtc_izz                  0000000180049150     LIBCMT:_initsect_.obj
 0002:00014158       __rtc_taa                  0000000180049158     LIBCMT:_initsect_.obj
 0002:00014160       __rtc_tzz                  0000000180049160     LIBCMT:_initsect_.obj
 0002:000171d8       _CT??_R0?AVexception@std@@@8??0exception@std@@QEAA@AEBV01@@Z24 000000018004c1d8     libcpmt:cout.obj
 0002:00017200       _TI2?AVbad_cast@std@@      000000018004c200     libcpmt:cout.obj
 0002:00017220       _CTA2?AVbad_cast@std@@     000000018004c220     libcpmt:cout.obj
 0002:00017238       _CT??_R0?AVbad_cast@std@@@8??0bad_cast@std@@QEAA@AEBV01@@Z24 000000018004c238     libcpmt:cout.obj
 0002:00017260       _TI2?AVbad_alloc@std@@     000000018004c260     libcpmt:xthrow.obj
 0002:00017280       _CTA2?AVbad_alloc@std@@    000000018004c280     libcpmt:xthrow.obj
 0002:00017298       _CT??_R0?AVbad_alloc@std@@@8??0bad_alloc@std@@QEAA@AEBV01@@Z24 000000018004c298     libcpmt:xthrow.obj
 0002:000172c0       _CT??_R0?AVlogic_error@std@@@8??0logic_error@std@@QEAA@AEBV01@@Z24 000000018004c2c0     libcpmt:xthrow.obj
 0002:000172e8       _TI3?AVlength_error@std@@  000000018004c2e8     libcpmt:xthrow.obj
 0002:00017308       _CTA3?AVlength_error@std@@ 000000018004c308     libcpmt:xthrow.obj
 0002:00017328       _CT??_R0?AVlength_error@std@@@8??0length_error@std@@QEAA@AEBV01@@Z24 000000018004c328     libcpmt:xthrow.obj
 0002:00017350       _TI3?AVout_of_range@std@@  000000018004c350     libcpmt:xthrow.obj
 0002:00017370       _CTA3?AVout_of_range@std@@ 000000018004c370     libcpmt:xthrow.obj
 0002:00017390       _CT??_R0?AVout_of_range@std@@@8??0out_of_range@std@@QEAA@AEBV01@@Z24 000000018004c390     libcpmt:xthrow.obj
 0002:000173b8       _TI3?AVbad_array_new_length@std@@ 000000018004c3b8     LIBCMT:throw_bad_alloc.obj
 0002:000173d8       _CTA3?AVbad_array_new_length@std@@ 000000018004c3d8     LIBCMT:throw_bad_alloc.obj
 0002:000173f8       _CT??_R0?AVbad_array_new_length@std@@@8??0bad_array_new_length@std@@QEAA@AEBV01@@Z24 000000018004c3f8     LIBCMT:throw_bad_alloc.obj
 0002:00017420       _TI2?AVbad_exception@std@@ 000000018004c420     libvcruntime:frame.obj
 0002:00017440       _CTA2?AVbad_exception@std@@ 000000018004c440     libvcruntime:frame.obj
 0002:00017458       _CT??_R0?AVbad_exception@std@@@8??0bad_exception@std@@QEAA@AEBV01@@Z24 000000018004c458     libvcruntime:frame.obj
 0002:00017480       __DELAY_IMPORT_DESCRIPTOR_node_exe 000000018004c480     node:node.exe
 0002:000174a0       __NULL_DELAY_IMPORT_DESCRIPTOR 000000018004c4a0     node:node.exe
 0002:000175f8       \177node_NULL_THUNK_DATA_DLN 000000018004c5f8     node:node.exe
 0002:00017fc0       \177node_NULL_THUNK_DATA_DLB 000000018004cfc0     node:node.exe
 0002:00018150       __IMPORT_DESCRIPTOR_KERNEL32 000000018004d150     kernel32:KERNEL32.dll
 0002:00018164       __IMPORT_DESCRIPTOR_USER32 000000018004d164     user32:USER32.dll
 0002:00018178       __IMPORT_DESCRIPTOR_GDI32  000000018004d178     gdi32:GDI32.dll
 0002:0001818c       __IMPORT_DESCRIPTOR_ole32  000000018004d18c     ole32:ole32.dll
 0002:000181a0       __IMPORT_DESCRIPTOR_gdiplus 000000018004d1a0     GdiPlus:gdiplus.dll
 0002:000181b4       __IMPORT_DESCRIPTOR_MSIMG32 000000018004d1b4     Msimg32:MSIMG32.dll
 0002:000181c8       __IMPORT_DESCRIPTOR_ADVAPI32 000000018004d1c8     advapi32:ADVAPI32.dll
 0002:000181dc       __NULL_IMPORT_DESCRIPTOR   000000018004d1dc     kernel32:KERNEL32.dll
 0003:00000004       ?_Sync@ios_base@std@@0_NA  000000018004f004     libcpmt:ios.obj
 0003:00000020       ?_PJP_CPP_Copyright@@3PADA 000000018004f020     libcpmt:iosptrs.obj
 0003:00000080       _Init_global_epoch         000000018004f080     LIBCMT:thread_safe_statics.obj
 0003:00000084       __scrt_native_dllmain_reason 000000018004f084     LIBCMT:utility.obj
 0003:00000088       __security_cookie          000000018004f088     LIBCMT:gs_cookie.obj
 0003:00000090       __security_cookie_complement 000000018004f090     LIBCMT:gs_cookie.obj
 0003:00000098       _fltused                   000000018004f098     LIBCMT:fltused.obj
 0003:000000a0       __isa_available            000000018004f0a0     LIBCMT:_cpu_disp_.obj
 0003:000000a4       __isa_enabled              000000018004f0a4     LIBCMT:_cpu_disp_.obj
 0003:000000a8       __memcpy_nt_iters          000000018004f0a8     LIBCMT:_cpu_disp_.obj
 0003:00000110       __abort_behavior           000000018004f110     libucrt:abort.obj
 0003:00000120       __acrt_lconv_c             000000018004f120     libucrt:localeconv.obj
 0003:000001b8       __acrt_lconv               000000018004f1b8     libucrt:localeconv.obj
 0003:000001c0       __acrt_lconv_static_decimal 000000018004f1c0     libucrt:localeconv.obj
 0003:000001c4       __acrt_lconv_static_W_decimal 000000018004f1c4     libucrt:localeconv.obj
 0003:000001d0       _iob                       000000018004f1d0     libucrt:_file.obj
 0003:000002d8       _pctype                    000000018004f2d8     libucrt:ctype.obj
 0003:000002e0       _pwctype                   000000018004f2e0     libucrt:ctype.obj
 0003:00000300       __acrt_initial_locale_data 000000018004f300     libucrt:nlsdata.obj
 0003:00000458       __acrt_initial_locale_pointers 000000018004f458     libucrt:nlsdata.obj
 0003:00000468       __acrt_wide_c_locale_string 000000018004f468     libucrt:nlsdata.obj
 0003:0000046c       __mb_cur_max               000000018004f46c     libucrt:nlsdata.obj
 0003:00000470       __badioinfo                000000018004f470     libucrt:ioinit.obj
 0003:000004b4       __globallocalestatus       000000018004f4b4     libucrt:glstatus.obj
 0003:00000550       __acrt_initial_multibyte_data 000000018004f550     libucrt:mbctype.obj
 0003:00000778       __acrt_current_multibyte_data 000000018004f778     libucrt:mbctype.obj
 0003:00000880       _mbctype                   000000018004f880     libucrt:mbctype.obj
 0003:00000990       _mbcasemap                 000000018004f990     libucrt:mbctype.obj
 0003:00000a90       _lookuptrailbytes          000000018004fa90     libucrt:read.obj
 0003:00000b90       __dcrt_lowio_console_output_handle 000000018004fb90     libucrt:initcon.obj
 0003:00000be0       __pfnDliNotifyHook2        000000018004fbe0     win_delay_load_hook.obj
 0003:00000be8       ?s@?1??AUTO_INIT_GDIPLUS@FCImageCodec_Gdiplus@@SAAEAHXZ@4HA 000000018004fbe8     dealImg.obj
 0003:00000bf0       ??_R0?AVruntime_error@std@@@8 000000018004fbf0     libcpmt:cout.obj
 0003:00000c18       ??_R0?AVexception@std@@@8  000000018004fc18     libcpmt:cout.obj
 0003:00000c40       ??_R0?AVfailure@ios_base@std@@@8 000000018004fc40     libcpmt:cout.obj
 0003:00000c70       ??_R0?AVsystem_error@std@@@8 000000018004fc70     libcpmt:cout.obj
 0003:00000c98       ??_R0?AV_System_error@std@@@8 000000018004fc98     libcpmt:cout.obj
 0003:00000cc0       ??_R0?AVbad_cast@std@@@8   000000018004fcc0     libcpmt:cout.obj
 0003:00000ce8       ??_R0?AVios_base@std@@@8   000000018004fce8     libcpmt:cout.obj
 0003:00000d10       ??_R0?AV?$_Iosb@H@std@@@8  000000018004fd10     libcpmt:cout.obj
 0003:00000d38       ??_R0?AV?$basic_ios@DU?$char_traits@D@std@@@std@@@8 000000018004fd38     libcpmt:cout.obj
 0003:00000d80       ??_R0?AV?$basic_streambuf@DU?$char_traits@D@std@@@std@@@8 000000018004fd80     libcpmt:cout.obj
 0003:00000dd0       ??_R0?AV?$basic_ostream@DU?$char_traits@D@std@@@std@@@8 000000018004fdd0     libcpmt:cout.obj
 0003:00000e20       ??_R0?AV?$basic_filebuf@DU?$char_traits@D@std@@@std@@@8 000000018004fe20     libcpmt:cout.obj
 0003:00000e68       ??_R0?AV_Facet_base@std@@@8 000000018004fe68     libcpmt:cout.obj
 0003:00000e90       ??_R0?AVfacet@locale@std@@@8 000000018004fe90     libcpmt:cout.obj
 0003:00000eb8       ??_R0?AU_Crt_new_delete@std@@@8 000000018004feb8     libcpmt:cout.obj
 0003:00000ee8       ??_R0?AVcodecvt_base@std@@@8 000000018004fee8     libcpmt:cout.obj
 0003:00000f10       ??_R0?AUctype_base@std@@@8 000000018004ff10     libcpmt:cout.obj
 0003:00000f38       ??_R0?AV?$ctype@D@std@@@8  000000018004ff38     libcpmt:cout.obj
 0003:00000f60       ??_R0?AVerror_category@std@@@8 000000018004ff60     libcpmt:cout.obj
 0003:00000f90       ??_R0?AV_Generic_error_category@std@@@8 000000018004ff90     libcpmt:cout.obj
 0003:00000fc8       ??_R0?AV_Iostream_error_category@std@@@8 000000018004ffc8     libcpmt:cout.obj
 0003:00001000       ??_R0?AV?$codecvt@DDU_Mbstatet@@@std@@@8 0000000180050000     libcpmt:cout.obj
 0003:00001038       ??_R0?AV_Locimp@locale@std@@@8 0000000180050038     libcpmt:locale0.obj
 0003:00001068       ??_R0?AVbad_alloc@std@@@8  0000000180050068     libcpmt:xthrow.obj
 0003:00001090       ??_R0?AVlogic_error@std@@@8 0000000180050090     libcpmt:xthrow.obj
 0003:000010b8       ??_R0?AVlength_error@std@@@8 00000001800500b8     libcpmt:xthrow.obj
 0003:000010e0       ??_R0?AVout_of_range@std@@@8 00000001800500e0     libcpmt:xthrow.obj
 0003:00001108       ??_R0?AVtype_info@@@8      0000000180050108     LIBCMT:std_type_info_static.obj
 0003:00001128       ??_R0?AVbad_array_new_length@std@@@8 0000000180050128     LIBCMT:throw_bad_alloc.obj
 0003:00001158       ??_R0?AVbad_exception@std@@@8 0000000180050158     libvcruntime:frame.obj
 0003:00001180       __imp_?GetCurrent@Isolate@v8@@SAPEAV12@XZ 0000000180050180     node:node.exe
 0003:00001188       __imp_??1HandleScope@v8@@QEAA@XZ 0000000180050188     node:node.exe
 0003:00001190       __imp_??0HandleScope@v8@@QEAA@PEAVIsolate@1@@Z 0000000180050190     node:node.exe
 0003:00001198       __imp_?GetFunction@FunctionTemplate@v8@@QEAA?AV?$Local@VFunction@v8@@@2@XZ 0000000180050198     node:node.exe
 0003:000011a0       __imp_?New@FunctionTemplate@v8@@SA?AV?$Local@VFunctionTemplate@v8@@@2@PEAVIsolate@2@P6AXAEBV?$FunctionCallbackInfo@VValue@v8@@@2@@ZV?$Local@VValue@v8@@@2@V?$Local@VSignature@v8@@@2@H@Z 00000001800501a0     node:node.exe
 0003:000011a8       __imp_?NewFromUtf8@String@v8@@SA?AV?$Local@VString@v8@@@2@PEAVIsolate@2@PEBDW4NewStringType@12@H@Z 00000001800501a8     node:node.exe
 0003:000011b0       __imp_?GetIsolate@Object@v8@@QEAAPEAVIsolate@2@XZ 00000001800501b0     node:node.exe
 0003:000011b8       __imp_?Set@Object@v8@@QEAA_NV?$Local@VValue@v8@@@2@0@Z 00000001800501b8     node:node.exe
 0003:000011c0       __imp_?SetName@Function@v8@@QEAAXV?$Local@VString@v8@@@2@@Z 00000001800501c0     node:node.exe
 0003:000011c8       __imp_node_module_register 00000001800501c8     node:node.exe
 0003:000011d0       __imp_uv_queue_work        00000001800501d0     node:node.exe
 0003:000011d8       __imp_?Global@Context@v8@@QEAA?AV?$Local@VObject@v8@@@2@XZ 00000001800501d8     node:node.exe
 0003:000011e0       __imp_?New@Signature@v8@@SA?AV?$Local@VSignature@v8@@@2@PEAVIsolate@2@V?$Local@VFunctionTemplate@v8@@@2@@Z 00000001800501e0     node:node.exe
 0003:000011e8       __imp_?ThrowException@Isolate@v8@@QEAA?AV?$Local@VValue@v8@@@2@V32@@Z 00000001800501e8     node:node.exe
 0003:000011f0       __imp_?GetCurrentContext@Isolate@v8@@QEAA?AV?$Local@VContext@v8@@@2@XZ 00000001800501f0     node:node.exe
 0003:000011f8       __imp_?CreateHandle@HandleScope@v8@@KAPEAPEAVObject@internal@2@PEAVIsolate@42@PEAV342@@Z 00000001800501f8     node:node.exe
 0003:00001200       __imp_?Set@Template@v8@@QEAAXV?$Local@VName@v8@@@2@V?$Local@VData@v8@@@2@W4PropertyAttribute@2@@Z 0000000180050200     node:node.exe
 0003:00001208       __imp_?TypeError@Exception@v8@@SA?AV?$Local@VValue@v8@@@2@V?$Local@VString@v8@@@2@@Z 0000000180050208     node:node.exe
 0003:00001210       __imp_?SetClassName@FunctionTemplate@v8@@QEAAXV?$Local@VString@v8@@@2@@Z 0000000180050210     node:node.exe
 0003:00001218       __imp_?PrototypeTemplate@FunctionTemplate@v8@@QEAA?AV?$Local@VObjectTemplate@v8@@@2@XZ 0000000180050218     node:node.exe
 0003:00001220       __imp_?InstanceTemplate@FunctionTemplate@v8@@QEAA?AV?$Local@VObjectTemplate@v8@@@2@XZ 0000000180050220     node:node.exe
 0003:00001228       __imp_?ClearWeak@V8@v8@@CAPEAXPEAPEAVObject@internal@2@@Z 0000000180050228     node:node.exe
 0003:00001230       __imp_?MakeWeak@V8@v8@@CAXPEAPEAVObject@internal@2@PEAXP6AXAEBV?$WeakCallbackData@VValue@v8@@X@2@@Z@Z 0000000180050230     node:node.exe
 0003:00001238       __imp_?DisposeGlobal@V8@v8@@CAXPEAPEAVObject@internal@2@@Z 0000000180050238     node:node.exe
 0003:00001240       __imp_?GlobalizeReference@V8@v8@@CAPEAPEAVObject@internal@2@PEAVIsolate@42@PEAPEAV342@@Z 0000000180050240     node:node.exe
 0003:00001248       __imp_?IsNumber@Value@v8@@QEBA_NXZ 0000000180050248     node:node.exe
 0003:00001250       __imp_?New@Number@v8@@SA?AV?$Local@VNumber@v8@@@2@PEAVIsolate@2@N@Z 0000000180050250     node:node.exe
 0003:00001258       __imp_?Value@Number@v8@@QEBANXZ 0000000180050258     node:node.exe
 0003:00001260       __imp_?SlowGetAlignedPointerFromInternalField@Object@v8@@AEAAPEAXH@Z 0000000180050260     node:node.exe
 0003:00001268       __imp_?SetAlignedPointerInInternalField@Object@v8@@QEAAXHPEAX@Z 0000000180050268     node:node.exe
 0003:00001270       __imp_?InternalFieldCount@Object@v8@@QEAAHXZ 0000000180050270     node:node.exe
 0003:00001278       __imp_?Call@Function@v8@@QEAA?AV?$Local@VValue@v8@@@2@V32@HQEAV32@@Z 0000000180050278     node:node.exe
 0003:00001280       __imp_?NewInstance@Function@v8@@QEBA?AV?$Local@VObject@v8@@@2@HQEAV?$Local@VValue@v8@@@2@@Z 0000000180050280     node:node.exe
 0003:00001288       __imp_?SetInternalFieldCount@ObjectTemplate@v8@@QEAAXH@Z 0000000180050288     node:node.exe
 0003:00001290       __imp_?Data@Buffer@node@@YAPEADV?$Local@VObject@v8@@@v8@@@Z 0000000180050290     node:node.exe
 0003:00001298       __imp_?Length@Buffer@node@@YA_KV?$Local@VObject@v8@@@v8@@@Z 0000000180050298     node:node.exe
 0003:000012a0       __imp_uv_default_loop      00000001800502a0     node:node.exe
 0003:000012a8       __imp_?ToObject@Value@v8@@QEBA?AV?$Local@VObject@v8@@@2@XZ 00000001800502a8     node:node.exe
 0003:000012b0       __imp_?ToNumber@Value@v8@@QEBA?AV?$Local@VNumber@v8@@@2@XZ 00000001800502b0     node:node.exe
 0003:000012b8       \177node_NULL_THUNK_DATA_DLA 00000001800502b8     node:node.exe
 0003:000012c0       __hmod__node_exe           00000001800502c0     node:node.exe
 0003:00001430       ?cout@std@@3V?$basic_ostream@DU?$char_traits@D@std@@@1@A 0000000180050430     libcpmt:cout.obj
 0003:00001538       ?id@?$codecvt@DDU_Mbstatet@@@std@@2V0locale@2@A 0000000180050538     libcpmt:cout.obj
 0003:00001540       ?_Stinit@?1??_Init@?$basic_filebuf@DU?$char_traits@D@std@@@std@@IEAAXPEAU_iobuf@@W4_Initfl@23@@Z@4U_Mbstatet@@A 0000000180050540     libcpmt:cout.obj
 0003:00001548       ?_Psave@?$_Facetptr@V?$codecvt@DDU_Mbstatet@@@std@@@std@@2PEBVfacet@locale@2@EB 0000000180050548     libcpmt:cout.obj
 0003:00001558       ?_Id_cnt@id@locale@std@@0HA 0000000180050558     libcpmt:locale0.obj
 0003:00001560       ?_Clocptr@_Locimp@locale@std@@0PEAV123@EA 0000000180050560     libcpmt:locale0.obj
 0003:00001570       ?id@?$ctype@_W@std@@2V0locale@2@A 0000000180050570     libcpmt:locale0.obj
 0003:00001578       ?id@?$ctype@D@std@@2V0locale@2@A 0000000180050578     libcpmt:locale0.obj
 0003:00001580       ?id@?$codecvt@GDU_Mbstatet@@@std@@2V0locale@2@A 0000000180050580     libcpmt:locale0.obj
 0003:00001588       ?id@?$ctype@G@std@@2V0locale@2@A 0000000180050588     libcpmt:locale0.obj
 0003:000015a0       ?id@?$codecvt@_WDU_Mbstatet@@@std@@2V0locale@2@A 00000001800505a0     libcpmt:locale0.obj
 0003:000015b0       ?_Raise_handler@std@@3P6AXAEBVexception@stdext@@@ZEA 00000001800505b0     libcpmt:raisehan.obj
 0003:0000161c       ?_Index@ios_base@std@@0HA  000000018005061c     libcpmt:ios.obj
 0003:00001670       ?_Ptr_cin@std@@3PEAV?$basic_istream@DU?$char_traits@D@std@@@1@EA 0000000180050670     libcpmt:iosptrs.obj
 0003:00001678       ?_Ptr_cout@std@@3PEAV?$basic_ostream@DU?$char_traits@D@std@@@1@EA 0000000180050678     libcpmt:iosptrs.obj
 0003:00001680       ?_Ptr_cerr@std@@3PEAV?$basic_ostream@DU?$char_traits@D@std@@@1@EA 0000000180050680     libcpmt:iosptrs.obj
 0003:00001688       ?_Ptr_clog@std@@3PEAV?$basic_ostream@DU?$char_traits@D@std@@@1@EA 0000000180050688     libcpmt:iosptrs.obj
 0003:00001690       ?_Ptr_wcin@std@@3PEAV?$basic_istream@_WU?$char_traits@_W@std@@@1@EA 0000000180050690     libcpmt:iosptrs.obj
 0003:00001698       ?_Ptr_wcout@std@@3PEAV?$basic_ostream@_WU?$char_traits@_W@std@@@1@EA 0000000180050698     libcpmt:iosptrs.obj
 0003:000016a0       ?_Ptr_wcerr@std@@3PEAV?$basic_ostream@_WU?$char_traits@_W@std@@@1@EA 00000001800506a0     libcpmt:iosptrs.obj
 0003:000016a8       ?_Ptr_wclog@std@@3PEAV?$basic_ostream@_WU?$char_traits@_W@std@@@1@EA 00000001800506a8     libcpmt:iosptrs.obj
 0003:000016b8       ?id@?$num_get@DV?$istreambuf_iterator@DU?$char_traits@D@std@@@std@@@std@@2V0locale@2@A 00000001800506b8     libcpmt:locale.obj
 0003:000016c0       __encodedKERNEL32Functions 00000001800506c0     libcpmt:winapisupp.obj
 0003:00001800       ?id@?$time_put@_WV?$ostreambuf_iterator@_WU?$char_traits@_W@std@@@std@@@std@@2V0locale@2@A 0000000180050800     libcpmt:wlocale.obj
 0003:00001808       ?id@?$num_get@_WV?$istreambuf_iterator@_WU?$char_traits@_W@std@@@std@@@std@@2V0locale@2@A 0000000180050808     libcpmt:wlocale.obj
 0003:00001810       ?id@?$num_put@_WV?$ostreambuf_iterator@_WU?$char_traits@_W@std@@@std@@@std@@2V0locale@2@A 0000000180050810     libcpmt:wlocale.obj
 0003:00001818       ?id@?$numpunct@_W@std@@2V0locale@2@A 0000000180050818     libcpmt:wlocale.obj
 0003:00001820       ?id@?$collate@_W@std@@2V0locale@2@A 0000000180050820     libcpmt:wlocale.obj
 0003:00001828       ?id@?$messages@_W@std@@2V0locale@2@A 0000000180050828     libcpmt:wlocale.obj
 0003:00001830       ?id@?$money_get@_WV?$istreambuf_iterator@_WU?$char_traits@_W@std@@@std@@@std@@2V0locale@2@A 0000000180050830     libcpmt:wlocale.obj
 0003:00001838       ?id@?$money_put@_WV?$ostreambuf_iterator@_WU?$char_traits@_W@std@@@std@@@std@@2V0locale@2@A 0000000180050838     libcpmt:wlocale.obj
 0003:00001840       ?id@?$moneypunct@_W$0A@@std@@2V0locale@2@A 0000000180050840     libcpmt:wlocale.obj
 0003:00001848       ?id@?$moneypunct@_W$00@std@@2V0locale@2@A 0000000180050848     libcpmt:wlocale.obj
 0003:00001850       ?id@?$time_get@_WV?$istreambuf_iterator@_WU?$char_traits@_W@std@@@std@@@std@@2V0locale@2@A 0000000180050850     libcpmt:wlocale.obj
 0003:00001858       ?id@?$num_get@GV?$istreambuf_iterator@GU?$char_traits@G@std@@@std@@@std@@2V0locale@2@A 0000000180050858     libcpmt:wlocale.obj
 0003:00001860       ?id@?$num_put@GV?$ostreambuf_iterator@GU?$char_traits@G@std@@@std@@@std@@2V0locale@2@A 0000000180050860     libcpmt:wlocale.obj
 0003:00001868       ?id@?$numpunct@G@std@@2V0locale@2@A 0000000180050868     libcpmt:wlocale.obj
 0003:00001870       ?id@?$collate@G@std@@2V0locale@2@A 0000000180050870     libcpmt:wlocale.obj
 0003:00001878       ?id@?$messages@G@std@@2V0locale@2@A 0000000180050878     libcpmt:wlocale.obj
 0003:00001880       ?id@?$money_get@GV?$istreambuf_iterator@GU?$char_traits@G@std@@@std@@@std@@2V0locale@2@A 0000000180050880     libcpmt:wlocale.obj
 0003:00001888       ?id@?$money_put@GV?$ostreambuf_iterator@GU?$char_traits@G@std@@@std@@@std@@2V0locale@2@A 0000000180050888     libcpmt:wlocale.obj
 0003:00001890       ?id@?$moneypunct@G$0A@@std@@2V0locale@2@A 0000000180050890     libcpmt:wlocale.obj
 0003:00001898       ?id@?$moneypunct@G$00@std@@2V0locale@2@A 0000000180050898     libcpmt:wlocale.obj
 0003:000018a0       ?id@?$time_get@GV?$istreambuf_iterator@GU?$char_traits@G@std@@@std@@@std@@2V0locale@2@A 00000001800508a0     libcpmt:wlocale.obj
 0003:000018a8       ?id@?$time_put@GV?$ostreambuf_iterator@GU?$char_traits@G@std@@@std@@@std@@2V0locale@2@A 00000001800508a8     libcpmt:wlocale.obj
 0003:000018b0       ?id@?$collate@D@std@@2V0locale@2@A 00000001800508b0     libcpmt:xlocale.obj
 0003:000018b8       ?id@?$messages@D@std@@2V0locale@2@A 00000001800508b8     libcpmt:xlocale.obj
 0003:000018c0       ?id@?$money_get@DV?$istreambuf_iterator@DU?$char_traits@D@std@@@std@@@std@@2V0locale@2@A 00000001800508c0     libcpmt:xlocale.obj
 0003:000018c8       ?id@?$money_put@DV?$ostreambuf_iterator@DU?$char_traits@D@std@@@std@@@std@@2V0locale@2@A 00000001800508c8     libcpmt:xlocale.obj
 0003:000018d0       ?id@?$moneypunct@D$0A@@std@@2V0locale@2@A 00000001800508d0     libcpmt:xlocale.obj
 0003:000018d8       ?id@?$moneypunct@D$00@std@@2V0locale@2@A 00000001800508d8     libcpmt:xlocale.obj
 0003:000018e0       ?id@?$time_get@DV?$istreambuf_iterator@DU?$char_traits@D@std@@@std@@@std@@2V0locale@2@A 00000001800508e0     libcpmt:xlocale.obj
 0003:000018e8       ?id@?$time_put@DV?$ostreambuf_iterator@DU?$char_traits@D@std@@@std@@@std@@2V0locale@2@A 00000001800508e8     libcpmt:xlocale.obj
 0003:000018f0       ?_AtlBaseModule@ATL@@3VCAtlBaseModule@1@A 00000001800508f0     atls:atlbase.obj
 0003:00001950       __@@_PchSym_@00@UwwUexgllohUexHoryhUhsrkUzgonuxUhixUzgoUzgohUlyqBiUznwGEUhgwzucOlyq@CB7A8FA0488D52BF 0000000180050950     atls:stdafx.obj
 0003:000019a0       __scrt_current_native_startup_state 00000001800509a0     LIBCMT:utility.obj
 0003:000019a8       __scrt_native_startup_lock 00000001800509a8     LIBCMT:utility.obj
 0003:00001f60       __scrt_debugger_hook_flag  0000000180050f60     LIBCMT:utility_desktop.obj
 0003:00001f64       _tls_index                 0000000180050f64     LIBCMT:tlssup.obj
 0003:00001f68       __favor                    0000000180050f68     LIBCMT:_cpu_disp_.obj
 0003:00001f70       ?__type_info_root_node@@3U__type_info_node@@A 0000000180050f70     LIBCMT:tncleanup.obj
 0003:00001f80       ?_OptionsStorage@?1??__local_stdio_scanf_options@@9@4_KA 0000000180050f80     LIBCMT:default_local_stdio_options.obj
 0003:00001f88       ?g_OutOfMemoryExceptionCallback@@3P6APEAXXZEA 0000000180050f88     libvcruntime:frame.obj
 0003:00001ff8       __pPurecall                0000000180050ff8     libvcruntime:purevirt_data.obj
 0003:000020a8       ?pArgList@UnDecorator@@0PEAVReplicator@@EA 00000001800510a8     libvcruntime:undname.obj
 0003:000020b0       ?pZNameList@UnDecorator@@0PEAVReplicator@@EA 00000001800510b0     libvcruntime:undname.obj
 0003:000020b8       ?pTemplateArgList@UnDecorator@@0PEAVReplicator@@EA 00000001800510b8     libvcruntime:undname.obj
 0003:000020c0       ?gName@UnDecorator@@0PEBDEB 00000001800510c0     libvcruntime:undname.obj
 0003:000020c8       ?name@UnDecorator@@0PEBDEB 00000001800510c8     libvcruntime:undname.obj
 0003:000020d0       ?outputString@UnDecorator@@0PEADEA 00000001800510d0     libvcruntime:undname.obj
 0003:000020d8       ?maxStringLength@UnDecorator@@0HA 00000001800510d8     libvcruntime:undname.obj
 0003:000020dc       ?disableFlags@UnDecorator@@0KA 00000001800510dc     libvcruntime:undname.obj
 0003:000020e0       ?fExplicitTemplateParams@UnDecorator@@0_NA 00000001800510e0     libvcruntime:undname.obj
 0003:000020e1       ?fGetTemplateArgumentList@UnDecorator@@0_NA 00000001800510e1     libvcruntime:undname.obj
 0003:000020e8       ?m_pGetParameter@UnDecorator@@0P6APEADJ@ZEA 00000001800510e8     libvcruntime:undname.obj
 0003:00002120       __acrt_lconv_static_null   0000000180051120     libucrt:localeconv.obj
 0003:00002124       __acrt_lconv_static_W_null 0000000180051124     libucrt:localeconv.obj
 0003:00002340       _nstream                   0000000180051340     libucrt:_file.obj
 0003:00002348       __piob                     0000000180051348     libucrt:_file.obj
 0003:00002350       _cflush                    0000000180051350     libucrt:_file.obj
 0003:00002478       _environ_table             0000000180051478     libucrt:environment_initialization.obj
 0003:00002480       _wenviron_table            0000000180051480     libucrt:environment_initialization.obj
 0003:00002488       __dcrt_initial_wide_environment 0000000180051488     libucrt:environment_initialization.obj
 0003:00002490       __dcrt_initial_narrow_environment 0000000180051490     libucrt:environment_initialization.obj
 0003:00002498       __acrt_atexit_table        0000000180051498     libucrt:onexit.obj
 0003:000024b0       __acrt_at_quick_exit_table 00000001800514b0     libucrt:onexit.obj
 0003:000024f0       __acrt_locale_changed_data 00000001800514f0     libucrt:wsetlocale.obj
 0003:000024f8       __acrt_current_locale_data 00000001800514f8     libucrt:nlsdata.obj
 0003:00002508       __acrt_stdout_buffer       0000000180051508     libucrt:_sftbuf.obj
 0003:00002510       __acrt_stderr_buffer       0000000180051510     libucrt:_sftbuf.obj
 0003:00002520       __pioinfo                  0000000180051520     libucrt:ioinit.obj
 0003:00002920       _nhandle                   0000000180051920     libucrt:ioinit.obj
 0003:00002ae0       __acrt_heap                0000000180051ae0     libucrt:heap_handle.obj
 0003:00002ae8       __fma3_is_available        0000000180051ae8     libucrt:fma3_available.obj
 0003:00002aec       __use_fma3_lib             0000000180051aec     libucrt:fma3_available.obj
 0003:00002af0       ?_timezone@@3V?$dual_state_global@J@__crt_state_management@@A 0000000180051af0     libucrt:timeset.obj
 0003:00002af4       ?_daylight@@3V?$dual_state_global@H@__crt_state_management@@A 0000000180051af4     libucrt:timeset.obj
 0003:00002af8       ?_dstbias@@3V?$dual_state_global@J@__crt_state_management@@A 0000000180051af8     libucrt:timeset.obj
 0003:00002bcc       __mbcodepage               0000000180051bcc     libucrt:mbctype.obj
 0003:00002bd0       __ismbcodepage             0000000180051bd0     libucrt:mbctype.obj
 0003:00002bd8       __mbulinfo                 0000000180051bd8     libucrt:mbctype.obj
 0003:00002be8       __mblocalename             0000000180051be8     libucrt:mbctype.obj
 0003:00002bf4       __argc                     0000000180051bf4     libucrt:argv_data.obj
 0003:00002bf8       __argv                     0000000180051bf8     libucrt:argv_data.obj
 0003:00002c00       __wargv                    0000000180051c00     libucrt:argv_data.obj
 0003:00002c08       _acmdln                    0000000180051c08     libucrt:argv_data.obj
 0003:00002c10       _wcmdln                    0000000180051c10     libucrt:argv_data.obj
 0003:00002c18       _pgmptr                    0000000180051c18     libucrt:argv_data.obj
 0003:00002c28       ?DloadKernel32@@3PEAUHINSTANCE__@@EA 0000000180051c28     DelayImp:delayhlp.obj
 0003:00002c30       ?DloadAcquireSRWLockExclusive@@3P6AXPEA_K@ZEA 0000000180051c30     DelayImp:delayhlp.obj
 0003:00002c38       ?DloadReleaseSRWLockExclusive@@3P6AXPEA_K@ZEA 0000000180051c38     DelayImp:delayhlp.obj
 0003:00002c40       ?DloadSrwLock@@3_KA        0000000180051c40     DelayImp:delayhlp.obj
 0003:00002c48       ?DloadSectionLockCount@@3KA 0000000180051c48     DelayImp:delayhlp.obj
 0003:00002c4c       ?DloadSectionOldProtection@@3KA 0000000180051c4c     DelayImp:delayhlp.obj
 0003:00002c50       ?DloadSectionCommitPermanent@@3KA 0000000180051c50     DelayImp:delayhlp.obj
 0003:00002c58       __pfnDliFailureHook2       0000000180051c58     DelayImp:delayhk1.obj
 0003:00002d00       ?constructor@set@dealImg@@0V?$Persistent@VFunction@v8@@V?$NonCopyablePersistentTraits@VFunction@v8@@@2@@v8@@A 0000000180051d00     dealImg.obj
 0003:00002d08       ?m_bInitFailed@CAtlBaseModule@ATL@@2_NA 0000000180051d08     addon.obj
 0003:00002d10       ?_Psave@?$_Facetptr@V?$ctype@D@std@@@std@@2PEBVfacet@locale@2@EB 0000000180051d10     dealImg.obj
 0003:00002d18       ?id@?$num_put@DV?$ostreambuf_iterator@DU?$char_traits@D@std@@@std@@@std@@2V0locale@2@A 0000000180051d18     dealImg.obj
 0003:00002d20       ?$TSS0@?1??g_codec_factory@FCObjImage@@CAAEAV?$auto_ptr@VFCImageCodecFactory@@@std@@XZ@4HA 0000000180051d20     dealImg.obj
 0003:00002d28       ?_OptionsStorage@?1??__local_stdio_printf_options@@9@4_KA 0000000180051d28     dealImg.obj
 0003:00002d30       ?id@?$numpunct@D@std@@2V0locale@2@A 0000000180051d30     dealImg.obj
 0003:00002d38       ?$TSS0@?1???$_Immortalize@V_Iostream_error_category@std@@@std@@YAAEAV_Iostream_error_category@1@XZ@4HA 0000000180051d38     dealImg.obj
 0003:00002d40       ?s_pFactory@?1??g_codec_factory@FCObjImage@@CAAEAV?$auto_ptr@VFCImageCodecFactory@@@std@@XZ@4V34@A 0000000180051d40     dealImg.obj
 0003:00002d48       ?_Static@?1???$_Immortalize@V_Iostream_error_category@std@@@std@@YAAEAV_Iostream_error_category@1@XZ@4U?$_Immortalizer@V_Iostream_error_category@std@@@1@A 0000000180051d48     dealImg.obj
 0003:00002d58       __dyn_tls_init_callback    0000000180051d58     <common>
 0003:00002d60       __scrt_ucrt_dll_is_in_use  0000000180051d60     <common>
 0006:00000000       _tls_start                 0000000180056000     LIBCMT:tlssup.obj
 0006:00000004       _Init_thread_epoch         0000000180056004     LIBCMT:thread_safe_statics.obj
 0006:00000008       _tls_end                   0000000180056008     LIBCMT:tlssup.obj

 entry point at        0001:000140f0

 Static symbols

 0000:fffa6000       .debug$S                   0000000180000000     kernel32:KERNEL32.dll
 0000:fffa6000       .debug$S                   0000000180000000     node:node.exe
 0000:fffa6000       .debug$S                   0000000180000000     dealImg.exp
 0000:fffa6000       .debug$S                   0000000180000000     kernel32:KERNEL32.dll
 0000:fffa6000       .debug$S                   0000000180000000     kernel32:KERNEL32.dll
 0000:fffa6000       .debug$S                   0000000180000000     kernel32:KERNEL32.dll
 0000:fffa6000       .debug$S                   0000000180000000     kernel32:KERNEL32.dll
 0000:fffa6000       .debug$S                   0000000180000000     node:node.exe
 0000:fffa6000       .debug$S                   0000000180000000     kernel32:KERNEL32.dll
 0000:fffa6000       .debug$S                   0000000180000000     node:node.exe
 0000:fffa6000       .debug$S                   0000000180000000     kernel32:KERNEL32.dll
 0000:fffa6000       .debug$S                   0000000180000000     kernel32:KERNEL32.dll
 0000:fffa6000       .debug$S                   0000000180000000     node:node.exe
 0000:fffa6000       .debug$S                   0000000180000000     kernel32:KERNEL32.dll
 0000:fffa6000       .debug$S                   0000000180000000     kernel32:KERNEL32.dll
 0000:fffa6000       .debug$S                   0000000180000000     kernel32:KERNEL32.dll
 0000:fffa6000       .debug$S                   0000000180000000     node:node.exe
 0000:fffa6000       .debug$S                   0000000180000000     node:node.exe
 0000:fffa6000       .debug$S                   0000000180000000     node:node.exe
 0000:fffa6000       .debug$S                   0000000180000000     node:node.exe
 0000:fffa6000       .debug$S                   0000000180000000     node:node.exe
 0000:fffa6000       .debug$S                   0000000180000000     node:node.exe
 0000:fffa6000       .debug$S                   0000000180000000     kernel32:KERNEL32.dll
 0000:fffa6000       .debug$S                   0000000180000000     kernel32:KERNEL32.dll
 0000:fffa6000       .debug$S                   0000000180000000     kernel32:KERNEL32.dll
 0000:fffa6000       .debug$S                   0000000180000000     kernel32:KERNEL32.dll
 0000:fffa6000       .debug$S                   0000000180000000     kernel32:KERNEL32.dll
 0000:fffa6000       .debug$S                   0000000180000000     kernel32:KERNEL32.dll
 0000:fffa6000       .debug$S                   0000000180000000     kernel32:KERNEL32.dll
 0000:fffa6000       .debug$S                   0000000180000000     kernel32:KERNEL32.dll
 0000:fffa6000       .debug$S                   0000000180000000     kernel32:KERNEL32.dll
 0000:fffa6000       .debug$S                   0000000180000000     kernel32:KERNEL32.dll
 0000:fffa6000       .debug$S                   0000000180000000     kernel32:KERNEL32.dll
 0000:fffa6000       .debug$S                   0000000180000000     kernel32:KERNEL32.dll
 0000:fffa6000       .debug$S                   0000000180000000     kernel32:KERNEL32.dll
 0000:fffa6000       .debug$S                   0000000180000000     node:node.exe
 0000:fffa6000       .debug$S                   0000000180000000     kernel32:KERNEL32.dll
 0000:fffa6000       .debug$S                   0000000180000000     node:node.exe
 0000:fffa6000       .debug$S                   0000000180000000     node:node.exe
 0000:fffa6000       .debug$S                   0000000180000000     node:node.exe
 0000:fffa6000       .debug$S                   0000000180000000     node:node.exe
 0000:fffa6000       .debug$S                   0000000180000000     node:node.exe
 0000:fffa6000       .debug$S                   0000000180000000     node:node.exe
 0000:fffa6000       .debug$S                   0000000180000000     node:node.exe
 0000:fffa6000       .debug$S                   0000000180000000     node:node.exe
 0000:fffa6000       .debug$S                   0000000180000000     node:node.exe
 0000:fffa6000       .debug$S                   0000000180000000     node:node.exe
 0000:fffa6000       .debug$S                   0000000180000000     node:node.exe
 0000:fffa6000       .debug$S                   0000000180000000     kernel32:KERNEL32.dll
 0000:fffa6000       .debug$S                   0000000180000000     node:node.exe
 0000:fffa6000       .debug$S                   0000000180000000     kernel32:KERNEL32.dll
 0000:fffa6000       .debug$S                   0000000180000000     kernel32:KERNEL32.dll
 0000:fffa6000       .debug$S                   0000000180000000     kernel32:KERNEL32.dll
 0000:fffa6000       .debug$S                   0000000180000000     kernel32:KERNEL32.dll
 0000:fffa6000       .debug$S                   0000000180000000     kernel32:KERNEL32.dll
 0000:fffa6000       .debug$S                   0000000180000000     kernel32:KERNEL32.dll
 0000:fffa6000       .debug$S                   0000000180000000     kernel32:KERNEL32.dll
 0000:fffa6000       .debug$S                   0000000180000000     kernel32:KERNEL32.dll
 0000:fffa6000       .debug$S                   0000000180000000     kernel32:KERNEL32.dll
 0000:fffa6000       .debug$S                   0000000180000000     node:node.exe
 0000:fffa6000       .debug$S                   0000000180000000     kernel32:KERNEL32.dll
 0000:fffa6000       .debug$S                   0000000180000000     node:node.exe
 0000:fffa6000       .debug$S                   0000000180000000     kernel32:KERNEL32.dll
 0000:fffa6000       .debug$S                   0000000180000000     node:node.exe
 0000:fffa6000       .debug$S                   0000000180000000     node:node.exe
 0000:fffa6000       .debug$S                   0000000180000000     node:node.exe
 0000:fffa6000       .debug$S                   0000000180000000     kernel32:KERNEL32.dll
 0000:fffa6000       .debug$S                   0000000180000000     kernel32:KERNEL32.dll
 0000:fffa6000       .debug$S                   0000000180000000     kernel32:KERNEL32.dll
 0000:fffa6000       .debug$S                   0000000180000000     kernel32:KERNEL32.dll
 0000:fffa6000       .debug$S                   0000000180000000     kernel32:KERNEL32.dll
 0000:fffa6000       .debug$S                   0000000180000000     kernel32:KERNEL32.dll
 0000:fffa6000       .debug$S                   0000000180000000     kernel32:KERNEL32.dll
 0000:fffa6000       .debug$S                   0000000180000000     kernel32:KERNEL32.dll
 0000:fffa6000       .debug$S                   0000000180000000     kernel32:KERNEL32.dll
 0000:fffa6000       .debug$S                   0000000180000000     kernel32:KERNEL32.dll
 0000:fffa6000       .debug$S                   0000000180000000     kernel32:KERNEL32.dll
 0000:fffa6000       .debug$S                   0000000180000000     node:node.exe
 0000:fffa6000       .debug$S                   0000000180000000     node:node.exe
 0000:fffa6000       .debug$S                   0000000180000000     node:node.exe
 0000:fffa6000       .debug$S                   0000000180000000     node:node.exe
 0000:fffa6000       .debug$S                   0000000180000000     node:node.exe
 0000:fffa6000       .debug$S                   0000000180000000     kernel32:KERNEL32.dll
 0000:fffa6000       .debug$S                   0000000180000000     kernel32:KERNEL32.dll
 0000:fffa6000       .debug$S                   0000000180000000     kernel32:KERNEL32.dll
 0000:fffa6000       .debug$S                   0000000180000000     kernel32:KERNEL32.dll
 0000:fffa6000       .debug$S                   0000000180000000     kernel32:KERNEL32.dll
 0000:fffa6000       .debug$S                   0000000180000000     node:node.exe
 0000:fffa6000       .debug$S                   0000000180000000     kernel32:KERNEL32.dll
 0000:fffa6000       .debug$S                   0000000180000000     kernel32:KERNEL32.dll
 0000:fffa6000       .debug$S                   0000000180000000     kernel32:KERNEL32.dll
 0000:fffa6000       .debug$S                   0000000180000000     kernel32:KERNEL32.dll
 0000:fffa6000       .debug$S                   0000000180000000     node:node.exe
 0000:fffa6000       .debug$S                   0000000180000000     kernel32:KERNEL32.dll
 0000:fffa6000       .debug$S                   0000000180000000     kernel32:KERNEL32.dll
 0000:fffa6000       .debug$S                   0000000180000000     node:node.exe
 0000:fffa6000       .debug$S                   0000000180000000     kernel32:KERNEL32.dll
 0000:fffa6000       .debug$S                   0000000180000000     kernel32:KERNEL32.dll
 0000:fffa6000       .debug$S                   0000000180000000     kernel32:KERNEL32.dll
 0000:fffa6000       .debug$S                   0000000180000000     kernel32:KERNEL32.dll
 0000:fffa6000       .debug$S                   0000000180000000     kernel32:KERNEL32.dll
 0000:fffa6000       .debug$S                   0000000180000000     kernel32:KERNEL32.dll
 0000:fffa6000       .debug$S                   0000000180000000     kernel32:KERNEL32.dll
 0000:fffa6000       .debug$S                   0000000180000000     kernel32:KERNEL32.dll
 0000:fffa6000       .debug$S                   0000000180000000     kernel32:KERNEL32.dll
 0000:fffa6000       .debug$S                   0000000180000000     node:node.exe
 0000:fffa6000       .debug$S                   0000000180000000     node:node.exe
 0000:fffa6000       .debug$S                   0000000180000000     kernel32:KERNEL32.dll
 0000:fffa6000       .debug$S                   0000000180000000     kernel32:KERNEL32.dll
 0000:fffa6000       .debug$S                   0000000180000000     kernel32:KERNEL32.dll
 0000:fffa6000       .debug$S                   0000000180000000     kernel32:KERNEL32.dll
 0000:fffa6000       .debug$S                   0000000180000000     node:node.exe
 0000:fffa6000       .debug$S                   0000000180000000     node:node.exe
 0000:fffa6000       .debug$S                   0000000180000000     kernel32:KERNEL32.dll
 0000:fffa6000       .debug$S                   0000000180000000     kernel32:KERNEL32.dll
 0000:fffa6000       .debug$S                   0000000180000000     Msimg32:MSIMG32.dll
 0000:fffa6000       .debug$S                   0000000180000000     kernel32:KERNEL32.dll
 0000:fffa6000       .debug$S                   0000000180000000     kernel32:KERNEL32.dll
 0000:fffa6000       .debug$S                   0000000180000000     GdiPlus:gdiplus.dll
 0000:fffa6000       .debug$S                   0000000180000000     GdiPlus:gdiplus.dll
 0000:fffa6000       .debug$S                   0000000180000000     GdiPlus:gdiplus.dll
 0000:fffa6000       .debug$S                   0000000180000000     kernel32:KERNEL32.dll
 0000:fffa6000       .debug$S                   0000000180000000     GdiPlus:gdiplus.dll
 0000:fffa6000       .debug$S                   0000000180000000     GdiPlus:gdiplus.dll
 0000:fffa6000       .debug$S                   0000000180000000     GdiPlus:gdiplus.dll
 0000:fffa6000       .debug$S                   0000000180000000     kernel32:KERNEL32.dll
 0000:fffa6000       .debug$S                   0000000180000000     GdiPlus:gdiplus.dll
 0000:fffa6000       .debug$S                   0000000180000000     kernel32:KERNEL32.dll
 0000:fffa6000       .debug$S                   0000000180000000     GdiPlus:gdiplus.dll
 0000:fffa6000       .debug$S                   0000000180000000     kernel32:KERNEL32.dll
 0000:fffa6000       .debug$S                   0000000180000000     GdiPlus:gdiplus.dll
 0000:fffa6000       .debug$S                   0000000180000000     kernel32:KERNEL32.dll
 0000:fffa6000       .debug$S                   0000000180000000     GdiPlus:gdiplus.dll
 0000:fffa6000       .debug$S                   0000000180000000     GdiPlus:gdiplus.dll
 0000:fffa6000       .debug$S                   0000000180000000     GdiPlus:gdiplus.dll
 0000:fffa6000       .debug$S                   0000000180000000     kernel32:KERNEL32.dll
 0000:fffa6000       .debug$S                   0000000180000000     GdiPlus:gdiplus.dll
 0000:fffa6000       .debug$S                   0000000180000000     kernel32:KERNEL32.dll
 0000:fffa6000       .debug$S                   0000000180000000     GdiPlus:gdiplus.dll
 0000:fffa6000       .debug$S                   0000000180000000     kernel32:KERNEL32.dll
 0000:fffa6000       .debug$S                   0000000180000000     GdiPlus:gdiplus.dll
 0000:fffa6000       .debug$S                   0000000180000000     GdiPlus:gdiplus.dll
 0000:fffa6000       .debug$S                   0000000180000000     GdiPlus:gdiplus.dll
 0000:fffa6000       .debug$S                   0000000180000000     kernel32:KERNEL32.dll
 0000:fffa6000       .debug$S                   0000000180000000     GdiPlus:gdiplus.dll
 0000:fffa6000       .debug$S                   0000000180000000     GdiPlus:gdiplus.dll
 0000:fffa6000       .debug$S                   0000000180000000     GdiPlus:gdiplus.dll
 0000:fffa6000       .debug$S                   0000000180000000     kernel32:KERNEL32.dll
 0000:fffa6000       .debug$S                   0000000180000000     GdiPlus:gdiplus.dll
 0000:fffa6000       .debug$S                   0000000180000000     GdiPlus:gdiplus.dll
 0000:fffa6000       .debug$S                   0000000180000000     GdiPlus:gdiplus.dll
 0000:fffa6000       .debug$S                   0000000180000000     kernel32:KERNEL32.dll
 0000:fffa6000       .debug$S                   0000000180000000     GdiPlus:gdiplus.dll
 0000:fffa6000       .debug$S                   0000000180000000     GdiPlus:gdiplus.dll
 0000:fffa6000       .debug$S                   0000000180000000     GdiPlus:gdiplus.dll
 0000:fffa6000       .debug$S                   0000000180000000     GdiPlus:gdiplus.dll
 0000:fffa6000       .debug$S                   0000000180000000     GdiPlus:gdiplus.dll
 0000:fffa6000       .debug$S                   0000000180000000     GdiPlus:gdiplus.dll
 0000:fffa6000       .debug$S                   0000000180000000     kernel32:KERNEL32.dll
 0000:fffa6000       .debug$S                   0000000180000000     kernel32:KERNEL32.dll
 0000:fffa6000       .debug$S                   0000000180000000     kernel32:KERNEL32.dll
 0000:fffa6000       .debug$S                   0000000180000000     node:node.exe
 0000:fffa6000       .debug$S                   0000000180000000     kernel32:KERNEL32.dll
 0000:fffa6000       .debug$S                   0000000180000000     node:node.exe
 0000:fffa6000       .debug$S                   0000000180000000     kernel32:KERNEL32.dll
 0000:fffa6000       .debug$S                   0000000180000000     kernel32:KERNEL32.dll
 0000:fffa6000       .debug$S                   0000000180000000     kernel32:KERNEL32.dll
 0000:fffa6000       .debug$S                   0000000180000000     kernel32:KERNEL32.dll
 0000:fffa6000       .debug$S                   0000000180000000     node:node.exe
 0000:fffa6000       .debug$S                   0000000180000000     kernel32:KERNEL32.dll
 0000:fffa6000       .debug$S                   0000000180000000     kernel32:KERNEL32.dll
 0000:fffa6000       .debug$S                   0000000180000000     kernel32:KERNEL32.dll
 0000:fffa6000       .debug$S                   0000000180000000     kernel32:KERNEL32.dll
 0000:fffa6000       .debug$S                   0000000180000000     kernel32:KERNEL32.dll
 0000:fffa6000       .debug$S                   0000000180000000     kernel32:KERNEL32.dll
 0000:fffa6000       .debug$S                   0000000180000000     kernel32:KERNEL32.dll
 0000:fffa6000       .debug$S                   0000000180000000     kernel32:KERNEL32.dll
 0000:fffa6000       .debug$S                   0000000180000000     kernel32:KERNEL32.dll
 0000:fffa6000       .debug$S                   0000000180000000     kernel32:KERNEL32.dll
 0000:fffa6000       .debug$S                   0000000180000000     kernel32:KERNEL32.dll
 0000:fffa6000       .debug$S                   0000000180000000     kernel32:KERNEL32.dll
 0000:fffa6000       .debug$S                   0000000180000000     ole32:ole32.dll
 0000:fffa6000       .debug$S                   0000000180000000     advapi32:ADVAPI32.dll
 0000:fffa6000       .debug$S                   0000000180000000     gdi32:GDI32.dll
 0000:fffa6000       .debug$S                   0000000180000000     kernel32:KERNEL32.dll
 0000:fffa6000       .debug$S                   0000000180000000     gdi32:GDI32.dll
 0000:fffa6000       .debug$S                   0000000180000000     gdi32:GDI32.dll
 0000:fffa6000       .debug$S                   0000000180000000     user32:USER32.dll
 0000:fffa6000       .debug$S                   0000000180000000     user32:USER32.dll
 0000:fffa6000       .debug$S                   0000000180000000     gdi32:GDI32.dll
 0000:fffa6000       .debug$S                   0000000180000000     gdi32:GDI32.dll
 0000:fffa6000       .debug$S                   0000000180000000     gdi32:GDI32.dll
 0000:fffa6000       .debug$S                   0000000180000000     gdi32:GDI32.dll
 0000:fffa6000       .debug$S                   0000000180000000     gdi32:GDI32.dll
 0000:fffa6000       .debug$S                   0000000180000000     gdi32:GDI32.dll
 0000:fffa6000       .debug$S                   0000000180000000     gdi32:GDI32.dll
 0000:fffa6000       .debug$S                   0000000180000000     gdi32:GDI32.dll
 0000:fffa6000       .debug$S                   0000000180000000     gdi32:GDI32.dll
 0000:fffa6000       .debug$S                   0000000180000000     gdi32:GDI32.dll
 0000:fffa6000       .debug$S                   0000000180000000     node:node.exe
 0001:000001e0       ??__E?constructor@set@dealImg@@0V?$Persistent@VFunction@v8@@V?$NonCopyablePersistentTraits@VFunction@v8@@@2@@v8@@A@@YAXXZ 00000001800011e0 f   dealImg.obj
 0001:000001f8       ??__Einitlocks@std@@YAXXZ  00000001800011f8 f   libcpmt:xlock.obj
 0001:00000218       ??__Ecout@std@@YAXXZ       0000000180001218 f   libcpmt:cout.obj
 0001:00000248       ??__Efout@std@@YAXXZ       0000000180001248 f   libcpmt:cout.obj
 0001:00000298       ??__Einit_cout@std@@YAXXZ  0000000180001298 f   libcpmt:cout.obj
 0001:000002a4       ??__Einitlocks@@YAXXZ      00000001800012a4 f   libcpmt:cout.obj
 0001:000002c4       ??__E_Fac_tidy_reg@std@@YAXXZ 00000001800012c4 f   libcpmt:locale0.obj
 0001:000002d0       ??__Eclassic_locale@std@@YAXXZ 00000001800012d0 f   libcpmt:locale0.obj
 0001:000002dc       ??__Einit_atexit@@YAXXZ    00000001800012dc f   libcpmt:iosptrs.obj
 0001:000002e8       ??__Einitlocks@std@@YAXXZ  00000001800012e8 f   libcpmt:iosptrs.obj
 0001:00000308       ??__E_AtlBaseModule@ATL@@YAXXZ 0000000180001308 f   atls:atlbase.obj
 0001:00000410       _register_addon            0000000180001410 f   addon.obj
 0001:00001e70       $LN38                      0000000180002e70     dealImg.obj
 0001:00003860       $LN389                     0000000180004860     dealImg.obj
 0001:00003b14       $LN703                     0000000180004b14     dealImg.obj
 0001:00005b30       $LN8                       0000000180006b30     dealImg.obj
 0001:000067b0       no_op_initialize           00000001800077b0 f i libucrt:wsetlocale.obj
 0001:0000e334       $LN759                     000000018000f334     dealImg.obj
 0001:000104a0       load_exe_hook              00000001800114a0 f   win_delay_load_hook.obj
 0001:000123b0       tidy_global                00000001800133b0 f   libcpmt:locale0.obj
 0001:00012e30       ?initialize_pointers@@YAHXZ 0000000180013e30 f   libcpmt:winapisupp.obj
 0001:00013620       $$000000                   0000000180014620     LIBCMT:_amdsecgs_.obj
 0001:00013654       ?__scrt_initialize_thread_safe_statics@@YAHXZ 0000000180014654 f   LIBCMT:thread_safe_statics.obj
 0001:00013774       ?__scrt_uninitialize_thread_safe_statics@@YAXXZ 0000000180014774 f   LIBCMT:thread_safe_statics.obj
 0001:00013d80       ?dllmain_crt_dispatch@@YAHQEAUHINSTANCE__@@KQEAX@Z 0000000180014d80 f   LIBCMT:dll_dllmain.obj
 0001:00013dd0       ?dllmain_crt_process_attach@@YAHQEAUHINSTANCE__@@QEAX@Z 0000000180014dd0 f   LIBCMT:dll_dllmain.obj
 0001:00013efc       ?dllmain_crt_process_detach@@YAH_N@Z 0000000180014efc f   LIBCMT:dll_dllmain.obj
 0001:00013f80       ?dllmain_dispatch@@YAHQEAUHINSTANCE__@@KQEAX@Z 0000000180014f80 f   LIBCMT:dll_dllmain.obj
 0001:0001409c       ?dllmain_raw@@YAHQEAUHINSTANCE__@@KQEAX@Z 000000018001509c f   LIBCMT:dll_dllmain.obj
 0001:00014270       $$000000                   0000000180015270     LIBCMT:_chkstk_.obj
 0001:0001448c       capture_current_context    000000018001548c f   LIBCMT:gs_report.obj
 0001:000144fc       capture_previous_context   00000001800154fc f   LIBCMT:gs_report.obj
 0001:00014aa0       $$000000                   0000000180015aa0     libvcruntime:memcpy.obj
 0001:00014b47       MoveSmall                  0000000180015b47     libvcruntime:memcpy.obj
 0001:00015020       ?CatchIt@@YAXPEAUEHExceptionRecord@@PEA_KPEAU_CONTEXT@@PEAU_xDISPATCHER_CONTEXT@@PEBU_s_FuncInfo@@PEBU_s_HandlerType@@PEBU_s_CatchableType@@PEBU_s_TryBlockMapEntry@@H1EE@Z 0000000180016020 f   libvcruntime:frame.obj
 0001:000150e4       ?ExFilterRethrow@@YAHPEAU_EXCEPTION_POINTERS@@PEAUEHExceptionRecord@@PEAH@Z 00000001800160e4 f   libvcruntime:frame.obj
 0001:0001516c       ?FindHandler@@YAXPEAUEHExceptionRecord@@PEA_KPEAU_CONTEXT@@PEAU_xDISPATCHER_CONTEXT@@PEBU_s_FuncInfo@@EH1@Z 000000018001616c f   libvcruntime:frame.obj
 0001:00015620       ?FindHandlerForForeignException@@YAXPEAUEHExceptionRecord@@PEA_KPEAU_CONTEXT@@PEAU_xDISPATCHER_CONTEXT@@PEBU_s_FuncInfo@@HH1@Z 0000000180016620 f   libvcruntime:frame.obj
 0001:0001588c       ?IsInExceptionSpec@@YAEPEAUEHExceptionRecord@@PEBU_s_ESTypeList@@@Z 000000018001688c f   libvcruntime:frame.obj
 0001:00016b90       $$000000                   0000000180017b90     libvcruntime:memset.obj
 0001:00016c7c       MsetTab                    0000000180017c7c     libvcruntime:memset.obj
 0001:00016d40       $$000000                   0000000180017d40     libvcruntime:memcmp.obj
 0001:00016e18       ?try_get_function@@YAPEAXW4function_id@?A0x49c8dc86@@QEBDQEBW4module_id@2@2@Z 0000000180017e18 f   libvcruntime:winapi_downlevel.obj
 0001:000176c0       _TlgDefineProvider_annotation__Tlg_Microsoft_CRTProviderProv 00000001800186c0 f   libvcruntime:telemetry.obj
 0001:00017c60       $$000000                   0000000180018c60     libvcruntime:handlers.obj
 0001:00017cb0       $$000000                   0000000180018cb0     libvcruntime:_jmpuwind_.obj
 0001:00018138       ?internal_isupper_l@@YA_NHQEAU__crt_locale_pointers@@@Z 0000000180019138 f   libucrt:tolower_toupper.obj
 0001:00018708       ??R<lambda_dd75445284c072d0bd3768540cc698fa>@@QEBAHXZ 0000000180019708 f   libucrt:output.obj
 0001:0001a420       ??$common_assert_to_message_box@_W@@YAXQEB_W0IQEAX@Z 000000018001b420 f   libucrt:assert.obj
 0001:0001a4e4       ??$common_assert_to_message_box_build_string@_W@@YAXQEA_W_KQEB_W2IQEAX@Z 000000018001b4e4 f   libucrt:assert.obj
 0001:0001acb8       ??$common_assert_to_stderr@_W@@YAXQEB_W0I@Z 000000018001bcb8 f   libucrt:assert.obj
 0001:0001ae28       ?get_assert_format@@YAPEB_W_W@Z 000000018001be28 f   libucrt:assert.obj
 0001:0001b5e4       common_flush_all           000000018001c5e4 f   libucrt:fflush.obj
 0001:0001ba10       ?common_fseek@@YAHV__crt_stdio_stream@@_JH@Z 000000018001ca10 f   libucrt:fseek.obj
 0001:0001ba7c       ?common_fseek_binary_mode_read_only_fast_track_nolock@@YA_NV__crt_stdio_stream@@_JH@Z 000000018001ca7c f   libucrt:fseek.obj
 0001:0001bb8c       ?common_fseek_nolock@@YAHV__crt_stdio_stream@@_JH@Z 000000018001cb8c f   libucrt:fseek.obj
 0001:0001bccc       ??R<lambda_532e024f4337e6fc7ad266c2bef9f4ed>@@QEBA_KXZ 000000018001cccc f   libucrt:fwrite.obj
 0001:0001bf90       ??R<lambda_b721fa326cdb32351d23dfa67958c160>@@QEBAHXZ 000000018001cf90 f   libucrt:setvbuf.obj
 0001:0001c298       call_wsetlocale            000000018001d298 f   libucrt:setlocale.obj
 0001:0001ce0c       ?x_ismbbtype_l@@YAHPEAU__crt_locale_pointers@@IHH@Z 000000018001de0c f   libucrt:ismbbyte.obj
 0001:0001d460       memcpy_s                   000000018001e460 f   libucrt:strtod.obj
 0001:0001d460       memcpy_s                   000000018001e460 f   libucrt:cfout.obj
 0001:0001d4f0       $$000000                   000000018001e4f0     libucrt:pow.obj
 0001:0001eb90       $$000000                   000000018001fb90     libucrt:powf.obj
 0001:0001ff4c       ?atexit_exception_filter@@YAHK@Z 0000000180020f4c f   libucrt:exit.obj
 0001:0001ff58       ?common_exit@@YAXHW4_crt_exit_cleanup_mode@@W4_crt_exit_return_mode@@@Z 0000000180020f58 f   libucrt:exit.obj
 0001:000200c4       ?exit_or_terminate_process@@YAXI@Z 00000001800210c4 f   libucrt:exit.obj
 0001:00020110       ?try_cor_exit_process@@YAXI@Z 0000000180021110 f   libucrt:exit.obj
 0001:000201a8       ??$parse_command_line@D@@YAXPEADPEAPEAD0PEA_K2@Z 00000001800211a8 f   libucrt:argv_parsing.obj
 0001:00020540       ??$common_initialize_environment_nolock@D@@YAHXZ 0000000180021540 f   libucrt:environment_initialization.obj
 0001:000205ac       ??$create_environment@D@@YAQEAPEADQEAD@Z 00000001800215ac f   libucrt:environment_initialization.obj
 0001:000206a8       ??$free_environment@_W@@YAXQEAPEA_W@Z 00000001800216a8 f   libucrt:environment_initialization.obj
 0001:000206a8       ??$free_environment@D@@YAXQEAPEAD@Z 00000001800216a8 f   libucrt:environment_initialization.obj
 0001:000206ec       ??$uninitialize_environment_internal@D@@YAXAEAPEAPEAD@Z 00000001800216ec f   libucrt:environment_initialization.obj
 0001:00020708       ??$uninitialize_environment_internal@_W@@YAXAEAPEAPEA_W@Z 0000000180021708 f   libucrt:environment_initialization.obj
 0001:00020940       ??R<lambda_4e60a939b0d047cfe11ddc22648dfba9>@@QEBAHXZ 0000000180021940 f   libucrt:onexit.obj
 0001:00020bf0       initialize_global_variables 0000000180021bf0 f   libucrt:initialization.obj
 0001:00020c04       initialize_c               0000000180021c04 f   libucrt:initialization.obj
 0001:00020c28       report_memory_leaks        0000000180021c28 f   libucrt:initialization.obj
 0001:00020c28       uninitialize_global_state_isolation 0000000180021c28 f   libucrt:initialization.obj
 0001:00020c28       initialize_global_state_isolation 0000000180021c28 f   libucrt:initialization.obj
 0001:00020c28       uninitialize_c             0000000180021c28 f   libucrt:initialization.obj
 0001:00020c28       initialize_environment     0000000180021c28 f   libucrt:initialization.obj
 0001:00020c2c       uninitialize_environment   0000000180021c2c f   libucrt:initialization.obj
 0001:00020c3c       initialize_pointers        0000000180021c3c f   libucrt:initialization.obj
 0001:00020c90       uninitialize_vcruntime     0000000180021c90 f   libucrt:initialization.obj
 0001:00020c98       uninitialize_allocated_memory 0000000180021c98 f   libucrt:initialization.obj
 0001:00021ad4       ?construct_ptd_array@@YAXQEAU__acrt_ptd@@@Z 0000000180022ad4 f   libucrt:per_thread_data.obj
 0001:00021ba4       ?destroy_fls@@YAXPEAX@Z    0000000180022ba4 f   libucrt:per_thread_data.obj
 0001:00021bc4       ?destroy_ptd_array@@YAXQEAU__acrt_ptd@@@Z 0000000180022bc4 f   libucrt:per_thread_data.obj
 0001:00021cbc       ?replace_current_thread_locale_nolock@@YAXQEAU__acrt_ptd@@QEAU__crt_locale_data@@@Z 0000000180022cbc f   libucrt:per_thread_data.obj
 0001:0002204c       ?__acrt_LCMapStringA_stat@@YAHPEAU__crt_locale_pointers@@PEB_WKPEBDHPEADHHH@Z 000000018002304c f   libucrt:lcmapstringa.obj
 0001:00022610       ??R<lambda_2af78c5f5901b1372d98f9ab3177dfa6>@@QEBAXXZ 0000000180023610 f   libucrt:wsetlocale.obj
 0001:000229d4       _copytlocinfo_nolock       00000001800239d4 f   libucrt:wsetlocale.obj
 0001:00022f94       _wsetlocale_get_all        0000000180023f94 f   libucrt:wsetlocale.obj
 0001:0002317c       _wsetlocale_nolock         000000018002417c f   libucrt:wsetlocale.obj
 0001:00023404       _wsetlocale_set_cat        0000000180024404 f   libucrt:wsetlocale.obj
 0001:00023ac4       ?fp_format_a@@YAHQEBNPEAD_KQEAD2H_NIQEAU__crt_locale_pointers@@@Z 0000000180024ac4 f   libucrt:cvt.obj
 0001:00023e24       ?fp_format_e@@YAHQEBNQEAD_K12H_NIQEAU__crt_locale_pointers@@@Z 0000000180024e24 f   libucrt:cvt.obj
 0001:00023ef4       ?fp_format_e_internal@@YAHQEAD_KH_NIQEAU_strflt@@2QEAU__crt_locale_pointers@@@Z 0000000180024ef4 f   libucrt:cvt.obj
 0001:000240d0       ?fp_format_f_internal@@YAHQEAD_KHQEAU_strflt@@_NQEAU__crt_locale_pointers@@@Z 00000001800250d0 f   libucrt:cvt.obj
 0001:00024218       ?fp_format_g@@YAHQEBNQEAD_K12H_NIQEAU__crt_locale_pointers@@@Z 0000000180025218 f   libucrt:cvt.obj
 0001:00024350       ?fp_format_nan_or_infinity@@YAHW4__acrt_fp_class@@_NPEAD_K1@Z 0000000180025350 f   libucrt:cvt.obj
 0001:000249a0       ?initialize_inherited_file_handles_nolock@@YAXXZ 00000001800259a0 f   libucrt:ioinit.obj
 0001:00024a8c       ?initialize_stdio_handles_nolock@@YAXXZ 0000000180025a8c f   libucrt:ioinit.obj
 0001:00025068       ??$common_xtox@K_W@@YAHKQEA_W_KI_N@Z 0000000180026068 f   libucrt:xtoa.obj
 0001:00025114       ??$common_xtox_s@K_W@@YAHKQEA_W_KI_N@Z 0000000180026114 f   libucrt:xtoa.obj
 0001:00025370       ??$message_box_wait_thread@_W@@YAKQEAX@Z 0000000180026370 f   libucrt:crtmbox.obj
 0001:000254b4       ?<helper_func_cdecl>@<lambda_e2bb8337c48846e80c921ea5ddadc92d>@@CAHPEA_W@Z 00000001800264b4 f   libucrt:winapi_thunks.obj
 0001:00025590       ?try_get_function@@YAPEAXW4function_id@?A0x63058377@@QEBDQEBW4module_id@2@2@Z 0000000180026590 f   libucrt:winapi_thunks.obj
 0001:000264c0       ?write_double_translated_ansi_nolock@@YA?AUwrite_result@?A0x9c548279@@HQEBDI@Z 00000001800274c0 f   libucrt:write.obj
 0001:000266c8       ?write_text_ansi_nolock@@YA?AUwrite_result@?A0x9c548279@@HQEBDI@Z 00000001800276c8 f   libucrt:write.obj
 0001:000267d0       ?write_text_utf16le_nolock@@YA?AUwrite_result@?A0x9c548279@@HQEBDI@Z 00000001800277d0 f   libucrt:write.obj
 0001:000268ec       ?write_text_utf8_nolock@@YA?AUwrite_result@?A0x9c548279@@HQEBDI@Z 00000001800278ec f   libucrt:write.obj
 0001:00026e30       ??$common_refill_and_read_nolock@D@@YAHV__crt_stdio_stream@@@Z 0000000180027e30 f   libucrt:_filbuf.obj
 0001:00026fe0       ??$common_ftell@_J@@YA_JV__crt_stdio_stream@@@Z 0000000180027fe0 f   libucrt:ftell.obj
 0001:00027034       ??$common_ftell_nolock@_J@@YA_JV__crt_stdio_stream@@@Z 0000000180028034 f   libucrt:ftell.obj
 0001:000271ac       ?common_ftell_read_mode_nolock@@YA_JV__crt_stdio_stream@@_J1@Z 00000001800281ac f   libucrt:ftell.obj
 0001:00027324       ?common_ftell_translated_utf8_nolock@@YA_JV__crt_stdio_stream@@_J@Z 0000000180028324 f   libucrt:ftell.obj
 0001:000274ac       ??$write_buffer_nolock@D@@YA_NDV__crt_stdio_stream@@@Z 00000001800284ac f   libucrt:_flsbuf.obj
 0001:000275b0       ??$write_buffer_nolock@_W@@YA_N_WV__crt_stdio_stream@@@Z 00000001800285b0 f   libucrt:_flsbuf.obj
 0001:00027890       ??$common_lseek@_J@@YA_JH_JH@Z 0000000180028890 f   libucrt:lseek.obj
 0001:00027980       ??$common_lseek_nolock@_J@@YA_JH_JH@Z 0000000180028980 f   libucrt:lseek.obj
 0001:00027a90       ?_mbstowcs_l_helper@@YA_KPEA_WPEBD_KPEAU__crt_locale_pointers@@@Z 0000000180028a90 f   libucrt:mbstowcs.obj
 0001:00027dbc       ?_wcstombs_l_helper@@YA_KPEADPEB_W_KPEAU__crt_locale_pointers@@@Z 0000000180028dbc f   libucrt:wcstombs.obj
 0001:0002820c       ?InternalGetLocaleInfoA@@YAHQEAU__crt_locale_pointers@@QEB_WKQEADH@Z 000000018002920c f   libucrt:getlocaleinfoa.obj
 0001:00028ca4       ?<helper_func_cdecl>@<lambda_2feae5270eb4d0d5532525f423405775>@@CAHPEBX0@Z 0000000180029ca4 f   libucrt:argv_wildcards.obj
 0001:00028cb8       ??$common_expand_argv_wildcards@D@@YAHQEAPEADQEAPEAPEAD@Z 0000000180029cb8 f   libucrt:argv_wildcards.obj
 0001:00028ec4       ??$copy_and_add_argument_to_buffer@D@@YAHQEBD0_KAEAV?$argument_list@D@?A0xca0879c4@@@Z 0000000180029ec4 f   libucrt:argv_wildcards.obj
 0001:00028fd4       ??$expand_argument_wildcards@D@@YAHQEAD0AEAV?$argument_list@D@?A0xca0879c4@@@Z 0000000180029fd4 f   libucrt:argv_wildcards.obj
 0001:00029288       ??R<lambda_ad1ced32f4ac17aa236e5ef05d6b3b7c>@@QEBAXXZ 000000018002a288 f   libucrt:mbctype.obj
 0001:000294a0       ?getSystemCP@@YAHH@Z       000000018002a4a0 f   libucrt:mbctype.obj
 0001:00029520       ?setSBCS@@YAXPEAU__crt_multibyte_data@@@Z 000000018002a520 f   libucrt:mbctype.obj
 0001:000295b0       ?setSBUpLow@@YAXPEAU__crt_multibyte_data@@@Z 000000018002a5b0 f   libucrt:mbctype.obj
 0001:00029794       ?setmbcp_internal@@YAHH_N@Z 000000018002a794 f   libucrt:mbctype.obj
 0001:0002acf8       ?free_crt_array_internal@@YAXQEAPEBX_K@Z 000000018002bcf8 f   libucrt:inittime.obj
 0001:0002ad50       ?initialize_lc_time@@YA_NQEAU__crt_lc_time_data@@QEAU__crt_locale_data@@@Z 000000018002bd50 f   libucrt:inittime.obj
 0001:0002b3c0       GetLocaleNameFromDefault   000000018002c3c0 f   libucrt:get_qualified_locale.obj
 0001:0002b468       GetLocaleNameFromLangCountry 000000018002c468 f   libucrt:get_qualified_locale.obj
 0001:0002b538       GetLocaleNameFromLanguage  000000018002c538 f   libucrt:get_qualified_locale.obj
 0001:0002b5d4       LangCountryEnumProcEx      000000018002c5d4 f   libucrt:get_qualified_locale.obj
 0001:0002b988       LanguageEnumProcEx         000000018002c988 f   libucrt:get_qualified_locale.obj
 0001:0002ba74       ProcessCodePage            000000018002ca74 f   libucrt:get_qualified_locale.obj
 0001:0002bb28       TestDefaultCountry         000000018002cb28 f   libucrt:get_qualified_locale.obj
 0001:0002bb90       TranslateName              000000018002cb90 f   libucrt:get_qualified_locale.obj
 0001:0002be4c       CountryEnumProc            000000018002ce4c f   libucrt:getqloc_downlevel.obj
 0001:0002bf38       GetLcidFromLangCountry     000000018002cf38 f   libucrt:getqloc_downlevel.obj
 0001:0002c008       GetLcidFromLanguage        000000018002d008 f   libucrt:getqloc_downlevel.obj
 0001:0002c0a0       LangCountryEnumProc        000000018002d0a0 f   libucrt:getqloc_downlevel.obj
 0001:0002c2e4       LanguageEnumProc           000000018002d2e4 f   libucrt:getqloc_downlevel.obj
 0001:0002c3e0       LcidFromHexString          000000018002d3e0 f   libucrt:getqloc_downlevel.obj
 0001:0002c430       ProcessCodePage            000000018002d430 f   libucrt:getqloc_downlevel.obj
 0001:0002c4e0       TestDefaultLanguage        000000018002d4e0 f   libucrt:getqloc_downlevel.obj
 0001:0002c58c       TranslateName              000000018002d58c f   libucrt:getqloc_downlevel.obj
 0001:0002e050       $$000000                   000000018002f050     libucrt:fpsr.obj
 0001:0002e0b0       ?GetTableIndexFromLocaleName@@YAHPEB_W@Z 000000018002f0b0 f   libucrt:lcidtoname_downlevel.obj
 0001:0002e2ec       ??$translate_text_mode_nolock@_W@@YAHHQEA_W_K@Z 000000018002f2ec f   libucrt:read.obj
 0001:0002e51c       ?translate_ansi_or_utf8_nolock@@YAHHQEAD_KQEA_W1@Z 000000018002f51c f   libucrt:read.obj
 0001:0002eef8       _call_matherr              000000018002fef8 f   libucrt:libm_error.obj
 0001:0002ef60       _exception_enabled         000000018002ff60 f   libucrt:libm_error.obj
 0001:0002f370       ?shortsort@@YAXPEAD0_KP6AHPEBX2@Z@Z 0000000180030370 f   libucrt:qsort.obj
 0001:0002f8b4       ?initialize_multibyte@@YAHXZ 00000001800308b4 f   libucrt:multibyte_initializer.obj
 0001:0002fc40       $$000000                   0000000180030c40     libucrt:log10.obj
 0001:000302f0       common_control87           00000001800312f0 f   libucrt:ieee.obj
 0001:00030630       _log_special_common        0000000180031630 f   libucrt:log_special.obj
 0001:00031790       $$000000                   0000000180032790     libucrt:cos.obj
 0001:00031d10       $$000000                   0000000180032d10     libucrt:exp.obj
 0001:00032680       $$000000                   0000000180033680     libucrt:sin.obj
 0001:00032cc0       $$000000                   0000000180033cc0     libucrt:remainder_piby2_forasm.obj
 0001:00033010       $$000000                   0000000180034010     libucrt:remainder_piby2_forfma3.obj
 0001:000332a0       _sincos_special            00000001800342a0 f   libucrt:sincos_special.obj
 0001:000333e0       $$000000                   00000001800343e0     LIBCMT:_guard_dispatch_.obj
 0001:00033400       ?dtor$0@?0???$use_facet@V?$codecvt@DDU_Mbstatet@@@std@@@std@@YAAEBV?$codecvt@DDU_Mbstatet@@@0@AEBVlocale@0@@Z@4HA 0000000180034400 f   libcpmt:cout.obj
 0001:0003340c       ?dtor$0@?0???0?$basic_ostream@DU?$char_traits@D@std@@@std@@QEAA@PEAV?$basic_streambuf@DU?$char_traits@D@std@@@1@_N@Z@4HA 000000018003440c f   libcpmt:cout.obj
 0001:00033436       ?dtor$0@?0??_Endwrite@?$basic_filebuf@DU?$char_traits@D@std@@@std@@IEAA_NXZ@4HA 0000000180034436 f   libcpmt:cout.obj
 0001:00033442       ?dtor$0@?0??_Getcat@?$codecvt@DDU_Mbstatet@@@std@@SA_KPEAPEBVfacet@locale@2@PEBV42@@Z@4HA 0000000180034442 f   libcpmt:cout.obj
 0001:00033462       ?dtor$0@?0??uflow@?$basic_filebuf@DU?$char_traits@D@std@@@std@@MEAAHXZ@4HA 0000000180034462 f   libcpmt:cout.obj
 0001:00033462       ?dtor$0@?0??overflow@?$basic_filebuf@DU?$char_traits@D@std@@@std@@MEAAHH@Z@4HA 0000000180034462 f   libcpmt:cout.obj
 0001:0003346e       ?dtor$0@?0??_Init@locale@std@@CAPEAV_Locimp@12@_N@Z@4HA 000000018003446e f   libcpmt:locale0.obj
 0001:0003346e       ?dtor$0@?0??_Locimp_dtor@_Locimp@locale@std@@CAXPEAV123@@Z@4HA 000000018003446e f   libcpmt:locale0.obj
 0001:0003347a       ?dtor$0@?0??_Init@ios_base@std@@IEAAXXZ@4HA 000000018003447a f   libcpmt:cout.obj
 0001:0003347a       ?dtor$1@?0???_G?$basic_ios@DU?$char_traits@D@std@@@std@@UEAAPEAXI@Z@4HA 000000018003447a f   libcpmt:cout.obj
 0001:0003347a       ?dtor$0@?0???_G_Fac_node@std@@QEAAPEAXI@Z@4HA 000000018003447a f   libcpmt:locale0.obj
 0001:0003347a       ?dtor$0@?0???_G_Locimp@locale@std@@MEAAPEAXI@Z@4HA 000000018003447a f   libcpmt:locale0.obj
 0001:0003347a       ?dtor$0@?0???0?$basic_streambuf@DU?$char_traits@D@std@@@std@@IEAA@XZ@4HA 000000018003447a f   libcpmt:cout.obj
 0001:0003347a       ?dtor$0@?0???_Glocale@std@@QEAAPEAXI@Z@4HA 000000018003447a f   libcpmt:cout.obj
 0001:0003347a       ?dtor$0@?0???__Fclassic_locale@std@@YAXXZ@4HA 000000018003447a f   libcpmt:locale0.obj
 0001:0003347a       ?dtor$0@?0???_Gios_base@std@@UEAAPEAXI@Z@4HA 000000018003447a f   libcpmt:cout.obj
 0001:0003347a       ?dtor$0@?0???__Finit_atexit@@YAXXZ@4HA 000000018003447a f   libcpmt:iosptrs.obj
 0001:0003347a       ?dtor$0@?0???1?$basic_ios@DU?$char_traits@D@std@@@std@@UEAA@XZ@4HA 000000018003447a f   libcpmt:cout.obj
 0001:0003347a       ?dtor$3@?0???__Fcout@std@@YAXXZ@4HA 000000018003447a f   libcpmt:cout.obj
 0001:0003347a       ?dtor$3@?0???_G?$basic_ostream@DU?$char_traits@D@std@@@std@@UEAAPEAXI@Z@4HA 000000018003447a f   libcpmt:cout.obj
 0001:0003347f       __scrt_is_nonwritable_in_current_image$filt$0 000000018003447f f   LIBCMT:utility.obj
 0001:00033497       ?fin$0@?0??dllmain_crt_process_attach@@YAHQEAUHINSTANCE__@@QEAX@Z@4HA 0000000180034497 f   LIBCMT:dll_dllmain.obj
 0001:000334ae       ?fin$0@?0??dllmain_crt_process_detach@@YAH_N@Z@4HA 00000001800344ae f   LIBCMT:dll_dllmain.obj
 0001:000334ca       ?filt$0@?0??dllmain_dispatch@@YAHQEAUHINSTANCE__@@KQEAX@Z@4HA 00000001800344ca f   LIBCMT:dll_dllmain.obj
 0001:00033500       __CxxCallCatchBlock$filt$0 0000000180034500 f   libvcruntime:frame.obj
 0001:00033525       __CxxCallCatchBlock$fin$1  0000000180034525 f   libvcruntime:frame.obj
 0001:0003359d       __DestructExceptionObject$filt$0 000000018003459d f   libvcruntime:frame.obj
 0001:000335b5       __FrameUnwindToState$filt$0 00000001800345b5 f   libvcruntime:frame.obj
 0001:000335cb       __FrameUnwindToState$fin$1 00000001800345cb f   libvcruntime:frame.obj
 0001:000335ee       _CallSETranslator$filt$0   00000001800345ee f   libvcruntime:trnsctrl.obj
 0001:0003363a       fclose$fin$0               000000018003463a f   libucrt:fclose.obj
 0001:0003363a       fflush$fin$0               000000018003463a f   libucrt:fflush.obj
 0001:00033652       common_flush_all$fin$0     0000000180034652 f   libucrt:fflush.obj
 0001:0003366c       common_flush_all$fin$1     000000018003466c f   libucrt:fflush.obj
 0001:00033685       fgetc$fin$0                0000000180034685 f   libucrt:fgetc.obj
 0001:0003369f       fputc$fin$0                000000018003469f f   libucrt:fputc.obj
 0001:000336b9       ?fin$0@?0???$common_ftell@_J@@YA_JV__crt_stdio_stream@@@Z@4HA 00000001800346b9 f   libucrt:ftell.obj
 0001:000336b9       ?fin$0@?0??common_fseek@@YAHV__crt_stdio_stream@@_JH@Z@4HA 00000001800346b9 f   libucrt:fseek.obj
 0001:000336d3       ?fin$0@?0???$?RV<lambda_5d4c3fee44080f75d5d9762853974fe0>@@AEAV<lambda_532e024f4337e6fc7ad266c2bef9f4ed>@@V<lambda_c87bdc10097eb2402edb8ba9bdf0697b>@@@?$__crt_seh_guarded_call@_K@@QEAA_K$$QEAV<lambda_5d4c3fee44080f75d5d9762853974fe0>@@AEAV<lambda_532e024f4337e6fc7ad266c2bef9f4ed>@@$$QEAV<lambda_c87bdc10097eb2402edb8ba9bdf0697b>@@@Z@4HA 00000001800346d3 f   libucrt:fwrite.obj
 0001:000336d3       ?fin$0@?0???$?RV<lambda_7b91131dde12e1c3dfc74ff76b3f2eac>@@AEAV<lambda_dd75445284c072d0bd3768540cc698fa>@@V<lambda_16bc4ecb55b4718497c16bceaea2ceaf>@@@?$__crt_seh_guarded_call@H@@QEAAH$$QEAV<lambda_7b91131dde12e1c3dfc74ff76b3f2eac>@@AEAV<lambda_dd75445284c072d0bd3768540cc698fa>@@$$QEAV<lambda_16bc4ecb55b4718497c16bceaea2ceaf>@@@Z@4HA 00000001800346d3 f   libucrt:output.obj
 0001:000336d3       ?fin$0@?0???$?RV<lambda_7a5ef57ff966f610505f1d28a3d40618>@@AEAV<lambda_b721fa326cdb32351d23dfa67958c160>@@V<lambda_5e0fb27672408a07956fe59e48ccb2aa>@@@?$__crt_seh_guarded_call@H@@QEAAH$$QEAV<lambda_7a5ef57ff966f610505f1d28a3d40618>@@AEAV<lambda_b721fa326cdb32351d23dfa67958c160>@@$$QEAV<lambda_5e0fb27672408a07956fe59e48ccb2aa>@@@Z@4HA 00000001800346d3 f   libucrt:setvbuf.obj
 0001:000336ee       ungetc$fin$0               00000001800346ee f   libucrt:ungetc.obj
 0001:00033706       setlocale$fin$0            0000000180034706 f   libucrt:setlocale.obj
 0001:00033721       ?filt$0@?0??common_exit@@YAXHW4_crt_exit_cleanup_mode@@W4_crt_exit_return_mode@@@Z@4HA 0000000180034721 f   libucrt:exit.obj
 0001:0003373c       ?fin$1@?0??common_exit@@YAXHW4_crt_exit_cleanup_mode@@W4_crt_exit_return_mode@@@Z@4HA 000000018003473c f   libucrt:exit.obj
 0001:00033755       ?fin$0@?0???$?RV<lambda_e24bbb7b643b32fcea6fa61b31d4c984>@@AEAV<lambda_275893d493268fdec8709772e3fcec0e>@@V<lambda_9d71df4d7cf3f480f8d633942495c3b0>@@@?$__crt_seh_guarded_call@H@@QEAAH$$QEAV<lambda_e24bbb7b643b32fcea6fa61b31d4c984>@@AEAV<lambda_275893d493268fdec8709772e3fcec0e>@@$$QEAV<lambda_9d71df4d7cf3f480f8d633942495c3b0>@@@Z@4HA 0000000180034755 f   libucrt:onexit.obj
 0001:00033772       _query_new_handler$fin$0   0000000180034772 f   libucrt:new_handler.obj
 0001:00033788       raise$fin$0                0000000180034788 f   libucrt:signal.obj
 0001:000337ac       ?fin$0@?0???$?RV<lambda_630b2aca97f6d20d5b5ea6529ea6b6af>@@AEAV<lambda_af91936f1d075d609f72d9d8cba980af>@@V<lambda_e82fa975f615b5c7c7b0e4d178fdae67>@@@?$__crt_seh_guarded_call@H@@QEAAH$$QEAV<lambda_630b2aca97f6d20d5b5ea6529ea6b6af>@@AEAV<lambda_af91936f1d075d609f72d9d8cba980af>@@$$QEAV<lambda_e82fa975f615b5c7c7b0e4d178fdae67>@@@Z@4HA 00000001800347ac f   libucrt:winapi_thunks.obj
 0001:000337ac       ?fin$0@?0???$?RV<lambda_c36588078e9f5dfd39652860aa6b3aaf>@@AEAV<lambda_ec61778202f4f5fc7e7711acc23c3bca>@@V<lambda_dc9d2797ccde5d239b4a0efae8ebd7db>@@@?$__crt_seh_guarded_call@P6AXH@Z@@QEAAP6AXH@Z$$QEAV<lambda_c36588078e9f5dfd39652860aa6b3aaf>@@AEAV<lambda_ec61778202f4f5fc7e7711acc23c3bca>@@$$QEAV<lambda_dc9d2797ccde5d239b4a0efae8ebd7db>@@@Z@4HA 00000001800347ac f   libucrt:signal.obj
 0001:000337ac       ?fin$0@?0???$?RV<lambda_46352004c1216016012b18bd6f87e700>@@AEAV<lambda_3bd07e1a1191394380780325891bf33f>@@V<lambda_334532d3f185bcaa59b5be82d7d22bff>@@@?$__crt_seh_guarded_call@X@@QEAAX$$QEAV<lambda_46352004c1216016012b18bd6f87e700>@@AEAV<lambda_3bd07e1a1191394380780325891bf33f>@@$$QEAV<lambda_334532d3f185bcaa59b5be82d7d22bff>@@@Z@4HA 00000001800347ac f   libucrt:per_thread_data.obj
 0001:000337ac       ?fin$0@?0???$?RV<lambda_99476a1ad63dd22509b5d3e65b0ffc95>@@AEAV<lambda_ad1ced32f4ac17aa236e5ef05d6b3b7c>@@V<lambda_f7424dd8d45958661754dc4f2697e9c3>@@@?$__crt_seh_guarded_call@X@@QEAAX$$QEAV<lambda_99476a1ad63dd22509b5d3e65b0ffc95>@@AEAV<lambda_ad1ced32f4ac17aa236e5ef05d6b3b7c>@@$$QEAV<lambda_f7424dd8d45958661754dc4f2697e9c3>@@@Z@4HA 00000001800347ac f   libucrt:mbctype.obj
 0001:000337ac       ?fin$0@?0???$?RV<lambda_d67e8342c384adda8f857579ab50b2ae>@@AEAV<lambda_30712929f77e709619002f448b6a9510>@@V<lambda_4525336fd7e478d965fb7ca7a337cad8>@@@?$__crt_seh_guarded_call@X@@QEAAX$$QEAV<lambda_d67e8342c384adda8f857579ab50b2ae>@@AEAV<lambda_30712929f77e709619002f448b6a9510>@@$$QEAV<lambda_4525336fd7e478d965fb7ca7a337cad8>@@@Z@4HA 00000001800347ac f   libucrt:wsetlocale.obj
 0001:000337ac       ?fin$0@?0???$?RV<lambda_fb3a7dec4e47f37f22dae91bb15c9095>@@AEAV<lambda_698284760c8add0bfb0756c19673e34b>@@V<lambda_dfb8eca1e75fef3034a8fb18dd509707>@@@?$__crt_seh_guarded_call@X@@QEAAX$$QEAV<lambda_fb3a7dec4e47f37f22dae91bb15c9095>@@AEAV<lambda_698284760c8add0bfb0756c19673e34b>@@$$QEAV<lambda_dfb8eca1e75fef3034a8fb18dd509707>@@@Z@4HA 00000001800347ac f   libucrt:per_thread_data.obj
 0001:000337ac       ?fin$0@?0???$?RV<lambda_72d1df2b273a38828b1ce30cbf4cdab5>@@AEAV<lambda_876a65b173b8412d3a47c70a915b0cf4>@@V<lambda_41932305e351933ebe8f8be3ed8bb5dc>@@@?$__crt_seh_guarded_call@X@@QEAAX$$QEAV<lambda_72d1df2b273a38828b1ce30cbf4cdab5>@@AEAV<lambda_876a65b173b8412d3a47c70a915b0cf4>@@$$QEAV<lambda_41932305e351933ebe8f8be3ed8bb5dc>@@@Z@4HA 00000001800347ac f   libucrt:per_thread_data.obj
 0001:000337ac       ?fin$0@?0???$?RV<lambda_5e887d1dcbef67a5eb4283622ba103bf>@@AEAV<lambda_4466841279450cc726390878d4a41900>@@V<lambda_341c25c0346d94847f1f3c463c57e077>@@@?$__crt_seh_guarded_call@X@@QEAAX$$QEAV<lambda_5e887d1dcbef67a5eb4283622ba103bf>@@AEAV<lambda_4466841279450cc726390878d4a41900>@@$$QEAV<lambda_341c25c0346d94847f1f3c463c57e077>@@@Z@4HA 00000001800347ac f   libucrt:per_thread_data.obj
 0001:000337ac       ?fin$0@?0???$?RV<lambda_b8c45f8f788dd370798f47cfe8ac3a86>@@AEAV<lambda_4e60a939b0d047cfe11ddc22648dfba9>@@V<lambda_332c3edc96d0294ec56c57d38c1cdfd5>@@@?$__crt_seh_guarded_call@H@@QEAAH$$QEAV<lambda_b8c45f8f788dd370798f47cfe8ac3a86>@@AEAV<lambda_4e60a939b0d047cfe11ddc22648dfba9>@@$$QEAV<lambda_332c3edc96d0294ec56c57d38c1cdfd5>@@@Z@4HA 00000001800347ac f   libucrt:onexit.obj
 0001:000337c6       ?fin$0@?0???$?RV<lambda_5df02c53a8f32f81fd64e5bbb78039f1>@@AEAV<lambda_2af78c5f5901b1372d98f9ab3177dfa6>@@AEAV<lambda_f51fe5fd7c79a33db34fc9310f277369>@@@?$__crt_seh_guarded_call@X@@QEAAX$$QEAV<lambda_5df02c53a8f32f81fd64e5bbb78039f1>@@AEAV<lambda_2af78c5f5901b1372d98f9ab3177dfa6>@@AEAV<lambda_f51fe5fd7c79a33db34fc9310f277369>@@@Z@4HA 00000001800347c6 f   libucrt:wsetlocale.obj
 0001:000337e7       __acrt_lowio_ensure_fh_exists$fin$0 00000001800347e7 f   libucrt:osfinfo.obj
 0001:000337e7       __acrt_initialize_lowio$fin$0 00000001800347e7 f   libucrt:ioinit.obj
 0001:00033800       _ctrlfp$filt$0             0000000180034800 f   libucrt:fpctrl.obj
 0001:00033800       common_control87$filt$0    0000000180034800 f   libucrt:ieee.obj
 0001:0003382c       _fcloseall$fin$0           000000018003482c f   libucrt:closeall.obj
 0001:00033845       ?fin$0@?0???$?RV<lambda_bfedae4ebbf01fab1bb6dcc6a9e276e0>@@AEAV<lambda_2fe9b910cf3cbf4a0ab98a02ba45b3ec>@@V<lambda_237c231691f317818eb88cc1d5d642d6>@@@?$__crt_seh_guarded_call@H@@QEAAH$$QEAV<lambda_bfedae4ebbf01fab1bb6dcc6a9e276e0>@@AEAV<lambda_2fe9b910cf3cbf4a0ab98a02ba45b3ec>@@$$QEAV<lambda_237c231691f317818eb88cc1d5d642d6>@@@Z@4HA 0000000180034845 f   libucrt:close.obj
 0001:00033845       ?fin$0@?0???$?RV<lambda_b521505b218e5242e90febf6bfebc422>@@AEAV<lambda_6978c1fb23f02e42e1d9e99668cc68aa>@@V<lambda_314360699dd331753a4119843814e9a7>@@@?$__crt_seh_guarded_call@H@@QEAAH$$QEAV<lambda_b521505b218e5242e90febf6bfebc422>@@AEAV<lambda_6978c1fb23f02e42e1d9e99668cc68aa>@@$$QEAV<lambda_314360699dd331753a4119843814e9a7>@@@Z@4HA 0000000180034845 f   libucrt:commit.obj
 0001:0003385f       _write$fin$0               000000018003485f f   libucrt:write.obj
 0001:0003385f       ?fin$0@?0???$common_lseek@_J@@YA_JH_JH@Z@4HA 000000018003485f f   libucrt:lseek.obj
 0001:0003385f       _read$fin$0                000000018003485f f   libucrt:read.obj
 0001:00033876       __acrt_update_thread_multibyte_data$fin$0 0000000180034876 f   libucrt:mbctype.obj
 0001:0003388f       __acrt_update_thread_locale_data$fin$0 000000018003488f f   libucrt:locale_refcounting.obj
 0001:0003388f       __acrt_uninitialize_locale$fin$0 000000018003488f f   libucrt:wsetlocale.obj
 0001:000338b0       _IsNonwritableInCurrentImage$filt$0 00000001800348b0 f   LIBCMT:pesect.obj
 0001:000338f0       ??__F?constructor@set@dealImg@@0V?$Persistent@VFunction@v8@@V?$NonCopyablePersistentTraits@VFunction@v8@@@2@@v8@@A@@YAXXZ 00000001800348f0 f   dealImg.obj
 0001:00033904       ??__Finitlocks@std@@YAXXZ  0000000180034904 f   libcpmt:xlock.obj
 0001:00033910       ??__Fcout@std@@YAXXZ       0000000180034910 f   libcpmt:cout.obj
 0001:00033970       ??__Ffout@std@@YAXXZ       0000000180034970 f   libcpmt:cout.obj
 0001:0003397c       ??__Finitlocks@@YAXXZ      000000018003497c f   libcpmt:cout.obj
 0001:00033988       ??__F_Fac_tidy_reg@std@@YAXXZ 0000000180034988 f   libcpmt:locale0.obj
 0001:000339b4       ??__Fclassic_locale@std@@YAXXZ 00000001800349b4 f   libcpmt:locale0.obj
 0001:00033a14       ??__Finit_atexit@@YAXXZ    0000000180034a14 f   libcpmt:iosptrs.obj
 0001:00033a68       ??__Finitlocks@std@@YAXXZ  0000000180034a68 f   libcpmt:iosptrs.obj
 0001:00033a74       ??__F_AtlBaseModule@ATL@@YAXXZ 0000000180034a74 f   atls:atlbase.obj
 0002:00000490       ?initlocks$initializer$@std@@3P6AXXZEA 0000000180035490     libcpmt:xlock.obj
 0002:00000498       ?initlocks$initializer$@@3P6AXXZEA 0000000180035498     libcpmt:cout.obj
 0002:000004a0       ?fout$initializer$@std@@3P6AXXZEA 00000001800354a0     libcpmt:cout.obj
 0002:000004a8       ?cout$initializer$@std@@3P6AXXZEA 00000001800354a8     libcpmt:cout.obj
 0002:000004b0       ?init_cout$initializer$@std@@3P6AXXZEA 00000001800354b0     libcpmt:cout.obj
 0002:000004b8       ?initlocks$initializer$@std@@3P6AXXZEA 00000001800354b8     libcpmt:iosptrs.obj
 0002:000004c0       ?init_atexit$initializer$@@3P6AXXZEA 00000001800354c0     libcpmt:iosptrs.obj
 0002:000004c8       ?_Fac_tidy_reg$initializer$@std@@3P6AXXZEA 00000001800354c8     libcpmt:locale0.obj
 0002:000004d0       ?classic_locale$initializer$@std@@3P6AXXZEA 00000001800354d0     libcpmt:locale0.obj
 0002:000004d8       ?_AtlBaseModule$initializer$@ATL@@3P6AXXZEA 00000001800354d8     atls:atlbase.obj
 0002:000004e0       ??constructor$initializer$@set@dealImg@@0P6AXXZEA@@3P6AXXZEA 00000001800354e0     dealImg.obj
 0002:00000500       ?pinit@@3P6AHXZEA          0000000180035500     libcpmt:winapisupp.obj
 0002:00000508       ?__scrt_initialize_tss_var@@3P6AHXZEA 0000000180035508     LIBCMT:thread_safe_statics.obj
 0002:00000590       $cppxdata$??_Glocale@std@@QEAAPEAXI@Z 0000000180035590     libcpmt:cout.obj
 0002:000005b8       $cppxdata$?_Init@ios_base@std@@IEAAXXZ 00000001800355b8     libcpmt:cout.obj
 0002:000005e0       $cppxdata$??_Gios_base@std@@UEAAPEAXI@Z 00000001800355e0     libcpmt:cout.obj
 0002:00000608       $cppxdata$??0?$basic_streambuf@DU?$char_traits@D@std@@@std@@IEAA@XZ 0000000180035608     libcpmt:cout.obj
 0002:00000630       $cppxdata$??1?$basic_filebuf@DU?$char_traits@D@std@@@std@@UEAA@XZ 0000000180035630     libcpmt:cout.obj
 0002:00000658       $cppxdata$?overflow@?$basic_filebuf@DU?$char_traits@D@std@@@std@@MEAAHH@Z 0000000180035658     libcpmt:cout.obj
 0002:00000680       $cppxdata$?uflow@?$basic_filebuf@DU?$char_traits@D@std@@@std@@MEAAHXZ 0000000180035680     libcpmt:cout.obj
 0002:000006a8       $cppxdata$?_Endwrite@?$basic_filebuf@DU?$char_traits@D@std@@@std@@IEAA_NXZ 00000001800356a8     libcpmt:cout.obj
 0002:000006d0       $cppxdata$??1?$basic_ios@DU?$char_traits@D@std@@@std@@UEAA@XZ 00000001800356d0     libcpmt:cout.obj
 0002:000006f8       $cppxdata$??_G?$basic_ios@DU?$char_traits@D@std@@@std@@UEAAPEAXI@Z 00000001800356f8     libcpmt:cout.obj
 0002:00000720       $cppxdata$??0?$basic_ostream@DU?$char_traits@D@std@@@std@@QEAA@PEAV?$basic_streambuf@DU?$char_traits@D@std@@@1@_N@Z 0000000180035720     libcpmt:cout.obj
 0002:00000748       $cppxdata$??_G?$basic_ostream@DU?$char_traits@D@std@@@std@@UEAAPEAXI@Z 0000000180035748     libcpmt:cout.obj
 0002:00000770       $cppxdata$??__Fcout@std@@YAXXZ 0000000180035770     libcpmt:cout.obj
 0002:00000798       $cppxdata$??$use_facet@V?$codecvt@DDU_Mbstatet@@@std@@@std@@YAAEBV?$codecvt@DDU_Mbstatet@@@0@AEBVlocale@0@@Z 0000000180035798     libcpmt:cout.obj
 0002:000007c0       $cppxdata$?_Getcat@?$codecvt@DDU_Mbstatet@@@std@@SA_KPEAPEBVfacet@locale@2@PEBV42@@Z 00000001800357c0     libcpmt:cout.obj
 0002:00000b08       $cppxdata$??_G_Fac_node@std@@QEAAPEAXI@Z 0000000180035b08     libcpmt:locale0.obj
 0002:00000b30       $cppxdata$?_Locimp_dtor@_Locimp@locale@std@@CAXPEAV123@@Z 0000000180035b30     libcpmt:locale0.obj
 0002:00000b58       $cppxdata$??_G_Locimp@locale@std@@MEAAPEAXI@Z 0000000180035b58     libcpmt:locale0.obj
 0002:00000b80       $cppxdata$?_Init@locale@std@@CAPEAV_Locimp@12@_N@Z 0000000180035b80     libcpmt:locale0.obj
 0002:00000ba8       $cppxdata$??__Fclassic_locale@std@@YAXXZ 0000000180035ba8     libcpmt:locale0.obj
 0002:00000c70       ?_Win_errtab@std@@3QBU_Win_errtab_t@1@B 0000000180035c70     libcpmt:syserror.obj
 0002:00000ec0       ?_Sys_errtab@std@@3QBU_Sys_errtab_t@1@B 0000000180035ec0     libcpmt:syserror.obj
 0002:00001a68       $cppxdata$??__Finit_atexit@@YAXXZ 0000000180036a68     libcpmt:iosptrs.obj
 0002:00001ea0       digits                     0000000180036ea0     libcpmt:xstoul.obj
 0002:00001ec8       ndigs                      0000000180036ec8     libcpmt:xstoul.obj
 0002:00001ef0       digits                     0000000180036ef0     libcpmt:xstoull.obj
 0002:00001f18       ndigs                      0000000180036f18     libcpmt:xstoull.obj
 0002:00002560       ?LcidToLocaleNameTable@@3QBULcidToLocaleName@@B 0000000180037560     libcpmt:winapinls.obj
 0002:000033a0       ?LocaleNameToIndexTable@@3QBULocaleNameIndex@@B 00000001800383a0     libcpmt:winapinls.obj
 0002:00005390       GS_ExceptionPointers       000000018003a390     LIBCMT:gs_report.obj
 0002:00005400       ?ExceptionTemplate@?1??_CxxThrowException@@9@4UEHExceptionRecord@@B 000000018003a400     libvcruntime:throw.obj
 0002:00005440       ?ExceptionTemplate@?1??_UnwindNestedFrames@@9@4U_EXCEPTION_RECORD@@B 000000018003a440     libvcruntime:trnsctrl.obj
 0002:000054d8       ?module_names@?A0x49c8dc86@@3QBQEB_WB 000000018003a4d8     libvcruntime:winapi_downlevel.obj
 0002:000055a4       ?candidate_modules@?1??try_get_EventRegister@@YAP6AKPEBU_GUID@@P6AX0KE_K1PEAU_EVENT_FILTER_DESCRIPTOR@@PEAX@Z3PEA_K@ZXZ@4QBW4module_id@?A0x49c8dc86@@B 000000018003a5a4     libvcruntime:winapi_downlevel.obj
 0002:000055b8       ?candidate_modules@?1??try_get_EventSetInformation@@YAP6AK_KW4_EVENT_INFO_CLASS@@PEAXK@ZXZ@4QBW4module_id@?A0x49c8dc86@@B 000000018003a5b8     libvcruntime:winapi_downlevel.obj
 0002:000055d4       ?candidate_modules@?1??try_get_EventUnregister@@YAP6AK_K@ZXZ@4QBW4module_id@?A0x49c8dc86@@B 000000018003a5d4     libvcruntime:winapi_downlevel.obj
 0002:000055e8       ?candidate_modules@?1??try_get_EventWriteTransfer@@YAP6AK_KPEBU_EVENT_DESCRIPTOR@@PEBU_GUID@@2KPEAU_EVENT_DATA_DESCRIPTOR@@@ZXZ@4QBW4module_id@?A0x49c8dc86@@B 000000018003a5e8     libvcruntime:winapi_downlevel.obj
 0002:00005608       ?candidate_modules@?1??try_get_FlsAlloc@@YAP6AKP6AXPEAX@Z@ZXZ@4QBW4module_id@?A0x49c8dc86@@B 000000018003a608     libvcruntime:winapi_downlevel.obj
 0002:00005610       ?candidate_modules@?1??try_get_FlsFree@@YAP6AHK@ZXZ@4QBW4module_id@?A0x49c8dc86@@B 000000018003a610     libvcruntime:winapi_downlevel.obj
 0002:00005618       ?candidate_modules@?1??try_get_FlsGetValue@@YAP6APEAXK@ZXZ@4QBW4module_id@?A0x49c8dc86@@B 000000018003a618     libvcruntime:winapi_downlevel.obj
 0002:00005620       ?candidate_modules@?1??try_get_FlsSetValue@@YAP6AHKPEAX@ZXZ@4QBW4module_id@?A0x49c8dc86@@B 000000018003a620     libvcruntime:winapi_downlevel.obj
 0002:00005628       ?candidate_modules@?1??try_get_InitializeCriticalSectionEx@@YAP6AHPEAU_RTL_CRITICAL_SECTION@@KK@ZXZ@4QBW4module_id@?A0x49c8dc86@@B 000000018003a628     libvcruntime:winapi_downlevel.obj
 0002:00005660       ?tokenTable@@3QBQEBDB      000000018003a660     libvcruntime:undname.obj
 0002:000056d0       ?nameTable@@3QBQEBDB       000000018003a6d0     libvcruntime:undname.obj
 0002:00005958       ?rttiTable@@3QBQEBDB       000000018003a958     libvcruntime:undname.obj
 0002:00006330       errtable                   000000018003b330     libucrt:errno.obj
 0002:00007680       __flag_x_one_y_snan        000000018003c680     libucrt:pow.obj
 0002:00007684       __flag_x_zero_z_inf        000000018003c684     libucrt:pow.obj
 0002:00007688       __flag_x_nan               000000018003c688     libucrt:pow.obj
 0002:0000768c       __flag_y_nan               000000018003c68c     libucrt:pow.obj
 0002:00007690       __flag_x_nan_y_nan         000000018003c690     libucrt:pow.obj
 0002:00007694       __flag_x_neg_y_notint      000000018003c694     libucrt:pow.obj
 0002:00007698       __flag_z_zero              000000018003c698     libucrt:pow.obj
 0002:0000769c       __flag_z_denormal          000000018003c69c     libucrt:pow.obj
 0002:000076a0       __flag_z_inf               000000018003c6a0     libucrt:pow.obj
 0002:000076b0       __ay_max_bound             000000018003c6b0     libucrt:pow.obj
 0002:000076b8       __ay_min_bound             000000018003c6b8     libucrt:pow.obj
 0002:000076c0       __sign_mask                000000018003c6c0     libucrt:pow.obj
 0002:000076c8       __sign_and_exp_mask        000000018003c6c8     libucrt:pow.obj
 0002:000076d0       __exp_mask                 000000018003c6d0     libucrt:pow.obj
 0002:000076d8       __neg_inf                  000000018003c6d8     libucrt:pow.obj
 0002:000076e0       __pos_inf                  000000018003c6e0     libucrt:pow.obj
 0002:000076e8       __pos_one                  000000018003c6e8     libucrt:pow.obj
 0002:000076f0       __pos_zero                 000000018003c6f0     libucrt:pow.obj
 0002:000076f8       __exp_mant_mask            000000018003c6f8     libucrt:pow.obj
 0002:00007700       __mant_mask                000000018003c700     libucrt:pow.obj
 0002:00007708       __ind_pattern              000000018003c708     libucrt:pow.obj
 0002:00007710       __neg_qnan                 000000018003c710     libucrt:pow.obj
 0002:00007718       __qnan                     000000018003c718     libucrt:pow.obj
 0002:00007720       __qnan_set                 000000018003c720     libucrt:pow.obj
 0002:00007728       __neg_one                  000000018003c728     libucrt:pow.obj
 0002:00007730       __neg_zero                 000000018003c730     libucrt:pow.obj
 0002:00007738       __exp_shift                000000018003c738     libucrt:pow.obj
 0002:00007740       __exp_bias                 000000018003c740     libucrt:pow.obj
 0002:00007748       __exp_bias_m1              000000018003c748     libucrt:pow.obj
 0002:00007750       __yexp_53                  000000018003c750     libucrt:pow.obj
 0002:00007758       __mant_full                000000018003c758     libucrt:pow.obj
 0002:00007760       __1_before_mant            000000018003c760     libucrt:pow.obj
 0002:00007768       __mask_mant_all8           000000018003c768     libucrt:pow.obj
 0002:00007770       __mask_mant9               000000018003c770     libucrt:pow.obj
 0002:00007780       __real_fffffffff8000000    000000018003c780     libucrt:pow.obj
 0002:00007790       __mask_8000000000000000    000000018003c790     libucrt:pow.obj
 0002:000077a0       __real_4090040000000000    000000018003c7a0     libucrt:pow.obj
 0002:000077b0       __real_C090C80000000000    000000018003c7b0     libucrt:pow.obj
 0002:000077c0       __real_ninf                000000018003c7c0     libucrt:pow.obj
 0002:000077d0       __real_inf                 000000018003c7d0     libucrt:pow.obj
 0002:000077e0       __real_nan                 000000018003c7e0     libucrt:pow.obj
 0002:000077f0       __real_mant                000000018003c7f0     libucrt:pow.obj
 0002:00007800       __mask_1023                000000018003c800     libucrt:pow.obj
 0002:00007810       __mask_001                 000000018003c810     libucrt:pow.obj
 0002:00007820       __real_log2_lead           000000018003c820     libucrt:pow.obj
 0002:00007830       __real_log2_tail           000000018003c830     libucrt:pow.obj
 0002:00007840       __real_two                 000000018003c840     libucrt:pow.obj
 0002:00007850       __real_one                 000000018003c850     libucrt:pow.obj
 0002:00007860       __real_half                000000018003c860     libucrt:pow.obj
 0002:00007870       __mask_100                 000000018003c870     libucrt:pow.obj
 0002:00007880       __real_1_over_2            000000018003c880     libucrt:pow.obj
 0002:00007890       __real_1_over_3            000000018003c890     libucrt:pow.obj
 0002:000078a0       __real_1_over_4            000000018003c8a0     libucrt:pow.obj
 0002:000078b0       __real_1_over_5            000000018003c8b0     libucrt:pow.obj
 0002:000078c0       __real_1_over_6            000000018003c8c0     libucrt:pow.obj
 0002:000078d0       __real_1_over_7            000000018003c8d0     libucrt:pow.obj
 0002:000078e0       __mask_1023_f              000000018003c8e0     libucrt:pow.obj
 0002:000078f0       __mask_2045                000000018003c8f0     libucrt:pow.obj
 0002:00007900       __real_threshold           000000018003c900     libucrt:pow.obj
 0002:00007910       __real_notsign             000000018003c910     libucrt:pow.obj
 0002:00007920       __log_F_inv_head           000000018003c920     libucrt:pow.obj
 0002:00008130       __log_F_inv_tail           000000018003d130     libucrt:pow.obj
 0002:00008940       __denormal_threshold       000000018003d940     libucrt:pow.obj
 0002:00008950       __enable_almost_inf        000000018003d950     libucrt:pow.obj
 0002:00008960       __real_zero                000000018003d960     libucrt:pow.obj
 0002:00008970       __real_smallest_denormal   000000018003d970     libucrt:pow.obj
 0002:00008980       __denormal_tiny_threshold  000000018003d980     libucrt:pow.obj
 0002:00008990       __real_p65536              000000018003d990     libucrt:pow.obj
 0002:000089a0       __real_m68800              000000018003d9a0     libucrt:pow.obj
 0002:000089b0       __real_64_by_log2          000000018003d9b0     libucrt:pow.obj
 0002:000089c0       __real_log2_by_64_head     000000018003d9c0     libucrt:pow.obj
 0002:000089d0       __real_log2_by_64_tail     000000018003d9d0     libucrt:pow.obj
 0002:000089e0       __real_1_by_720            000000018003d9e0     libucrt:pow.obj
 0002:000089f0       __real_1_by_120            000000018003d9f0     libucrt:pow.obj
 0002:00008a00       __real_1_by_24             000000018003da00     libucrt:pow.obj
 0002:00008a10       __real_1_by_6              000000018003da10     libucrt:pow.obj
 0002:00008a20       __real_1_by_2              000000018003da20     libucrt:pow.obj
 0002:00008a30       __flag_x_one_y_snan        000000018003da30     libucrt:powf.obj
 0002:00008a34       __flag_x_zero_z_inf        000000018003da34     libucrt:powf.obj
 0002:00008a38       __flag_x_nan               000000018003da38     libucrt:powf.obj
 0002:00008a3c       __flag_y_nan               000000018003da3c     libucrt:powf.obj
 0002:00008a40       __flag_x_nan_y_nan         000000018003da40     libucrt:powf.obj
 0002:00008a44       __flag_x_neg_y_notint      000000018003da44     libucrt:powf.obj
 0002:00008a48       __flag_z_zero              000000018003da48     libucrt:powf.obj
 0002:00008a4c       __flag_z_denormal          000000018003da4c     libucrt:powf.obj
 0002:00008a50       __flag_z_inf               000000018003da50     libucrt:powf.obj
 0002:00008a54       L__1_by_3                  000000018003da54     libucrt:powf.obj
 0002:00008a5c       L__log2                    000000018003da5c     libucrt:powf.obj
 0002:00008a64       L__max_exp_arg             000000018003da64     libucrt:powf.obj
 0002:00008a6c       L__min_exp_arg             000000018003da6c     libucrt:powf.obj
 0002:00008a74       L__real_log2_by_64         000000018003da74     libucrt:powf.obj
 0002:00008a7c       L__1_by_6                  000000018003da7c     libucrt:powf.obj
 0002:00008a84       L__real_threshold          000000018003da84     libucrt:powf.obj
 0002:00008a8c       L__real_one                000000018003da8c     libucrt:powf.obj
 0002:00008a94       L__real_two                000000018003da94     libucrt:powf.obj
 0002:00008a9c       L__neg_zero                000000018003da9c     libucrt:powf.obj
 0002:00008ab0       L__real_ca42               000000018003dab0     libucrt:powf.obj
 0002:00008ab8       L__real_ca4                000000018003dab8     libucrt:powf.obj
 0002:00008ac0       L__real_ca31               000000018003dac0     libucrt:powf.obj
 0002:00008ac8       L__real_ca3                000000018003dac8     libucrt:powf.obj
 0002:00008ad0       L__clear_sign              000000018003dad0     libucrt:powf.obj
 0002:00008ae0       L__real_64_by_log2         000000018003dae0     libucrt:powf.obj
 0002:00008af0       L__1_by_2                  000000018003daf0     libucrt:powf.obj
 0002:00008b00       L__1023                    000000018003db00     libucrt:powf.obj
 0002:00008b10       L__xexp_bits_xmantissa_bits 000000018003db10     libucrt:powf.obj
 0002:00009430       __acrt_initializers        000000018003e430     libucrt:initialization.obj
 0002:00009630       _first_127char             000000018003e630     libucrt:wsetlocale.obj
 0002:00009dd0       module_names               000000018003edd0     libucrt:winapi_thunks.obj
 0002:0000a300       ?candidate_modules@?1??try_get_CompareStringEx@@YAP6AHPEB_WK0H0HPEAU_nlsversioninfo@@PEAX_J@ZXZ@4QBW4module_id@?A0x63058377@@B 000000018003f300     libucrt:winapi_thunks.obj
 0002:0000a308       ?candidate_modules@?1??try_get_EnumSystemLocalesEx@@YAP6AHP6AHPEA_WK_J@ZK1PEAX@ZXZ@4QBW4module_id@?A0x63058377@@B 000000018003f308     libucrt:winapi_thunks.obj
 0002:0000a328       ?candidate_modules@?1??try_get_FlsAlloc@@YAP6AKP6AXPEAX@Z@ZXZ@4QBW4module_id@?A0x63058377@@B 000000018003f328     libucrt:winapi_thunks.obj
 0002:0000a330       ?candidate_modules@?1??try_get_FlsFree@@YAP6AHK@ZXZ@4QBW4module_id@?A0x63058377@@B 000000018003f330     libucrt:winapi_thunks.obj
 0002:0000a338       ?candidate_modules@?1??try_get_FlsGetValue@@YAP6APEAXK@ZXZ@4QBW4module_id@?A0x63058377@@B 000000018003f338     libucrt:winapi_thunks.obj
 0002:0000a340       ?candidate_modules@?1??try_get_FlsSetValue@@YAP6AHKPEAX@ZXZ@4QBW4module_id@?A0x63058377@@B 000000018003f340     libucrt:winapi_thunks.obj
 0002:0000a348       ?candidate_modules@?1??try_get_GetActiveWindow@@YAP6APEAUHWND__@@XZXZ@4QBW4module_id@?A0x63058377@@B 000000018003f348     libucrt:winapi_thunks.obj
 0002:0000a360       ?candidate_modules@?1??try_get_GetCurrentPackageId@@YAP6AJPEAIPEAE@ZXZ@4QBW4module_id@?A0x63058377@@B 000000018003f360     libucrt:winapi_thunks.obj
 0002:0000a368       ?candidate_modules@?1??try_get_GetLastActivePopup@@YAP6APEAUHWND__@@PEAU2@@ZXZ@4QBW4module_id@?A0x63058377@@B 000000018003f368     libucrt:winapi_thunks.obj
 0002:0000a388       ?candidate_modules@?1??try_get_GetLocaleInfoEx@@YAP6AHPEB_WKPEA_WH@ZXZ@4QBW4module_id@?A0x63058377@@B 000000018003f388     libucrt:winapi_thunks.obj
 0002:0000a390       ?candidate_modules@?1??try_get_GetProcessWindowStation@@YAP6APEAUHWINSTA__@@XZXZ@4QBW4module_id@?A0x63058377@@B 000000018003f390     libucrt:winapi_thunks.obj
 0002:0000a3b0       ?candidate_modules@?1??try_get_GetUserDefaultLocaleName@@YAP6AHPEA_WH@ZXZ@4QBW4module_id@?A0x63058377@@B 000000018003f3b0     libucrt:winapi_thunks.obj
 0002:0000a3d8       ?candidate_modules@?1??try_get_GetUserObjectInformationW@@YAP6AHPEAXH0KPEAK@ZXZ@4QBW4module_id@?A0x63058377@@B 000000018003f3d8     libucrt:winapi_thunks.obj
 0002:0000a400       ?candidate_modules@?1??try_get_InitializeCriticalSectionEx@@YAP6AHPEAU_RTL_CRITICAL_SECTION@@KK@ZXZ@4QBW4module_id@?A0x63058377@@B 000000018003f400     libucrt:winapi_thunks.obj
 0002:0000a408       ?candidate_modules@?1??try_get_IsValidLocaleName@@YAP6AHPEB_W@ZXZ@4QBW4module_id@?A0x63058377@@B 000000018003f408     libucrt:winapi_thunks.obj
 0002:0000a428       ?candidate_modules@?1??try_get_LCMapStringEx@@YAP6AHPEB_WK0HPEA_WHPEAU_nlsversioninfo@@PEAX_J@ZXZ@4QBW4module_id@?A0x63058377@@B 000000018003f428     libucrt:winapi_thunks.obj
 0002:0000a430       ?candidate_modules@?1??try_get_LCIDToLocaleName@@YAP6AHKPEA_WHK@ZXZ@4QBW4module_id@?A0x63058377@@B 000000018003f430     libucrt:winapi_thunks.obj
 0002:0000a450       ?candidate_modules@?1??try_get_LocaleNameToLCID@@YAP6AKPEB_WK@ZXZ@4QBW4module_id@?A0x63058377@@B 000000018003f450     libucrt:winapi_thunks.obj
 0002:0000a470       ?candidate_modules@?1??try_get_MessageBoxA@@YAP6AHPEAUHWND__@@PEBD1I@ZXZ@4QBW4module_id@?A0x63058377@@B 000000018003f470     libucrt:winapi_thunks.obj
 0002:0000a488       ?candidate_modules@?1??try_get_MessageBoxW@@YAP6AHPEAUHWND__@@PEB_W1I@ZXZ@4QBW4module_id@?A0x63058377@@B 000000018003f488     libucrt:winapi_thunks.obj
 0002:0000c2e0       _mb_locale_names           00000001800412e0     libucrt:mbctype.obj
 0002:0000d2f0       __real@433fffffffffffff    00000001800422f0     libucrt:fpsr.obj
 0002:0000d2f8       __real@c33fffffffffffff    00000001800422f8     libucrt:fpsr.obj
 0002:0000d300       LcidToLocaleNameTable      0000000180042300     libucrt:lcidtoname_downlevel.obj
 0002:0000e140       LocaleNameToIndexTable     0000000180043140     libucrt:lcidtoname_downlevel.obj
 0002:0000ef80       __real_ninf                0000000180043f80     libucrt:log10.obj
 0002:0000ef90       __real_inf                 0000000180043f90     libucrt:log10.obj
 0002:0000efa0       __real_neg_qnan            0000000180043fa0     libucrt:log10.obj
 0002:0000efb0       __real_qnanbit             0000000180043fb0     libucrt:log10.obj
 0002:0000efc0       __int_1023                 0000000180043fc0     libucrt:log10.obj
 0002:0000efd0       __mask_001                 0000000180043fd0     libucrt:log10.obj
 0002:0000efe0       __mask_mant                0000000180043fe0     libucrt:log10.obj
 0002:0000eff0       __mask_mant_top8           0000000180043ff0     libucrt:log10.obj
 0002:0000f000       __mask_mant9               0000000180044000     libucrt:log10.obj
 0002:0000f010       __real_log10_e             0000000180044010     libucrt:log10.obj
 0002:0000f020       __real_log10_e_lead        0000000180044020     libucrt:log10.obj
 0002:0000f030       __real_log10_e_tail        0000000180044030     libucrt:log10.obj
 0002:0000f040       __real_log10_2_lead        0000000180044040     libucrt:log10.obj
 0002:0000f050       __real_log10_2_tail        0000000180044050     libucrt:log10.obj
 0002:0000f060       __real_two                 0000000180044060     libucrt:log10.obj
 0002:0000f070       __real_one                 0000000180044070     libucrt:log10.obj
 0002:0000f080       __real_half                0000000180044080     libucrt:log10.obj
 0002:0000f090       __mask_100                 0000000180044090     libucrt:log10.obj
 0002:0000f0a0       __real_1_over_512          00000001800440a0     libucrt:log10.obj
 0002:0000f0b0       __real_1_over_2            00000001800440b0     libucrt:log10.obj
 0002:0000f0c0       __real_1_over_3            00000001800440c0     libucrt:log10.obj
 0002:0000f0d0       __real_1_over_4            00000001800440d0     libucrt:log10.obj
 0002:0000f0e0       __real_1_over_5            00000001800440e0     libucrt:log10.obj
 0002:0000f0f0       __real_1_over_6            00000001800440f0     libucrt:log10.obj
 0002:0000f100       __real_neg_1023            0000000180044100     libucrt:log10.obj
 0002:0000f110       __mask_2045                0000000180044110     libucrt:log10.obj
 0002:0000f120       __real_threshold           0000000180044120     libucrt:log10.obj
 0002:0000f130       __real_near_one_lt         0000000180044130     libucrt:log10.obj
 0002:0000f140       __real_near_one_gt         0000000180044140     libucrt:log10.obj
 0002:0000f150       __real_min_norm            0000000180044150     libucrt:log10.obj
 0002:0000f160       __real_notsign             0000000180044160     libucrt:log10.obj
 0002:0000f170       __real_ca1                 0000000180044170     libucrt:log10.obj
 0002:0000f180       __real_ca2                 0000000180044180     libucrt:log10.obj
 0002:0000f190       __real_ca3                 0000000180044190     libucrt:log10.obj
 0002:0000f1a0       __real_ca4                 00000001800441a0     libucrt:log10.obj
 0002:0000f1b0       __mask_lower               00000001800441b0     libucrt:log10.obj
 0002:0000f1c0       __flag_x_zero              00000001800441c0     libucrt:log10.obj
 0002:0000f1c4       __flag_x_neg               00000001800441c4     libucrt:log10.obj
 0002:0000f1c8       __flag_x_nan               00000001800441c8     libucrt:log10.obj
 0002:000114c0       ?atan_jby256_lead@?1??atan2@@9@9 00000001800464c0     libucrt:atan2.obj
 0002:00011c50       ?atan_jby256_tail@?1??atan2@@9@9 0000000180046c50     libucrt:atan2.obj
 0002:00012480       L_real_piby2_1             0000000180047480     libucrt:cos.obj
 0002:00012490       L_real_piby2_1tail         0000000180047490     libucrt:cos.obj
 0002:000124a0       L_real_piby2_2             00000001800474a0     libucrt:cos.obj
 0002:000124b0       L_real_piby2_2tail         00000001800474b0     libucrt:cos.obj
 0002:000124c0       L_one                      00000001800474c0     libucrt:cos.obj
 0002:000124d0       L_signbit                  00000001800474d0     libucrt:cos.obj
 0002:000124e0       L_int_one                  00000001800474e0     libucrt:cos.obj
 0002:000124f0       L_int_two                  00000001800474f0     libucrt:cos.obj
 0002:00012500       L_2_by_pi                  0000000180047500     libucrt:cos.obj
 0002:00012508       L_one_half                 0000000180047508     libucrt:cos.obj
 0002:00012510       L_neg_one_half             0000000180047510     libucrt:cos.obj
 0002:00012518       L_two_to_neg_27            0000000180047518     libucrt:cos.obj
 0002:00012520       L_two_to_neg_13            0000000180047520     libucrt:cos.obj
 0002:00012528       L_piby4                    0000000180047528     libucrt:cos.obj
 0002:00012530       L_small_arg_cw             0000000180047530     libucrt:cos.obj
 0002:00012538       L_small_arg_bdl            0000000180047538     libucrt:cos.obj
 0002:00012540       L_sign_mask                0000000180047540     libucrt:cos.obj
 0002:00012548       L__inf_mask_64             0000000180047548     libucrt:cos.obj
 0002:00012550       L_2_to_32                  0000000180047550     libucrt:cos.obj
 0002:00012560       __flag_x_nan               0000000180047560     libucrt:exp.obj
 0002:00012564       __flag_y_zero              0000000180047564     libucrt:exp.obj
 0002:00012568       __flag_y_inf               0000000180047568     libucrt:exp.obj
 0002:00012570       L__real_1_by_720           0000000180047570     libucrt:exp.obj
 0002:00012580       L__real_1_by_120           0000000180047580     libucrt:exp.obj
 0002:00012590       L__real_1_by_6             0000000180047590     libucrt:exp.obj
 0002:000125a0       L__real_1_by_2             00000001800475a0     libucrt:exp.obj
 0002:000125b0       L__real_1_by_24            00000001800475b0     libucrt:exp.obj
 0002:000125c0       L__log2_by_64_mtail_mhead  00000001800475c0     libucrt:exp.obj
 0002:000125d0       L__ln_of_smallest_normal   00000001800475d0     libucrt:exp.obj
 0002:000125d8       L__zero                    00000001800475d8     libucrt:exp.obj
 0002:000125e0       L__max_exp_arg             00000001800475e0     libucrt:exp.obj
 0002:000125e8       L__denormal_tiny_threshold 00000001800475e8     libucrt:exp.obj
 0002:000125f0       L__min_exp_arg             00000001800475f0     libucrt:exp.obj
 0002:000125f8       L__real_64_by_log2         00000001800475f8     libucrt:exp.obj
 0002:00012600       L__positive_infinity       0000000180047600     libucrt:exp.obj
 0002:00012608       L__negative_infinity       0000000180047608     libucrt:exp.obj
 0002:00012610       L__real_qnanbit            0000000180047610     libucrt:exp.obj
 0002:00012618       L__real_x_near0_threshold  0000000180047618     libucrt:exp.obj
 0002:00012620       L__log2_by_64_mhead        0000000180047620     libucrt:exp.obj
 0002:00012628       L__log2_by_64_mtail        0000000180047628     libucrt:exp.obj
 0002:00012630       L__real_smallest_denormal  0000000180047630     libucrt:exp.obj
 0002:00012638       L__real_one                0000000180047638     libucrt:exp.obj
 0002:00012640       L__2_to_neg_26             0000000180047640     libucrt:exp.obj
 0002:00012648       L__2_to_32                 0000000180047648     libucrt:exp.obj
 0002:00012650       L__min_normal              0000000180047650     libucrt:exp.obj
 0002:00012658       L__2_to_neg_63             0000000180047658     libucrt:exp.obj
 0002:00012660       L_real_piby2_1             0000000180047660     libucrt:sin.obj
 0002:00012670       L_real_piby2_1tail         0000000180047670     libucrt:sin.obj
 0002:00012680       L_real_piby2_2             0000000180047680     libucrt:sin.obj
 0002:00012690       L_real_piby2_2tail         0000000180047690     libucrt:sin.obj
 0002:000126a0       L_one                      00000001800476a0     libucrt:sin.obj
 0002:000126b0       L_signbit                  00000001800476b0     libucrt:sin.obj
 0002:000126c0       L_int_one                  00000001800476c0     libucrt:sin.obj
 0002:000126d0       L_int_two                  00000001800476d0     libucrt:sin.obj
 0002:000126e0       L_int_three                00000001800476e0     libucrt:sin.obj
 0002:000126f0       L_2_by_pi                  00000001800476f0     libucrt:sin.obj
 0002:000126f8       L_one_half                 00000001800476f8     libucrt:sin.obj
 0002:00012700       L_one_sixth                0000000180047700     libucrt:sin.obj
 0002:00012708       L_two_to_neg_27            0000000180047708     libucrt:sin.obj
 0002:00012710       L_two_to_neg_13            0000000180047710     libucrt:sin.obj
 0002:00012718       L_piby4                    0000000180047718     libucrt:sin.obj
 0002:00012720       L_small_arg_cw             0000000180047720     libucrt:sin.obj
 0002:00012728       L_small_arg_bdl            0000000180047728     libucrt:sin.obj
 0002:00012730       L__inf_mask_64             0000000180047730     libucrt:sin.obj
 0002:00012738       L_near_one                 0000000180047738     libucrt:sin.obj
 0002:00012800       L__piby2_part3_piby2_lead  0000000180047800     libucrt:remainder_piby2_forasm.obj
 0002:00012810       L__piby2_part1             0000000180047810     libucrt:remainder_piby2_forasm.obj
 0002:00012820       L__piby2_part2             0000000180047820     libucrt:remainder_piby2_forasm.obj
 0002:00012830       L_piby2_1                  0000000180047830     libucrt:remainder_piby2_forasm.obj
 0002:00012840       L_piby2_2                  0000000180047840     libucrt:remainder_piby2_forasm.obj
 0002:00012850       L_piby2_3                  0000000180047850     libucrt:remainder_piby2_forasm.obj
 0002:00012860       L_piby2_1tail              0000000180047860     libucrt:remainder_piby2_forasm.obj
 0002:00012870       L_piby2_2tail              0000000180047870     libucrt:remainder_piby2_forasm.obj
 0002:00012880       L_piby2_3tail              0000000180047880     libucrt:remainder_piby2_forasm.obj
 0002:00012890       L_twobypi                  0000000180047890     libucrt:remainder_piby2_forasm.obj
 0002:000128a0       L_point_five               00000001800478a0     libucrt:remainder_piby2_forasm.obj
 0002:000128b0       L_int_three                00000001800478b0     libucrt:remainder_piby2_forasm.obj
 0002:000128c0       L_inf_mask_64              00000001800478c0     libucrt:remainder_piby2_forasm.obj
 0002:000128d0       L_signbit                  00000001800478d0     libucrt:remainder_piby2_forasm.obj
 0002:000128e0       L_int_1                    00000001800478e0     libucrt:remainder_piby2_forasm.obj
 0002:000128f0       L_int_15                   00000001800478f0     libucrt:remainder_piby2_forasm.obj
 0002:000128f8       L_int_48                   00000001800478f8     libucrt:remainder_piby2_forasm.obj
 0002:00012900       L_3pio4                    0000000180047900     libucrt:remainder_piby2_forasm.obj
 0002:00012908       L_5pio4                    0000000180047908     libucrt:remainder_piby2_forasm.obj
 0002:00012910       L_7pio4                    0000000180047910     libucrt:remainder_piby2_forasm.obj
 0002:00012918       L_9pio4                    0000000180047918     libucrt:remainder_piby2_forasm.obj
 0002:00012920       L__2_by_pi_bits            0000000180047920     libucrt:remainder_piby2_forasm.obj
 0002:000129c0       L_piby2_lead               00000001800479c0     libucrt:remainder_piby2_forfma3.obj
 0002:000129d0       L_fff800                   00000001800479d0     libucrt:remainder_piby2_forfma3.obj
 0002:000129e0       L_piby2_part1              00000001800479e0     libucrt:remainder_piby2_forfma3.obj
 0002:000129f0       L_piby2_part2              00000001800479f0     libucrt:remainder_piby2_forfma3.obj
 0002:00012a00       L_piby2_part3              0000000180047a00     libucrt:remainder_piby2_forfma3.obj
 0002:00012a10       L_piby2_1                  0000000180047a10     libucrt:remainder_piby2_forfma3.obj
 0002:00012a20       L_piby2_2                  0000000180047a20     libucrt:remainder_piby2_forfma3.obj
 0002:00012a30       L_piby2_3                  0000000180047a30     libucrt:remainder_piby2_forfma3.obj
 0002:00012a40       L_piby2_1tail              0000000180047a40     libucrt:remainder_piby2_forfma3.obj
 0002:00012a50       L_piby2_2tail              0000000180047a50     libucrt:remainder_piby2_forfma3.obj
 0002:00012a60       L_piby2_3tail              0000000180047a60     libucrt:remainder_piby2_forfma3.obj
 0002:00012a70       L_sign_mask                0000000180047a70     libucrt:remainder_piby2_forfma3.obj
 0002:00012a80       L_twobypi                  0000000180047a80     libucrt:remainder_piby2_forfma3.obj
 0002:00012a90       L_point_five               0000000180047a90     libucrt:remainder_piby2_forfma3.obj
 0002:00012aa0       L_int_three                0000000180047aa0     libucrt:remainder_piby2_forfma3.obj
 0002:00012ab0       L_inf_mask_64              0000000180047ab0     libucrt:remainder_piby2_forfma3.obj
 0002:00012ac0       L_signbit                  0000000180047ac0     libucrt:remainder_piby2_forfma3.obj
 0002:00012ad0       L_r                        0000000180047ad0     libucrt:remainder_piby2_forfma3.obj
 0002:00012ae0       L_xc1                      0000000180047ae0     libucrt:remainder_piby2_forfma3.obj
 0002:00012af0       L_xc2                      0000000180047af0     libucrt:remainder_piby2_forfma3.obj
 0002:00012b00       L_xc3                      0000000180047b00     libucrt:remainder_piby2_forfma3.obj
 0002:00012b10       L_sigma                    0000000180047b10     libucrt:remainder_piby2_forfma3.obj
 0002:00013b98       ?_TlgEvent@?3??__telemetry_main_invoke_trigger@@9@4U<unnamed-type-_TlgEvent>@?3??1@YAXQEAUHINSTANCE__@@@Z@B 0000000180048b98     libvcruntime:telemetry.obj
 0002:00013bd4       ?_TlgEvent@?3??__telemetry_main_return_trigger@@9@4U<unnamed-type-_TlgEvent>@?3??1@YAXQEAUHINSTANCE__@@@Z@B 0000000180048bd4     libvcruntime:telemetry.obj
 0002:00013c0f       ?_Tlg_Microsoft_CRTProviderProv_Meta@@3U<unnamed-type-_Tlg_Microsoft_CRTProviderProv_Meta>@@B 0000000180048c0f     libvcruntime:telemetry.obj
 0002:00014170       $unwind$?InitAll@dealImg@@YAXV?$Local@VObject@v8@@@v8@@0@Z 0000000180049170     addon.obj
 0002:00014178       $unwind$??2@YAPEAX_K@Z     0000000180049178     LIBCMT:new_scalar.obj
 0002:00014178       $unwind$feholdexcept       0000000180049178     libucrt:feholdexcept.obj
 0002:00014178       $unwind$??_Gerror_category@std@@UEAAPEAXI@Z 0000000180049178     dealImg.obj
 0002:00014178       $unwind$??_GFCEffectAutoColorLevel@@UEAAPEAXI@Z 0000000180049178     dealImg.obj
 0002:00014178       $unwind$??1FCEffectBlur_Zoom@@UEAA@XZ 0000000180049178     dealImg.obj
 0002:00014178       $unwind$?imbue@?$basic_filebuf@DU?$char_traits@D@std@@@std@@MEAAXAEBVlocale@2@@Z 0000000180049178     libcpmt:cout.obj
 0002:00014178       $unwind$?do_narrow@?$ctype@D@std@@MEBAPEBDPEBD0DPEAD@Z 0000000180049178     dealImg.obj
 0002:00014178       $unwind$??0length_error@std@@QEAA@AEBV01@@Z 0000000180049178     libcpmt:xthrow.obj
 0002:00014178       $unwind$?do_widen@?$ctype@D@std@@MEBAPEBDPEBD0PEAD@Z 0000000180049178     dealImg.obj
 0002:00014178       $unwind$??_G_System_error@std@@UEAAPEAXI@Z 0000000180049178     dealImg.obj
 0002:00014178       $unwind$fegetenv           0000000180049178     libucrt:fegetenv.obj
 0002:00014178       $unwind$??0bad_array_new_length@std@@QEAA@AEBV01@@Z 0000000180049178     LIBCMT:throw_bad_alloc.obj
 0002:00014178       $unwind$??_G?$codecvt@DDU_Mbstatet@@@std@@MEAAPEAXI@Z 0000000180049178     libcpmt:cout.obj
 0002:00014178       $unwind$?message@_Iostream_error_category@std@@UEBA?AV?$basic_string@DU?$char_traits@D@std@@V?$allocator@D@2@@2@H@Z 0000000180049178     dealImg.obj
 0002:00014178       $unwind$?_Facet_Register@std@@YAXPEAV_Facet_base@1@@Z 0000000180049178     libcpmt:locale0.obj
 0002:00014178       $unwind$?exit_or_terminate_process@@YAXI@Z 0000000180049178     libucrt:exit.obj
 0002:00014178       $unwind$?__StateFromIp@@YAHPEBU_s_FuncInfo@@PEAU_xDISPATCHER_CONTEXT@@_J@Z 0000000180049178     libvcruntime:ehstate.obj
 0002:00014178       $unwind$??_G_Iostream_error_category@std@@UEAAPEAXI@Z 0000000180049178     dealImg.obj
 0002:00014178       $unwind$??_Gtype_info@@UEAAPEAXI@Z 0000000180049178     LIBCMT:std_type_info_static.obj
 0002:00014178       $unwind$_SetThrowImageBase 0000000180049178     libvcruntime:trnsctrl.obj
 0002:00014178       $unwind$??_GFCEffectAdjustRGB@@UEAAPEAXI@Z 0000000180049178     dealImg.obj
 0002:00014178       $unwind$__acrt_update_locale_info 0000000180049178     libucrt:locale_update.obj
 0002:00014178       $unwind$??_GFCEffectGrayscale@@UEAAPEAXI@Z 0000000180049178     dealImg.obj
 0002:00014178       $unwind$__raise_securityfailure 0000000180049178     LIBCMT:gs_report.obj
 0002:00014178       $unwind$__vcrt_uninitialize_locks 0000000180049178     libvcruntime:locks.obj
 0002:00014178       $unwind$??0bad_exception@std@@QEAA@AEBV01@@Z 0000000180049178     libvcruntime:frame.obj
 0002:00014178       $unwind$??1FCEffectBlur_Radial@@UEAA@XZ 0000000180049178     dealImg.obj
 0002:00014178       $unwind$?setbuf@?$basic_filebuf@DU?$char_traits@D@std@@@std@@MEAAPEAV?$basic_streambuf@DU?$char_traits@D@std@@@2@PEAD_J@Z 0000000180049178     libcpmt:cout.obj
 0002:00014178       $unwind$??_G_Facet_base@std@@UEAAPEAXI@Z 0000000180049178     dealImg.obj
 0002:00014178       $unwind$?_Ios_base_dtor@ios_base@std@@CAXPEAV12@@Z 0000000180049178     libcpmt:ios.obj
 0002:00014178       $unwind$?DloadReleaseSectionWriteAccess@@YAXXZ 0000000180049178     DelayImp:delayhlp.obj
 0002:00014178       $unwind$fesetenv           0000000180049178     libucrt:fesetenv.obj
 0002:00014178       $unwind$__acrt_stdio_free_buffer_nolock 0000000180049178     libucrt:_freebuf.obj
 0002:00014178       $unwind$__vcrt_freeptd     0000000180049178     libvcruntime:per_thread_data.obj
 0002:00014178       $unwind$??_Gruntime_error@std@@UEAAPEAXI@Z 0000000180049178     dealImg.obj
 0002:00014178       $unwind$??_Gfailure@ios_base@std@@UEAAPEAXI@Z 0000000180049178     dealImg.obj
 0002:00014178       $unwind$_IsExceptionObjectToBeDestroyed 0000000180049178     libvcruntime:trnsctrl.obj
 0002:00014178       $unwind$??0out_of_range@std@@QEAA@AEBV01@@Z 0000000180049178     libcpmt:xthrow.obj
 0002:00014178       $unwind$??_Gexception@stdext@@UEAAPEAXI@Z 0000000180049178     dealImg.obj
 0002:00014178       $unwind$??$message_box_wait_thread@_W@@YAKQEAX@Z 0000000180049178     libucrt:crtmbox.obj
 0002:00014178       $unwind$?NewInstance@set@dealImg@@SAXAEBV?$FunctionCallbackInfo@VValue@v8@@@v8@@@Z 0000000180049178     dealImg.obj
 0002:00014178       $unwind$__scrt_initialize_crt 0000000180049178     LIBCMT:utility.obj
 0002:00014178       $unwind$__std_type_info_destroy_list 0000000180049178     libvcruntime:std_type_info.obj
 0002:00014178       $unwind$__acrt_update_multibyte_info 0000000180049178     libucrt:locale_update.obj
 0002:00014178       $unwind$??1ObjectWrap@node@@UEAA@XZ 0000000180049178     dealImg.obj
 0002:00014178       $unwind$load_exe_hook      0000000180049178     win_delay_load_hook.obj
 0002:00014178       $unwind$_CreateFrameInfo   0000000180049178     libvcruntime:trnsctrl.obj
 0002:00014178       $unwind$__acrt_freeptd     0000000180049178     libucrt:per_thread_data.obj
 0002:00014178       $unwind$__acrt_can_show_message_box 0000000180049178     libucrt:winapi_thunks.obj
 0002:00014178       $unwind$?_Addstd@ios_base@std@@SAXPEAV12@@Z 0000000180049178     libcpmt:ios.obj
 0002:00014178       $unwind$_clearfp           0000000180049178     libucrt:ieee.obj
 0002:00014178       $unwind$?New@set@dealImg@@CAXAEBV?$FunctionCallbackInfo@VValue@v8@@@v8@@@Z 0000000180049178     dealImg.obj
 0002:00014178       $unwind$__std_exception_destroy 0000000180049178     libvcruntime:std_exception.obj
 0002:00014178       $unwind$_malloc_base       0000000180049178     libucrt:malloc_base.obj
 0002:00014178       $unwind$_Init_thread_header 0000000180049178     LIBCMT:thread_safe_statics.obj
 0002:00014178       $unwind$??1FCEffectMosaic@@UEAA@XZ 0000000180049178     dealImg.obj
 0002:00014178       $unwind$?type_case_integer@?$output_processor@_WV?$string_output_adapter@_W@__crt_stdio_output@@V?$standard_base@_WV?$string_output_adapter@_W@__crt_stdio_output@@@2@@__crt_stdio_output@@AEAA_NI_N@Z 0000000180049178     libucrt:output.obj
 0002:00014178       $unwind$__acrt_fp_strflt_to_string 0000000180049178     libucrt:_fptostr.obj
 0002:00014178       $unwind$__vcrt_initialize_locks 0000000180049178     libvcruntime:locks.obj
 0002:00014178       $unwind$??_GFCEffectBrightnessContrast@@UEAAPEAXI@Z 0000000180049178     dealImg.obj
 0002:00014178       $unwind$??0logic_error@std@@QEAA@AEBV01@@Z 0000000180049178     libcpmt:xthrow.obj
 0002:00014178       $unwind$??1FCEffectBlur_Motion@@UEAA@XZ 0000000180049178     dealImg.obj
 0002:00014178       $unwind$?Ref@ObjectWrap@node@@MEAAXXZ 0000000180049178     dealImg.obj
 0002:00014178       $unwind$??_GFCEffectGamma@@UEAAPEAXI@Z 0000000180049178     dealImg.obj
 0002:00014178       $unwind$__acrt_uninitialize_stdio 0000000180049178     libucrt:_file.obj
 0002:00014178       $unwind$??_GFCEffectInvert@@UEAAPEAXI@Z 0000000180049178     dealImg.obj
 0002:00014178       $unwind$_Init_thread_footer 0000000180049178     LIBCMT:thread_safe_statics.obj
 0002:00014178       $unwind$??1set@dealImg@@EEAA@XZ 0000000180049178     dealImg.obj
 0002:00014178       $unwind$strcpy_s           0000000180049178     libucrt:strcpy_s.obj
 0002:00014178       $unwind$??_GFCEffectColorTone@@UEAAPEAXI@Z 0000000180049178     dealImg.obj
 0002:00014178       $unwind$??_GFCEffectColorBalance@@UEAAPEAXI@Z 0000000180049178     dealImg.obj
 0002:00014178       $unwind$__scrt_release_startup_lock 0000000180049178     LIBCMT:utility.obj
 0002:00014178       $unwind$_Init_thread_notify 0000000180049178     LIBCMT:thread_safe_statics.obj
 0002:00014178       $unwind$??_GFCImageCodecFactory_Gdiplus@@UEAAPEAXI@Z 0000000180049178     dealImg.obj
 0002:00014178       $unwind$_setfpstatusword   0000000180049178     libucrt:_fenvutils.obj
 0002:00014178       $unwind$??__Efout@std@@YAXXZ 0000000180049178     libcpmt:cout.obj
 0002:00014178       $unwind$?Unref@ObjectWrap@node@@MEAAXXZ 0000000180049178     dealImg.obj
 0002:00014178       $unwind$initialize_pointers 0000000180049178     libucrt:initialization.obj
 0002:00014178       $unwind$?__GetUnwindTryBlock@@YAHPEA_KPEAU_xDISPATCHER_CONTEXT@@PEBU_s_FuncInfo@@@Z 0000000180049178     libvcruntime:ehstate.obj
 0002:00014178       $unwind$_calloc_base       0000000180049178     libucrt:calloc_base.obj
 0002:00014178       $unwind$_set_statfp        0000000180049178     libucrt:fpctrl.obj
 0002:00014178       $unwind$??_GFCEffectAutoContrast@@UEAAPEAXI@Z 0000000180049178     dealImg.obj
 0002:00014178       $unwind$??0bad_alloc@std@@QEAA@AEBV01@@Z 0000000180049178     libcpmt:xthrow.obj
 0002:00014178       $unwind$__acrt_allocate_buffer_for_argv 0000000180049178     libucrt:argv_parsing.obj
 0002:00014178       $unwind$__acrt_uninitialize_locks 0000000180049178     libucrt:locks.obj
 0002:00014178       $unwind$?_Setgloballocale@locale@std@@CAXPEAX@Z 0000000180049178     libcpmt:locale0.obj
 0002:00014178       $unwind$__scrt_uninitialize_crt 0000000180049178     LIBCMT:utility.obj
 0002:00014178       $unwind$?initialize_pointers@@YAHXZ 0000000180049178     libcpmt:winapisupp.obj
 0002:00014178       $unwind$??_GFCEffectAutoColorEnhance@@UEAAPEAXI@Z 0000000180049178     dealImg.obj
 0002:00014178       $unwind$__acrt_uninitialize_winapi_thunks 0000000180049178     libucrt:winapi_thunks.obj
 0002:00014178       $unwind$?_Tidy@?$vector@V?$basic_string@DU?$char_traits@D@std@@V?$allocator@D@2@@std@@V?$allocator@V?$basic_string@DU?$char_traits@D@std@@V?$allocator@D@2@@std@@@2@@std@@IEAAXXZ 0000000180049178     dealImg.obj
 0002:00014178       $unwind$??0exception@std@@QEAA@AEBV01@@Z 0000000180049178     libcpmt:cout.obj
 0002:00014178       $unwind$??_GFCEffectNoisify@@UEAAPEAXI@Z 0000000180049178     dealImg.obj
 0002:00014178       $unwind$??0?$output_processor@_WV?$string_output_adapter@_W@__crt_stdio_output@@V?$standard_base@_WV?$string_output_adapter@_W@__crt_stdio_output@@@2@@__crt_stdio_output@@QEAA@AEBV?$string_output_adapter@_W@1@_KQEB_WQEAU__crt_locale_pointers@@QEAD@Z 0000000180049178     libucrt:output.obj
 0002:00014178       $unwind$_SetImageBase      0000000180049178     libvcruntime:trnsctrl.obj
 0002:00014178       $unwind$??_GFCEffect3DGrid@@UEAAPEAXI@Z 0000000180049178     dealImg.obj
 0002:00014178       $unwind$??_GFCEffectBlinds@@UEAAPEAXI@Z 0000000180049178     dealImg.obj
 0002:00014178       $unwind$uninitialize_allocated_memory 0000000180049178     libucrt:initialization.obj
 0002:00014178       $unwind$_onexit            0000000180049178     LIBCMT:utility.obj
 0002:00014178       $unwind$_Getctype          0000000180049178     libcpmt:_tolower.obj
 0002:00014178       $unwind$?shift_amount@FCEffectRipple@@AEBANH@Z 0000000180049178     dealImg.obj
 0002:00014178       $unwind$wcscat_s           0000000180049178     libucrt:wcscat_s.obj
 0002:00014178       $unwind$??1?$basic_string@DU?$char_traits@D@std@@V?$allocator@D@2@@std@@QEAA@XZ 0000000180049178     dealImg.obj
 0002:00014178       $unwind$??_GFCObjGraph@@UEAAPEAXI@Z 0000000180049178     dealImg.obj
 0002:00014178       $unwind$?Destroy@FCObjImage@@QEAAXXZ 0000000180049178     dealImg.obj
 0002:00014178       $unwind$__acrt_stdio_allocate_buffer_nolock 0000000180049178     libucrt:_getbuf.obj
 0002:00014178       $unwind$??0?$output_processor@_WV?$stream_output_adapter@_W@__crt_stdio_output@@V?$standard_base@_WV?$stream_output_adapter@_W@__crt_stdio_output@@@2@@__crt_stdio_output@@QEAA@AEBV?$stream_output_adapter@_W@1@_KQEB_WQEAU__crt_locale_pointers@@QEAD@Z 0000000180049178     libucrt:output.obj
 0002:00014178       $unwind$??_GFCImageEffect@@UEAAPEAXI@Z 0000000180049178     dealImg.obj
 0002:00014178       $unwind$__vcrt_uninitialize 0000000180049178     libvcruntime:initialization.obj
 0002:00014178       $unwind$??0_Lockit@std@@QEAA@H@Z 0000000180049178     libcpmt:xlock.obj
 0002:00014178       $unwind$??1FCEffectBilinearDistort@@UEAA@XZ 0000000180049178     dealImg.obj
 0002:00014178       $unwind$__acrt_initialize_locks 0000000180049178     libucrt:locks.obj
 0002:00014178       $unwind$_fflush_nolock     0000000180049178     libucrt:fflush.obj
 0002:00014178       $unwind$??0bad_cast@std@@QEAA@AEBV01@@Z 0000000180049178     libcpmt:cout.obj
 0002:00014178       $unwind$??_GFCImageCodecFactory@@UEAAPEAXI@Z 0000000180049178     dealImg.obj
 0002:00014178       $unwind$??1Text@set@dealImg@@QEAA@XZ 0000000180049178     dealImg.obj
 0002:00014178       $unwind$_clrfp             0000000180049178     libucrt:fpctrl.obj
 0002:00014178       $unwind$?type_case_integer@?$output_processor@_WV?$stream_output_adapter@_W@__crt_stdio_output@@V?$standard_base@_WV?$stream_output_adapter@_W@__crt_stdio_output@@@2@@__crt_stdio_output@@AEAA_NI_N@Z 0000000180049178     libucrt:output.obj
 0002:00014178       $unwind$??1CAtlBaseModule@ATL@@QEAA@XZ 0000000180049178     atls:atlbase.obj
 0002:00014178       $unwind$?Clone@Image@Gdiplus@@UEAAPEAV12@XZ 0000000180049178     dealImg.obj
 0002:00014178       $unwind$_purecall          0000000180049178     libvcruntime:purevirt.obj
 0002:00014178       $unwind$??_GFCImageCodec@@UEAAPEAXI@Z 0000000180049178     dealImg.obj
 0002:00014178       $unwind$wcscpy_s           0000000180049178     libucrt:wcscpy_s.obj
 0002:00014180       $unwind$__scrt_dllmain_crt_thread_attach 0000000180049180     LIBCMT:utility.obj
 0002:00014180       $unwind$__scrt_dllmain_after_initialize_c 0000000180049180     LIBCMT:utility.obj
 0002:00014180       $unwind$?deallocate@?$_Wrap_alloc@V?$allocator@_W@std@@@std@@QEAAXPEA_W_K@Z 0000000180049180     dealImg.obj
 0002:00014180       $unwind$__acrt_DownlevelLocaleNameToLCID 0000000180049180     libucrt:lcidtoname_downlevel.obj
 0002:00014180       $unwind$atexit             0000000180049180     LIBCMT:utility.obj
 0002:00014180       $unwind$_statfp            0000000180049180     libucrt:fpctrl.obj
 0002:00014180       $unwind$_set_error_mode    0000000180049180     libucrt:set_error_mode.obj
 0002:00014180       $unwind$?_Unlock@?$basic_filebuf@DU?$char_traits@D@std@@@std@@UEAAXXZ 0000000180049180     libcpmt:cout.obj
 0002:00014180       $unwind$_copytlocinfo_nolock 0000000180049180     libucrt:wsetlocale.obj
 0002:00014180       $unwind$?_Lock@?$basic_filebuf@DU?$char_traits@D@std@@@std@@UEAAXXZ 0000000180049180     libcpmt:cout.obj
 0002:00014180       $unwind$?state_case_size@?$output_processor@_WV?$stream_output_adapter@_W@__crt_stdio_output@@V?$standard_base@_WV?$stream_output_adapter@_W@__crt_stdio_output@@@2@@__crt_stdio_output@@AEAA_NXZ 0000000180049180     libucrt:output.obj
 0002:00014180       $unwind$__GSHandlerCheck   0000000180049180     LIBCMT:_gshandler_.obj
 0002:00014180       $unwind$__acrt_initialize_command_line 0000000180049180     libucrt:argv_data.obj
 0002:00014180       $unwind$_set_errno_from_matherr 0000000180049180     libucrt:fpexcept.obj
 0002:00014180       $unwind$_msize             0000000180049180     libucrt:msize.obj
 0002:00014180       $unwind$__doserrno         0000000180049180     libucrt:errno.obj
 0002:00014180       $unwind$??1_Lockit@std@@QEAA@XZ 0000000180049180     libcpmt:xlock.obj
 0002:00014180       $unwind$tidy_global        0000000180049180     libcpmt:locale0.obj
 0002:00014180       $unwind$__acrt_initialize_heap 0000000180049180     libucrt:heap_handle.obj
 0002:00014180       $unwind$__FrameUnwindFilter 0000000180049180     libvcruntime:frame.obj
 0002:00014180       $unwind$__acrt_initialize_ptd 0000000180049180     libucrt:per_thread_data.obj
 0002:00014180       $unwind$?_Reserve@?$vector@HV?$allocator@H@std@@@std@@IEAAX_K@Z 0000000180049180     dealImg.obj
 0002:00014180       $unwind$??__Einitlocks@std@@YAXXZ 0000000180049180     libcpmt:xlock.obj
 0002:00014180       $unwind$__vcrt_uninitialize_telemetry_provider 0000000180049180     libvcruntime:telemetry.obj
 0002:00014180       $unwind$?deallocate@?$_Wrap_alloc@V?$allocator@H@std@@@std@@QEAAXPEAH_K@Z 0000000180049180     dealImg.obj
 0002:00014180       $unwind$?_Reserve@?$vector@V?$basic_string@DU?$char_traits@D@std@@V?$allocator@D@2@@std@@V?$allocator@V?$basic_string@DU?$char_traits@D@std@@V?$allocator@D@2@@std@@@2@@std@@IEAAX_K@Z 0000000180049180     dealImg.obj
 0002:00014180       $unwind$__acrt_release_locale_ref 0000000180049180     libucrt:locale_refcounting.obj
 0002:00014180       $unwind$?_Reserve@?$vector@PEAVFCObjImage@@V?$allocator@PEAVFCObjImage@@@std@@@std@@IEAAX_K@Z 0000000180049180     dealImg.obj
 0002:00014180       $unwind$__vcrt_initialize  0000000180049180     libvcruntime:initialization.obj
 0002:00014180       $unwind$__vcrt_freefls     0000000180049180     libvcruntime:per_thread_data.obj
 0002:00014180       $unwind$abort              0000000180049180     libucrt:abort.obj
 0002:00014180       $unwind$__vcrt_uninitialize_critical 0000000180049180     libvcruntime:initialization.obj
 0002:00014180       $unwind$?state_case_size@?$output_processor@_WV?$string_output_adapter@_W@__crt_stdio_output@@V?$standard_base@_WV?$string_output_adapter@_W@__crt_stdio_output@@@2@@__crt_stdio_output@@AEAA_NXZ 0000000180049180     libucrt:output.obj
 0002:00014180       $unwind$?allocate@?$allocator@PEAVFCImageEffect@@@std@@QEAAPEAPEAVFCImageEffect@@_K@Z 0000000180049180     dealImg.obj
 0002:00014180       $unwind$??__Einitlocks@@YAXXZ 0000000180049180     libcpmt:cout.obj
 0002:00014180       $unwind$?__GetCurrentState@@YAHPEA_KPEAU_xDISPATCHER_CONTEXT@@PEBU_s_FuncInfo@@@Z 0000000180049180     libvcruntime:ehstate.obj
 0002:00014180       $unwind$?_Reserve@?$vector@NV?$allocator@N@std@@@std@@IEAAX_K@Z 0000000180049180     dealImg.obj
 0002:00014180       $unwind$_isatty            0000000180049180     libucrt:isatty.obj
 0002:00014180       $unwind$__vcrt_thread_attach 0000000180049180     libvcruntime:initialization.obj
 0002:00014180       $unwind$?allocate@?$allocator@_W@std@@QEAAPEA_W_K@Z 0000000180049180     dealImg.obj
 0002:00014180       $unwind$_getfpstatusword   0000000180049180     libucrt:_fenvutils.obj
 0002:00014180       $unwind$__scrt_acquire_startup_lock 0000000180049180     LIBCMT:utility.obj
 0002:00014180       $unwind$_getfpcontrolword  0000000180049180     libucrt:_fenvutils.obj
 0002:00014180       $unwind$?_Reserve@?$vector@PEAVFCImageEffect@@V?$allocator@PEAVFCImageEffect@@@std@@@std@@IEAAX_K@Z 0000000180049180     dealImg.obj
 0002:00014180       $unwind$__vcrt_thread_detach 0000000180049180     libvcruntime:initialization.obj
 0002:00014180       $unwind$_GetThrowImageBase 0000000180049180     libvcruntime:trnsctrl.obj
 0002:00014180       $unwind$??$_Immortalize@V_Iostream_error_category@std@@@std@@YAAEAV_Iostream_error_category@0@XZ 0000000180049180     dealImg.obj
 0002:00014180       $unwind$?g_codec_factory@FCObjImage@@CAAEAV?$auto_ptr@VFCImageCodecFactory@@@std@@XZ 0000000180049180     dealImg.obj
 0002:00014180       $unwind$__dcrt_terminate_console_output 0000000180049180     libucrt:initcon.obj
 0002:00014180       $unwind$?ProcessPixel@FCEffectColorTone@@EEAAXAEAVFCObjImage@@HHPEAE@Z 0000000180049180     dealImg.obj
 0002:00014180       $unwind$_get_stream_buffer_pointers 0000000180049180     libucrt:_file.obj
 0002:00014180       $unwind$__vcrt_getptd      0000000180049180     libvcruntime:per_thread_data.obj
 0002:00014180       $unwind$__scrt_dllmain_before_initialize_c 0000000180049180     LIBCMT:utility.obj
 0002:00014180       $unwind$??__E_AtlBaseModule@ATL@@YAXXZ 0000000180049180     atls:atlbase.obj
 0002:00014180       $unwind$?allocate@?$_Wrap_alloc@V?$allocator@D@std@@@std@@QEAAPEAD_K@Z 0000000180049180     dealImg.obj
 0002:00014180       $unwind$_fileno            0000000180049180     libucrt:fileno.obj
 0002:00014180       $unwind$_GetImageBase      0000000180049180     libvcruntime:trnsctrl.obj
 0002:00014180       $unwind$__acrt_initialize_multibyte 0000000180049180     libucrt:mbctype.obj
 0002:00014180       $unwind$?_Locinfo_dtor@_Locinfo@std@@SAXPEAV12@@Z 0000000180049180     libcpmt:locale0.obj
 0002:00014180       $unwind$_wcsicmp           0000000180049180     libucrt:wcsicmp.obj
 0002:00014180       $unwind$?SaveImageFile@FCImageCodec@@UEAA_NPEB_WAEBV?$vector@PEBVFCObjImage@@V?$allocator@PEBVFCObjImage@@@std@@@std@@AEBVFCImageProperty@@@Z 0000000180049180     dealImg.obj
 0002:00014180       $unwind$?allocate@?$allocator@H@std@@QEAAPEAH_K@Z 0000000180049180     dealImg.obj
 0002:00014180       $unwind$?LoadImageMemory@FCImageCodec@@UEAA_NPEBXHAEAV?$vector@PEAVFCObjImage@@V?$allocator@PEAVFCObjImage@@@std@@@std@@AEAVFCImageProperty@@@Z 0000000180049180     dealImg.obj
 0002:00014180       $unwind$?LoadImageFile@FCImageCodec@@UEAA_NPEB_WAEAV?$vector@PEAVFCObjImage@@V?$allocator@PEAVFCObjImage@@@std@@@std@@AEAVFCImageProperty@@@Z 0000000180049180     dealImg.obj
 0002:00014180       $unwind$__dcrt_uninitialize_environments_nolock 0000000180049180     libucrt:environment_initialization.obj
 0002:00014180       $unwind$rand               0000000180049180     libucrt:rand.obj
 0002:00014180       $unwind$?allocate@?$allocator@V?$basic_string@DU?$char_traits@D@std@@V?$allocator@D@2@@std@@@std@@QEAAPEAV?$basic_string@DU?$char_traits@D@std@@V?$allocator@D@2@@2@_K@Z 0000000180049180     dealImg.obj
 0002:00014180       $unwind$?_Deallocate@std@@YAXPEAX_K1@Z 0000000180049180     dealImg.obj
 0002:00014180       $unwind$?CreateImageCodec@FCImageCodecFactory_Gdiplus@@EEAAPEAVFCImageCodec@@W4IMAGE_TYPE@@@Z 0000000180049180     dealImg.obj
 0002:00014180       $unwind$??__F_Fac_tidy_reg@std@@YAXXZ 0000000180049180     libcpmt:locale0.obj
 0002:00014180       $unwind$??$uninitialize_environment_internal@D@@YAXAEAPEAPEAD@Z 0000000180049180     libucrt:environment_initialization.obj
 0002:00014180       $unwind$?dllmain_crt_dispatch@@YAHQEAUHINSTANCE__@@KQEAX@Z 0000000180049180     LIBCMT:dll_dllmain.obj
 0002:00014180       $unwind$___lc_codepage_func 0000000180049180     libucrt:initctype.obj
 0002:00014180       $unwind$??$uninitialize_environment_internal@_W@@YAXAEAPEAPEA_W@Z 0000000180049180     libucrt:environment_initialization.obj
 0002:00014180       $unwind$?__scrt_uninitialize_thread_safe_statics@@YAXXZ 0000000180049180     LIBCMT:thread_safe_statics.obj
 0002:00014180       $unwind$fsetpos            0000000180049180     libucrt:fsetpos.obj
 0002:00014180       $unwind$_stricmp           0000000180049180     libucrt:stricmp.obj
 0002:00014180       $unwind$___lc_locale_name_func 0000000180049180     libucrt:initctype.obj
 0002:00014180       $unwind$?deallocate@?$_Wrap_alloc@V?$allocator@UtagRGBQUAD@@@std@@@std@@QEAAXPEAUtagRGBQUAD@@_K@Z 0000000180049180     dealImg.obj
 0002:00014180       $unwind$__vcrt_uninitialize_ptd 0000000180049180     libvcruntime:per_thread_data.obj
 0002:00014180       $unwind$__acrt_uninitialize_ptd 0000000180049180     libucrt:per_thread_data.obj
 0002:00014180       $unwind$?deallocate@?$_Wrap_alloc@V?$allocator@PEAVFCObjImage@@@std@@@std@@QEAAXPEAPEAVFCObjImage@@_K@Z 0000000180049180     dealImg.obj
 0002:00014180       $unwind$_wcsnicmp          0000000180049180     libucrt:wcsnicmp.obj
 0002:00014180       $unwind$?initialize_multibyte@@YAHXZ 0000000180049180     libucrt:multibyte_initializer.obj
 0002:00014180       $unwind$?_Atexit@@YAXP6AXXZ@Z 0000000180049180     libcpmt:iosptrs.obj
 0002:00014180       $unwind$?allocate@?$allocator@PEAVFCObjImage@@@std@@QEAAPEAPEAVFCObjImage@@_K@Z 0000000180049180     dealImg.obj
 0002:00014180       $unwind$__crtDownlevelLocaleNameToLCID 0000000180049180     libcpmt:winapinls.obj
 0002:00014180       $unwind$__scrt_dllmain_crt_thread_detach 0000000180049180     LIBCMT:utility.obj
 0002:00014180       $unwind$?allocate@?$allocator@PEBVFCObjImage@@@std@@QEAAPEAPEBVFCObjImage@@_K@Z 0000000180049180     dealImg.obj
 0002:00014180       $unwind$_fgetc_nolock      0000000180049180     libucrt:fgetc.obj
 0002:00014180       $unwind$__scrt_dllmain_uninitialize_critical 0000000180049180     LIBCMT:utility.obj
 0002:00014180       $unwind$_invoke_watson     0000000180049180     libucrt:invalid_parameter.obj
 0002:00014180       $unwind$?deallocate@?$_Wrap_alloc@V?$allocator@PEBVFCObjImage@@@std@@@std@@QEAAXPEAPEBVFCObjImage@@_K@Z 0000000180049180     dealImg.obj
 0002:00014180       $unwind$__scrt_dllmain_uninitialize_c 0000000180049180     LIBCMT:utility.obj
 0002:00014180       $unwind$_get_osfhandle     0000000180049180     libucrt:osfinfo.obj
 0002:00014180       $unwind$?allocate@?$allocator@UtagRGBQUAD@@@std@@QEAAPEAUtagRGBQUAD@@_K@Z 0000000180049180     dealImg.obj
 0002:00014180       $unwind$??__Ecout@std@@YAXXZ 0000000180049180     libcpmt:cout.obj
 0002:00014180       $unwind$?deallocate@?$_Wrap_alloc@V?$allocator@PEAVFCImageEffect@@@std@@@std@@QEAAXPEAPEAVFCImageEffect@@_K@Z 0000000180049180     dealImg.obj
 0002:00014180       $unwind$_errno             0000000180049180     libucrt:errno.obj
 0002:00014180       $unwind$?deallocate@?$_Wrap_alloc@V?$allocator@N@std@@@std@@QEAAXPEAN_K@Z 0000000180049180     dealImg.obj
 0002:00014180       $unwind$__acrt_can_use_vista_locale_apis 0000000180049180     libucrt:winapi_thunks.obj
 0002:00014180       $unwind$__vcrt_initialize_ptd 0000000180049180     libvcruntime:per_thread_data.obj
 0002:00014180       $unwind$__acrt_uninitialize_critical 0000000180049180     libucrt:initialization.obj
 0002:00014180       $unwind$__pctype_func      0000000180049180     libucrt:ctype.obj
 0002:00014180       $unwind$??__Einitlocks@std@@YAXXZ 0000000180049180     libcpmt:iosptrs.obj
 0002:00014180       $unwind$__acrt_thread_attach 0000000180049180     libucrt:initialization.obj
 0002:00014180       $unwind$__report_rangecheckfailure 0000000180049180     LIBCMT:gs_report.obj
 0002:00014180       $unwind$tolower            0000000180049180     libucrt:tolower_toupper.obj
 0002:00014180       $unwind$__acrt_thread_detach 0000000180049180     libucrt:initialization.obj
 0002:00014180       $unwind$?allocate@?$allocator@N@std@@QEAAPEAN_K@Z 0000000180049180     dealImg.obj
 0002:00014180       $unwind$initialize_c       0000000180049180     libucrt:initialization.obj
 0002:00014180       $unwind$uninitialize_environment 0000000180049180     libucrt:initialization.obj
 0002:00014180       $unwind$__scrt_initialize_default_local_stdio_options 0000000180049180     LIBCMT:default_local_stdio_options.obj
 0002:00014180       $unwind$?allocate@?$allocator@U_GUID@@@std@@QEAAPEAU_GUID@@_K@Z 0000000180049180     dealImg.obj
 0002:00014180       $unwind$__std_terminate    0000000180049180     libvcruntime:frame.obj
 0002:00014188       $unwind$?x_ismbbtype_l@@YAHPEAU__crt_locale_pointers@@IHH@Z 0000000180049188     libucrt:ismbbyte.obj
 0002:00014188       $unwind$??0_Locinfo@std@@QEAA@PEBD@Z 0000000180049188     dealImg.obj
 0002:00014188       $unwind$_stricmp_l         0000000180049188     libucrt:stricmp.obj
 0002:00014188       $unwind$?WeakCallback@ObjectWrap@node@@CAXAEBV?$WeakCallbackData@VObject@v8@@VObjectWrap@node@@@v8@@@Z 0000000180049188     dealImg.obj
 0002:00014198       $unwind$?OnBeforeProcess@FCEffectBlur_Radial@@EEAAXAEAVFCObjImage@@@Z 0000000180049198     dealImg.obj
 0002:00014198       $unwind$??_Gbad_array_new_length@std@@UEAAPEAXI@Z 0000000180049198     LIBCMT:throw_bad_alloc.obj
 0002:00014198       $unwind$??_GObjectWrap@node@@UEAAPEAXI@Z 0000000180049198     dealImg.obj
 0002:00014198       $unwind$??_GImage@Gdiplus@@UEAAPEAXI@Z 0000000180049198     dealImg.obj
 0002:00014198       $unwind$??_GFCEffectBlur_Zoom@@UEAAPEAXI@Z 0000000180049198     dealImg.obj
 0002:00014198       $unwind$_FindAndUnlinkFrame 0000000180049198     libvcruntime:trnsctrl.obj
 0002:00014198       $unwind$__vcrt_FlsGetValue 0000000180049198     libvcruntime:winapi_downlevel.obj
 0002:00014198       $unwind$??_GBitmap@Gdiplus@@UEAAPEAXI@Z 0000000180049198     dealImg.obj
 0002:00014198       $unwind$__acrt_FlsAlloc    0000000180049198     libucrt:winapi_thunks.obj
 0002:00014198       $unwind$?OnBeforeProcess@FCEffectBlur_Zoom@@EEAAXAEAVFCObjImage@@@Z 0000000180049198     dealImg.obj
 0002:00014198       $unwind$??_G?$ctype@D@std@@MEAAPEAXI@Z 0000000180049198     dealImg.obj
 0002:00014198       $unwind$?LoadImageMemory@FCImageCodec_Gdiplus@@EEAA_NPEBXHAEAV?$vector@PEAVFCObjImage@@V?$allocator@PEAVFCObjImage@@@std@@@std@@AEAVFCImageProperty@@@Z 0000000180049198     dealImg.obj
 0002:00014198       $unwind$__acrt_get_parent_window 0000000180049198     libucrt:winapi_thunks.obj
 0002:00014198       $unwind$??_GFCAutoInitGDIPlus@@UEAAPEAXI@Z 0000000180049198     dealImg.obj
 0002:00014198       $unwind$?__SetUnwindTryBlock@@YAXPEA_KPEAU_xDISPATCHER_CONTEXT@@PEBU_s_FuncInfo@@H@Z 0000000180049198     libvcruntime:ehstate.obj
 0002:00014198       $unwind$__acrt_FlsFree     0000000180049198     libucrt:winapi_thunks.obj
 0002:00014198       $unwind$?erase@?$basic_string@DU?$char_traits@D@std@@V?$allocator@D@2@@std@@QEAAAEAV12@_K0@Z 0000000180049198     dealImg.obj
 0002:00014198       $unwind$??_GFCEffectOldPhoto@@UEAAPEAXI@Z 0000000180049198     dealImg.obj
 0002:00014198       $unwind$__vcrt_FlsFree     0000000180049198     libvcruntime:winapi_downlevel.obj
 0002:00014198       $unwind$__vcrt_FlsAlloc    0000000180049198     libvcruntime:winapi_downlevel.obj
 0002:00014198       $unwind$__acrt_errno_map_os_error 0000000180049198     libucrt:errno.obj
 0002:00014198       $unwind$?ProcessPixel@FCEffectColorLevel@@EEAAXAEAVFCObjImage@@HHPEAE@Z 0000000180049198     dealImg.obj
 0002:00014198       $unwind$?try_cor_exit_process@@YAXI@Z 0000000180049198     libucrt:exit.obj
 0002:00014198       $unwind$??_G?$basic_filebuf@DU?$char_traits@D@std@@@std@@UEAAPEAXI@Z 0000000180049198     libcpmt:cout.obj
 0002:00014198       $unwind$__acrt_getptd      0000000180049198     libucrt:per_thread_data.obj
 0002:00014198       $unwind$??_GFCEffectOilPaint@@UEAAPEAXI@Z 0000000180049198     dealImg.obj
 0002:00014198       $unwind$GetLocaleNameFromLangCountry 0000000180049198     libucrt:get_qualified_locale.obj
 0002:00014198       $unwind$??_Glength_error@std@@UEAAPEAXI@Z 0000000180049198     libcpmt:xthrow.obj
 0002:00014198       $unwind$??_GFCEffectBlur_Gauss@@UEAAPEAXI@Z 0000000180049198     dealImg.obj
 0002:00014198       $unwind$wcsncpy_s          0000000180049198     libucrt:wcsncpy_s.obj
 0002:00014198       $unwind$__vcrt_EventUnregister 0000000180049198     libvcruntime:winapi_downlevel.obj
 0002:00014198       $unwind$_realloc_base      0000000180049198     libucrt:realloc_base.obj
 0002:00014198       $unwind$??1_Locinfo@std@@QEAA@XZ 0000000180049198     dealImg.obj
 0002:00014198       $unwind$??_GFCEffectPencilSketch@@UEAAPEAXI@Z 0000000180049198     dealImg.obj
 0002:00014198       $unwind$?DloadAcquireSectionWriteAccess@@YAXXZ 0000000180049198     DelayImp:delayhlp.obj
 0002:00014198       $unwind$??_Gout_of_range@std@@UEAAPEAXI@Z 0000000180049198     libcpmt:xthrow.obj
 0002:00014198       $unwind$?<helper_func_cdecl>@<lambda_e2bb8337c48846e80c921ea5ddadc92d>@@CAHPEA_W@Z 0000000180049198     libucrt:winapi_thunks.obj
 0002:00014198       $unwind$__acrt_FlsGetValue 0000000180049198     libucrt:winapi_thunks.obj
 0002:00014198       $unwind$__acrt_invoke_user_matherr 0000000180049198     libucrt:matherr.obj
 0002:00014198       $unwind$??$common_initialize_environment_nolock@D@@YAHXZ 0000000180049198     libucrt:environment_initialization.obj
 0002:00014198       $unwind$??0_LocaleUpdate@@QEAA@QEAU__crt_locale_pointers@@@Z 0000000180049198     libucrt:tolower_toupper.obj
 0002:00014198       $unwind$?internal_isupper_l@@YA_NHQEAU__crt_locale_pointers@@@Z 0000000180049198     libucrt:tolower_toupper.obj
 0002:00014198       $unwind$wcsncat_s          0000000180049198     libucrt:wcsncat_s.obj
 0002:00014198       $unwind$??0CAtlBaseModule@ATL@@QEAA@XZ 0000000180049198     atls:atlbase.obj
 0002:00014198       $unwind$_updatetlocinfoEx_nolock 0000000180049198     libucrt:locale_refcounting.obj
 0002:00014198       $unwind$??_Gexception@std@@UEAAPEAXI@Z 0000000180049198     libcpmt:cout.obj
 0002:00014198       $unwind$??_GFCImageProperty@@UEAAPEAXI@Z 0000000180049198     dealImg.obj
 0002:00014198       $unwind$?_Locinfo_ctor@_Locinfo@std@@SAXPEAV12@PEBD@Z 0000000180049198     libcpmt:locale0.obj
 0002:00014198       $unwind$?DloadGetSRWLockFunctionPointers@@YAEXZ 0000000180049198     DelayImp:delayhlp.obj
 0002:00014198       $unwind$??_Gbad_cast@std@@UEAAPEAXI@Z 0000000180049198     libcpmt:cout.obj
 0002:00014198       $unwind$??_GFCEffectMosaic@@UEAAPEAXI@Z 0000000180049198     dealImg.obj
 0002:00014198       $unwind$fgetpos            0000000180049198     libucrt:fgetpos.obj
 0002:00014198       $unwind$?replace_current_thread_locale_nolock@@YAXQEAU__acrt_ptd@@QEAU__crt_locale_data@@@Z 0000000180049198     libucrt:per_thread_data.obj
 0002:00014198       $unwind$??_GFCEffectGetHistogram@@UEAAPEAXI@Z 0000000180049198     dealImg.obj
 0002:00014198       $unwind$??_GFCEffectBlur_Motion@@UEAAPEAXI@Z 0000000180049198     dealImg.obj
 0002:00014198       $unwind$??_Glogic_error@std@@UEAAPEAXI@Z 0000000180049198     libcpmt:xthrow.obj
 0002:00014198       $unwind$?_New_Locimp@_Locimp@locale@std@@CAPEAV123@_N@Z 0000000180049198     libcpmt:locale0.obj
 0002:00014198       $unwind$??_GFCImageCodec_Gdiplus@@UEAAPEAXI@Z 0000000180049198     dealImg.obj
 0002:00014198       $unwind$GetLocaleNameFromLanguage 0000000180049198     libucrt:get_qualified_locale.obj
 0002:00014198       $unwind$strncpy_s          0000000180049198     libucrt:strncpy_s.obj
 0002:00014198       $unwind$??_GFCObjImage@@UEAAPEAXI@Z 0000000180049198     dealImg.obj
 0002:00014198       $unwind$?resize@?$vector@UtagRGBQUAD@@V?$allocator@UtagRGBQUAD@@@std@@@std@@QEAAX_K@Z 0000000180049198     dealImg.obj
 0002:00014198       $unwind$GetLcidFromLanguage 0000000180049198     libucrt:getqloc_downlevel.obj
 0002:00014198       $unwind$??1FCEffectGetHistogram@@UEAA@XZ 0000000180049198     dealImg.obj
 0002:00014198       $unwind$_fclose_nolock     0000000180049198     libucrt:fclose.obj
 0002:00014198       $unwind$_ungetc_nolock     0000000180049198     libucrt:ungetc.obj
 0002:00014198       $unwind$??_Gbad_alloc@std@@UEAAPEAXI@Z 0000000180049198     libcpmt:xthrow.obj
 0002:00014198       $unwind$__acrt_locale_initialize_time 0000000180049198     libucrt:inittime.obj
 0002:00014198       $unwind$?GenGauss@FCEffectNoisify@@AEAAHXZ 0000000180049198     dealImg.obj
 0002:00014198       $unwind$_Deletegloballocale 0000000180049198     libcpmt:locale0.obj
 0002:00014198       $unwind$__acrt_stdio_begin_temporary_buffering_nolock 0000000180049198     libucrt:_sftbuf.obj
 0002:00014198       $unwind$??_GFCEffectRipple@@UEAAPEAXI@Z 0000000180049198     dealImg.obj
 0002:00014198       $unwind$GetLcidFromLangCountry 0000000180049198     libucrt:getqloc_downlevel.obj
 0002:00014198       $unwind$__acrt_uninitialize_lowio 0000000180049198     libucrt:ioinit.obj
 0002:00014198       $unwind$?uflow@?$basic_streambuf@DU?$char_traits@D@std@@@std@@MEAAHXZ 0000000180049198     libcpmt:cout.obj
 0002:00014198       $unwind$?ExFilterRethrow@@YAHPEAU_EXCEPTION_POINTERS@@PEAUEHExceptionRecord@@PEAH@Z 0000000180049198     libvcruntime:frame.obj
 0002:00014198       $unwind$?pbackfail@?$basic_filebuf@DU?$char_traits@D@std@@@std@@MEAAHH@Z 0000000180049198     libcpmt:cout.obj
 0002:00014198       $unwind$?force_decimal_point@__crt_stdio_output@@YAXPEADQEAU__crt_locale_pointers@@@Z 0000000180049198     libucrt:output.obj
 0002:00014198       $unwind$??_Gset@dealImg@@EEAAPEAXI@Z 0000000180049198     dealImg.obj
 0002:00014198       $unwind$??1_Init_locks@std@@QEAA@XZ 0000000180049198     libcpmt:xlock.obj
 0002:00014198       $unwind$??_G?$basic_streambuf@DU?$char_traits@D@std@@@std@@UEAAPEAXI@Z 0000000180049198     libcpmt:cout.obj
 0002:00014198       $unwind$??_GFCEffectRibbon@@UEAAPEAXI@Z 0000000180049198     dealImg.obj
 0002:00014198       $unwind$_callnewh          0000000180049198     libucrt:new_handler.obj
 0002:00014198       $unwind$??_GFCEffectWave@@UEAAPEAXI@Z 0000000180049198     dealImg.obj
 0002:00014198       $unwind$??$common_xtox@K_W@@YAHKQEA_W_KI_N@Z 0000000180049198     libucrt:xtoa.obj
 0002:00014198       $unwind$??_GFCEffectBulge@@UEAAPEAXI@Z 0000000180049198     dealImg.obj
 0002:00014198       $unwind$_close_nolock      0000000180049198     libucrt:close.obj
 0002:00014198       $unwind$??_GFCEffectTwist@@UEAAPEAXI@Z 0000000180049198     dealImg.obj
 0002:00014198       $unwind$?OnBeforeProcess@FCEffectShear@@EEAAXAEAVFCObjImage@@@Z 0000000180049198     dealImg.obj
 0002:00014198       $unwind$??_GFCEffectRotate@@UEAAPEAXI@Z 0000000180049198     dealImg.obj
 0002:00014198       $unwind$__acrt_IsValidLocaleName 0000000180049198     libucrt:winapi_thunks.obj
 0002:00014198       $unwind$??_Gbad_exception@std@@UEAAPEAXI@Z 0000000180049198     libvcruntime:frame.obj
 0002:00014198       $unwind$?erase@?$basic_string@_WU?$char_traits@_W@std@@V?$allocator@_W@2@@std@@QEAAAEAV12@_K0@Z 0000000180049198     dealImg.obj
 0002:00014198       $unwind$??_GFCEffectBlur_Radial@@UEAAPEAXI@Z 0000000180049198     dealImg.obj
 0002:00014198       $unwind$??_GFCEffectShear@@UEAAPEAXI@Z 0000000180049198     dealImg.obj
 0002:000141a4       $unwind$?_Getcat@?$ctype@D@std@@SA_KPEAPEBVfacet@locale@2@PEBV42@@Z 00000001800491a4     dealImg.obj
 0002:000141b4       $chain$0$?_Getcat@?$ctype@D@std@@SA_KPEAPEBVfacet@locale@2@PEBV42@@Z 00000001800491b4     dealImg.obj
 0002:000141c8       $chain$1$?_Getcat@?$ctype@D@std@@SA_KPEAPEBVfacet@locale@2@PEBV42@@Z 00000001800491c8     dealImg.obj
 0002:000141d8       $unwind$TestDefaultLanguage 00000001800491d8     libucrt:getqloc_downlevel.obj
 0002:000141d8       $unwind$?type_case_c_tchar@?$output_processor@_WV?$string_output_adapter@_W@__crt_stdio_output@@V?$standard_base@_WV?$string_output_adapter@_W@__crt_stdio_output@@@2@@__crt_stdio_output@@AEAA_N_W@Z 00000001800491d8     libucrt:output.obj
 0002:000141d8       $unwind$ProcessCodePage    00000001800491d8     libucrt:get_qualified_locale.obj
 0002:000141d8       $unwind$??R<lambda_b721fa326cdb32351d23dfa67958c160>@@QEBAHXZ 00000001800491d8     libucrt:setvbuf.obj
 0002:000141d8       $unwind$?type_case_c_tchar@?$output_processor@_WV?$stream_output_adapter@_W@__crt_stdio_output@@V?$standard_base@_WV?$stream_output_adapter@_W@__crt_stdio_output@@@2@@__crt_stdio_output@@AEAA_N_W@Z 00000001800491d8     libucrt:output.obj
 0002:000141d8       $unwind$ProcessCodePage    00000001800491d8     libucrt:getqloc_downlevel.obj
 0002:000141d8       $unwind$?LoadImg@set@dealImg@@CAXAEBV?$FunctionCallbackInfo@VValue@v8@@@v8@@@Z 00000001800491d8     dealImg.obj
 0002:000141d8       $unwind$?do_tolower@?$ctype@D@std@@MEBAPEBDPEADPEBD@Z 00000001800491d8     dealImg.obj
 0002:000141d8       $unwind$?do_toupper@?$ctype@D@std@@MEBAPEBDPEADPEBD@Z 00000001800491d8     dealImg.obj
 0002:000141d8       $unwind$??$_Uninitialized_move_al_unchecked1@PEAV?$basic_string@DU?$char_traits@D@std@@V?$allocator@D@2@@std@@PEAV12@V?$allocator@V?$basic_string@DU?$char_traits@D@std@@V?$allocator@D@2@@std@@@2@@std@@YAPEAV?$basic_string@DU?$char_traits@D@std@@V?$allocator@D@2@@0@PEAV10@00AEAU?$_Wrap_alloc@V?$allocator@V?$basic_string@DU?$char_traits@D@std@@V?$allocator@D@2@@std@@@std@@@0@U_General_ptr_iterator_tag@0@@Z 00000001800491d8     dealImg.obj
 0002:000141e8       $chain$0$?do_tolower@?$ctype@D@std@@MEBAPEBDPEADPEBD@Z 00000001800491e8     dealImg.obj
 0002:000141fc       $chain$1$?do_tolower@?$ctype@D@std@@MEBAPEBDPEADPEBD@Z 00000001800491fc     dealImg.obj
 0002:0001420c       $chain$0$?do_toupper@?$ctype@D@std@@MEBAPEBDPEADPEBD@Z 000000018004920c     dealImg.obj
 0002:00014220       $chain$1$?do_toupper@?$ctype@D@std@@MEBAPEBDPEADPEBD@Z 0000000180049220     dealImg.obj
 0002:00014230       $unwind$??0out_of_range@std@@QEAA@PEBD@Z 0000000180049230     libcpmt:xthrow.obj
 0002:00014230       $unwind$??0length_error@std@@QEAA@PEBD@Z 0000000180049230     libcpmt:xthrow.obj
 0002:00014230       $unwind$?equivalent@error_category@std@@UEBA_NHAEBVerror_condition@2@@Z 0000000180049230     dealImg.obj
 0002:00014230       $unwind$wcstol             0000000180049230     libucrt:strtox.obj
 0002:00014230       $unwind$??$common_xtox_s@K_W@@YAHKQEA_W_KI_N@Z 0000000180049230     libucrt:xtoa.obj
 0002:00014238       $unwind$??0_System_error@std@@IEAA@Verror_code@1@AEBV?$basic_string@DU?$char_traits@D@std@@V?$allocator@D@2@@1@@Z 0000000180049238     dealImg.obj
 0002:00014254       $unwind$?clear@ios_base@std@@QEAAXH_N@Z 0000000180049254     dealImg.obj
 0002:00014268       $chain$0$?clear@ios_base@std@@QEAAXH_N@Z 0000000180049268     dealImg.obj
 0002:0001427c       $chain$1$?clear@ios_base@std@@QEAAXH_N@Z 000000018004927c     dealImg.obj
 0002:0001428c       $chain$2$?clear@ios_base@std@@QEAAXH_N@Z 000000018004928c     dealImg.obj
 0002:000142a0       $unwind$?NODE_SET_PROTOTYPE_METHOD@node@@YAXV?$Local@VFunctionTemplate@v8@@@v8@@PEBDP6AXAEBV?$FunctionCallbackInfo@VValue@v8@@@3@@Z@Z 00000001800492a0     dealImg.obj
 0002:000142b0       $unwind$?Wrap@ObjectWrap@node@@IEAAXV?$Local@VObject@v8@@@v8@@@Z 00000001800492b0     dealImg.obj
 0002:000142b0       $unwind$??$free_environment@_W@@YAXQEAPEA_W@Z 00000001800492b0     libucrt:environment_initialization.obj
 0002:000142b0       $unwind$??$free_environment@D@@YAXQEAPEAD@Z 00000001800492b0     libucrt:environment_initialization.obj
 0002:000142b0       $unwind$??$construct@V?$basic_string@DU?$char_traits@D@std@@V?$allocator@D@2@@std@@V12@@?$_Wrap_alloc@V?$allocator@V?$basic_string@DU?$char_traits@D@std@@V?$allocator@D@2@@std@@@std@@@std@@QEAAXPEAV?$basic_string@DU?$char_traits@D@std@@V?$allocator@D@2@@1@$$QEAV21@@Z 00000001800492b0     dealImg.obj
 0002:000142bc       $unwind$?DrawBitmap@FCImageDrawDC@@SAXPEAUHDC__@@UtagRECT@@PEAUHBITMAP__@@PEAU3@@Z 00000001800492bc     dealImg.obj
 0002:000142cc       $chain$3$?DrawBitmap@FCImageDrawDC@@SAXPEAUHDC__@@UtagRECT@@PEAUHBITMAP__@@PEAU3@@Z 00000001800492cc     dealImg.obj
 0002:000142ec       $chain$4$?DrawBitmap@FCImageDrawDC@@SAXPEAUHDC__@@UtagRECT@@PEAUHBITMAP__@@PEAU3@@Z 00000001800492ec     dealImg.obj
 0002:000142fc       $unwind$??$type_case_integer_parse_into_buffer@_K@?$output_processor@_WV?$stream_output_adapter@_W@__crt_stdio_output@@V?$standard_base@_WV?$stream_output_adapter@_W@__crt_stdio_output@@@2@@__crt_stdio_output@@AEAAX_KI_N@Z 00000001800492fc     libucrt:output.obj
 0002:000142fc       $unwind$?ProcessPixel@FCEffect3DGrid@@EEAAXAEAVFCObjImage@@HHPEAE@Z 00000001800492fc     dealImg.obj
 0002:000142fc       $unwind$??$type_case_integer_parse_into_buffer@I@?$output_processor@_WV?$stream_output_adapter@_W@__crt_stdio_output@@V?$standard_base@_WV?$stream_output_adapter@_W@__crt_stdio_output@@@2@@__crt_stdio_output@@AEAAXII_N@Z 00000001800492fc     libucrt:output.obj
 0002:000142fc       $unwind$??$type_case_integer_parse_into_buffer@_K@?$output_processor@_WV?$string_output_adapter@_W@__crt_stdio_output@@V?$standard_base@_WV?$string_output_adapter@_W@__crt_stdio_output@@@2@@__crt_stdio_output@@AEAAX_KI_N@Z 00000001800492fc     libucrt:output.obj
 0002:000142fc       $unwind$??$type_case_integer_parse_into_buffer@I@?$output_processor@_WV?$string_output_adapter@_W@__crt_stdio_output@@V?$standard_base@_WV?$string_output_adapter@_W@__crt_stdio_output@@@2@@__crt_stdio_output@@AEAAXII_N@Z 00000001800492fc     libucrt:output.obj
 0002:000142fc       $unwind$?AlphaBlendPixel@FCColor@@SAXPEAXUtagRGBQUAD@@@Z 00000001800492fc     dealImg.obj
 0002:00014304       $unwind$?RGBtoHLS@FCColor@@SAXPEBXAEAN11@Z 0000000180049304     dealImg.obj
 0002:00014318       $chain$0$?RGBtoHLS@FCColor@@SAXPEBXAEAN11@Z 0000000180049318     dealImg.obj
 0002:0001432c       $chain$1$?RGBtoHLS@FCColor@@SAXPEBXAEAN11@Z 000000018004932c     dealImg.obj
 0002:0001433c       $chain$3$?RGBtoHLS@FCColor@@SAXPEBXAEAN11@Z 000000018004933c     dealImg.obj
 0002:00014354       $chain$4$?RGBtoHLS@FCColor@@SAXPEBXAEAN11@Z 0000000180049354     dealImg.obj
 0002:00014364       $unwind$?HLStoRGB@FCColor@@SA?AUtagRGBQUAD@@NNN@Z 0000000180049364     dealImg.obj
 0002:0001437c       $unwind$?RGBtoHSV@FCColor@@SAXPEBXAEAN11@Z 000000018004937c     dealImg.obj
 0002:0001439c       $unwind$_invalid_parameter_noinfo 000000018004939c     libucrt:invalid_parameter.obj
 0002:0001439c       $unwind$_itow_s            000000018004939c     libucrt:xtoa.obj
 0002:0001439c       $unwind$wctomb_s           000000018004939c     libucrt:wctomb.obj
 0002:0001439c       $unwind$?HSVtoRGB@FCColor@@SA?AUtagRGBQUAD@@NNN@Z 000000018004939c     dealImg.obj
 0002:0001439c       $unwind$mbstowcs_s         000000018004939c     libucrt:mbstowcs.obj
 0002:0001439c       $unwind$_wtol              000000018004939c     libucrt:atox.obj
 0002:0001439c       $unwind$_log10_special     000000018004939c     libucrt:log_special.obj
 0002:0001439c       $unwind$_invalid_parameter_noinfo_noreturn 000000018004939c     libucrt:invalid_parameter.obj
 0002:000143a4       $chain$0$?HSVtoRGB@FCColor@@SA?AUtagRGBQUAD@@NNN@Z 00000001800493a4     dealImg.obj
 0002:000143b8       $chain$8$?HSVtoRGB@FCColor@@SA?AUtagRGBQUAD@@NNN@Z 00000001800493b8     dealImg.obj
 0002:000143b8       $chain$10$?HSVtoRGB@FCColor@@SA?AUtagRGBQUAD@@NNN@Z 00000001800493b8     dealImg.obj
 0002:000143b8       $chain$2$?HSVtoRGB@FCColor@@SA?AUtagRGBQUAD@@NNN@Z 00000001800493b8     dealImg.obj
 0002:000143b8       $chain$4$?HSVtoRGB@FCColor@@SA?AUtagRGBQUAD@@NNN@Z 00000001800493b8     dealImg.obj
 0002:000143b8       $chain$6$?HSVtoRGB@FCColor@@SA?AUtagRGBQUAD@@NNN@Z 00000001800493b8     dealImg.obj
 0002:000143b8       $chain$12$?HSVtoRGB@FCColor@@SA?AUtagRGBQUAD@@NNN@Z 00000001800493b8     dealImg.obj
 0002:000143cc       $chain$13$?HSVtoRGB@FCColor@@SA?AUtagRGBQUAD@@NNN@Z 00000001800493cc     dealImg.obj
 0002:000143dc       $unwind$?GetBilinear@FCColor@@SA?AUtagRGBQUAD@@NNHQEAPEAE@Z 00000001800493dc     dealImg.obj
 0002:000143f0       $chain$2$?GetBilinear@FCColor@@SA?AUtagRGBQUAD@@NNHQEAPEAE@Z 00000001800493f0     dealImg.obj
 0002:0001440c       $chain$3$?GetBilinear@FCColor@@SA?AUtagRGBQUAD@@NNHQEAPEAE@Z 000000018004940c     dealImg.obj
 0002:0001441c       $unwind$?GetTypeByFileExt@FCImageCodecFactory@@SA?AW4IMAGE_TYPE@@PEB_W@Z 000000018004941c     dealImg.obj
 0002:00014430       $chain$1$?GetTypeByFileExt@FCImageCodecFactory@@SA?AW4IMAGE_TYPE@@PEB_W@Z 0000000180049430     dealImg.obj
 0002:00014448       $chain$6$?GetTypeByFileExt@FCImageCodecFactory@@SA?AW4IMAGE_TYPE@@PEB_W@Z 0000000180049448     dealImg.obj
 0002:0001446c       $chain$7$?GetTypeByFileExt@FCImageCodecFactory@@SA?AW4IMAGE_TYPE@@PEB_W@Z 000000018004946c     dealImg.obj
 0002:0001448c       $chain$8$?GetTypeByFileExt@FCImageCodecFactory@@SA?AW4IMAGE_TYPE@@PEB_W@Z 000000018004948c     dealImg.obj
 0002:000144a0       $chain$9$?GetTypeByFileExt@FCImageCodecFactory@@SA?AW4IMAGE_TYPE@@PEB_W@Z 00000001800494a0     dealImg.obj
 0002:000144b0       $unwind$?Save@FCObjImage@@QEBA_NPEB_WH@Z 00000001800494b0     dealImg.obj
 0002:000144c8       $unwind$_wcsdup            00000001800494c8     libucrt:wcsdup.obj
 0002:000144c8       $unwind$?_Reallocate@?$vector@V?$basic_string@DU?$char_traits@D@std@@V?$allocator@D@2@@std@@V?$allocator@V?$basic_string@DU?$char_traits@D@std@@V?$allocator@D@2@@std@@@2@@std@@IEAAX_K@Z 00000001800494c8     dealImg.obj
 0002:000144c8       $unwind$__lc_lctowcs       00000001800494c8     libucrt:wsetlocale.obj
 0002:000144c8       $unwind$__acrt_DownlevelLCIDToLocaleName 00000001800494c8     libucrt:lcidtoname_downlevel.obj
 0002:000144c8       $unwind$?AllocPixelBuffer@FCObjImage@@AEAAXXZ 00000001800494c8     dealImg.obj
 0002:000144dc       $unwind$?Create@FCObjImage@@QEAA_NHHH@Z 00000001800494dc     dealImg.obj
 0002:000144fc       $unwind$?TraceLoggingRegister@__vcrt_trace_logging_provider@@YAJPEBU_TlgProvider_t@1@PEBU_GUID@@P6AX1KE_K2PEAU_EVENT_FILTER_DESCRIPTOR@@PEAX@Z4@Z 00000001800494fc     libvcruntime:telemetry.obj
 0002:000144fc       $unwind$?type_case_n@?$output_processor@_WV?$stream_output_adapter@_W@__crt_stdio_output@@V?$standard_base@_WV?$stream_output_adapter@_W@__crt_stdio_output@@@2@@__crt_stdio_output@@AEAA_NXZ 00000001800494fc     libucrt:output.obj
 0002:000144fc       $unwind$?type_case_s@?$output_processor@_WV?$stream_output_adapter@_W@__crt_stdio_output@@V?$standard_base@_WV?$stream_output_adapter@_W@__crt_stdio_output@@@2@@__crt_stdio_output@@AEAA_NXZ 00000001800494fc     libucrt:output.obj
 0002:000144fc       $unwind$__acrt_stdio_flush_nolock 00000001800494fc     libucrt:fflush.obj
 0002:000144fc       $unwind$__vcrt_getptd_noexit 00000001800494fc     libvcruntime:per_thread_data.obj
 0002:000144fc       $unwind$?OnBeforeProcess@FCEffectLUT@@EEAAXAEAVFCObjImage@@@Z 00000001800494fc     dealImg.obj
 0002:000144fc       $unwind$?underflow@?$basic_filebuf@DU?$char_traits@D@std@@@std@@MEAAHXZ 00000001800494fc     libcpmt:cout.obj
 0002:000144fc       $unwind$?ProcessPixel@FCEffectNoisify@@EEAAXAEAVFCObjImage@@HHPEAE@Z 00000001800494fc     dealImg.obj
 0002:000144fc       $unwind$?ProcessWholeImage@FCEffectBlur_Gauss@@EEAAXAEAVFCObjImage@@PEAVFCProgressObserver@@@Z 00000001800494fc     dealImg.obj
 0002:000144fc       $unwind$__acrt_FlsSetValue 00000001800494fc     libucrt:winapi_thunks.obj
 0002:000144fc       $unwind$?__scrt_initialize_thread_safe_statics@@YAHXZ 00000001800494fc     LIBCMT:thread_safe_statics.obj
 0002:000144fc       $unwind$_exception_enabled 00000001800494fc     libucrt:libm_error.obj
 0002:000144fc       $unwind$?type_case_Z@?$output_processor@_WV?$stream_output_adapter@_W@__crt_stdio_output@@V?$standard_base@_WV?$stream_output_adapter@_W@__crt_stdio_output@@@2@@__crt_stdio_output@@AEAA_NXZ 00000001800494fc     libucrt:output.obj
 0002:000144fc       $unwind$__acrt_getptd_noexit 00000001800494fc     libucrt:per_thread_data.obj
 0002:000144fc       $unwind$?_Initcvt@?$basic_filebuf@DU?$char_traits@D@std@@@std@@IEAAXPEBV?$codecvt@DDU_Mbstatet@@@2@@Z 00000001800494fc     libcpmt:cout.obj
 0002:000144fc       $unwind$memcpy_s           00000001800494fc     libucrt:strtod.obj
 0002:000144fc       $unwind$_Init_thread_wait  00000001800494fc     LIBCMT:thread_safe_statics.obj
 0002:000144fc       $unwind$_DllMainCRTStartup 00000001800494fc     LIBCMT:dll_dllmain.obj
 0002:000144fc       $unwind$?sync@?$basic_filebuf@DU?$char_traits@D@std@@@std@@MEAAHXZ 00000001800494fc     libcpmt:cout.obj
 0002:000144fc       $unwind$__acrt_stdio_flush_and_write_wide_nolock 00000001800494fc     libucrt:_flsbuf.obj
 0002:000144fc       $unwind$?assign@?$basic_string@DU?$char_traits@D@std@@V?$allocator@D@2@@std@@QEAAAEAV12@PEBD_K@Z 00000001800494fc     dealImg.obj
 0002:000144fc       $unwind$?GetBits@FCObjImage@@QEBAPEAEHH@Z 00000001800494fc     dealImg.obj
 0002:000144fc       $unwind$??$common_lseek_nolock@_J@@YA_JH_JH@Z 00000001800494fc     libucrt:lseek.obj
 0002:000144fc       $unwind$?type_case_Z@?$output_processor@_WV?$string_output_adapter@_W@__crt_stdio_output@@V?$standard_base@_WV?$string_output_adapter@_W@__crt_stdio_output@@@2@@__crt_stdio_output@@AEAA_NXZ 00000001800494fc     libucrt:output.obj
 0002:000144fc       $unwind$?OnBeforeProcess@FCEffectOldPhoto@@EEAAXAEAVFCObjImage@@@Z 00000001800494fc     dealImg.obj
 0002:000144fc       $unwind$?type_case_s@?$output_processor@_WV?$string_output_adapter@_W@__crt_stdio_output@@V?$standard_base@_WV?$string_output_adapter@_W@__crt_stdio_output@@@2@@__crt_stdio_output@@AEAA_NXZ 00000001800494fc     libucrt:output.obj
 0002:000144fc       $unwind$?assign@?$basic_string@_WU?$char_traits@_W@std@@V?$allocator@_W@2@@std@@QEAAAEAV12@PEB_W_K@Z 00000001800494fc     dealImg.obj
 0002:000144fc       $unwind$?_Tidy@ios_base@std@@AEAAXXZ 00000001800494fc     libcpmt:ios.obj
 0002:000144fc       $unwind$??4?$_Yarn@D@std@@QEAAAEAV01@PEBD@Z 00000001800494fc     libcpmt:locale0.obj
 0002:000144fc       $unwind$_initterm_e        00000001800494fc     libucrt:initterm.obj
 0002:000144fc       $unwind$?_Assign_rv@?$basic_string@_WU?$char_traits@_W@std@@V?$allocator@_W@2@@std@@QEAAX$$QEAV12@@Z 00000001800494fc     dealImg.obj
 0002:000144fc       $unwind$?type_case_n@?$output_processor@_WV?$string_output_adapter@_W@__crt_stdio_output@@V?$standard_base@_WV?$string_output_adapter@_W@__crt_stdio_output@@@2@@__crt_stdio_output@@AEAA_NXZ 00000001800494fc     libucrt:output.obj
 0002:000144fc       $unwind$__acrt_stdio_flush_and_write_narrow_nolock 00000001800494fc     libucrt:_flsbuf.obj
 0002:000144fc       $unwind$memcpy_s           00000001800494fc     libucrt:cfout.obj
 0002:000144fc       $unwind$_RTC_Initialize    00000001800494fc     LIBCMT:_initsect_.obj
 0002:000144fc       $unwind$_RTC_Terminate     00000001800494fc     LIBCMT:_initsect_.obj
 0002:000144fc       $unwind$__acrt_execute_uninitializers 00000001800494fc     libucrt:shared_initialization.obj
 0002:000144fc       $unwind$__acrt_GetUserDefaultLocaleName 00000001800494fc     libucrt:winapi_thunks.obj
 0002:000144fc       $unwind$??R<lambda_ad1ced32f4ac17aa236e5ef05d6b3b7c>@@QEBAXXZ 00000001800494fc     libucrt:mbctype.obj
 0002:000144fc       $unwind$??0_Init_locks@std@@QEAA@XZ 00000001800494fc     libcpmt:xlock.obj
 0002:000144fc       $unwind$?OnBeforeProcess@FCEffectPencilSketch@@EEAAXAEAVFCObjImage@@@Z 00000001800494fc     dealImg.obj
 0002:000144fc       $unwind$__acrt_LocaleNameToLCID 00000001800494fc     libucrt:winapi_thunks.obj
 0002:000144fc       $unwind$__vcrt_FlsSetValue 00000001800494fc     libvcruntime:winapi_downlevel.obj
 0002:000144fc       $unwind$??R<lambda_532e024f4337e6fc7ad266c2bef9f4ed>@@QEBA_KXZ 00000001800494fc     libucrt:fwrite.obj
 0002:000144fc       $unwind$?free_crt_array_internal@@YAXQEAPEBX_K@Z 00000001800494fc     libucrt:inittime.obj
 0002:0001450c       $unwind$?SetColorTable@FCObjImage@@QEAAXQEBUtagRGBQUAD@@@Z 000000018004950c     dealImg.obj
 0002:00014518       $chain$0$?SetColorTable@FCObjImage@@QEAAXQEBUtagRGBQUAD@@@Z 0000000180049518     dealImg.obj
 0002:0001452c       $chain$1$?SetColorTable@FCObjImage@@QEAAXQEBUtagRGBQUAD@@@Z 000000018004952c     dealImg.obj
 0002:0001453c       $unwind$?ConvertToTrueColor@FCObjImage@@AEAAXH@Z 000000018004953c     dealImg.obj
 0002:00014548       $chain$6$?ConvertToTrueColor@FCObjImage@@AEAAXH@Z 0000000180049548     dealImg.obj
 0002:00014574       $chain$7$?ConvertToTrueColor@FCObjImage@@AEAAXH@Z 0000000180049574     dealImg.obj
 0002:00014594       $chain$8$?ConvertToTrueColor@FCObjImage@@AEAAXH@Z 0000000180049594     dealImg.obj
 0002:000145ac       $chain$9$?ConvertToTrueColor@FCObjImage@@AEAAXH@Z 00000001800495ac     dealImg.obj
 0002:000145c0       $chain$10$?ConvertToTrueColor@FCObjImage@@AEAAXH@Z 00000001800495c0     dealImg.obj
 0002:000145d0       $unwind$??4FCObjImage@@QEAAAEAV0@AEBV0@@Z 00000001800495d0     dealImg.obj
 0002:000145e8       $unwind$?xsputn@?$basic_streambuf@DU?$char_traits@D@std@@@std@@MEAA_JPEBD_J@Z 00000001800495e8     libcpmt:cout.obj
 0002:000145e8       $unwind$?Load@FCObjImage@@SA_NPEB_WAEAV?$vector@PEAVFCObjImage@@V?$allocator@PEAVFCObjImage@@@std@@@std@@PEAVFCImageProperty@@@Z 00000001800495e8     dealImg.obj
 0002:00014600       $unwind$?Load@FCObjImage@@QEAA_NPEB_WPEAVFCImageProperty@@@Z 0000000180049600     dealImg.obj
 0002:0001460c       $unwind$?Save@FCObjImage@@QEBA_NPEB_WAEBVFCImageProperty@@@Z 000000018004960c     dealImg.obj
 0002:00014620       $chain$0$?Save@FCObjImage@@QEBA_NPEB_WAEBVFCImageProperty@@@Z 0000000180049620     dealImg.obj
 0002:00014634       $chain$1$?Save@FCObjImage@@QEBA_NPEB_WAEBVFCImageProperty@@@Z 0000000180049634     dealImg.obj
 0002:00014644       $unwind$?ApplyEffect@FCObjImage@@QEAAXAEAVFCImageEffect@@PEAVFCProgressObserver@@@Z 0000000180049644     dealImg.obj
 0002:00014650       $chain$1$?ApplyEffect@FCObjImage@@QEAAXAEAVFCImageEffect@@PEAVFCProgressObserver@@@Z 0000000180049650     dealImg.obj
 0002:00014668       $chain$5$?ApplyEffect@FCObjImage@@QEAAXAEAVFCImageEffect@@PEAVFCProgressObserver@@@Z 0000000180049668     dealImg.obj
 0002:00014688       $chain$6$?ApplyEffect@FCObjImage@@QEAAXAEAVFCImageEffect@@PEAVFCProgressObserver@@@Z 0000000180049688     dealImg.obj
 0002:00014698       $chain$7$?ApplyEffect@FCObjImage@@QEAAXAEAVFCImageEffect@@PEAVFCProgressObserver@@@Z 0000000180049698     dealImg.obj
 0002:000146a8       $unwind$?CreateBitmap@FCObjImage@@QEBAPEAVBitmap@Gdiplus@@H@Z 00000001800496a8     dealImg.obj
 0002:000146bc       $chain$4$?CreateBitmap@FCObjImage@@QEBAPEAVBitmap@Gdiplus@@H@Z 00000001800496bc     dealImg.obj
 0002:000146e0       $chain$5$?CreateBitmap@FCObjImage@@QEBAPEAVBitmap@Gdiplus@@H@Z 00000001800496e0     dealImg.obj
 0002:000146f0       $chain$6$?CreateBitmap@FCObjImage@@QEBAPEAVBitmap@Gdiplus@@H@Z 00000001800496f0     dealImg.obj
 0002:00014714       $unwind$?FromBitmap@FCObjImage@@QEAA_NAEAVBitmap@Gdiplus@@@Z 0000000180049714     dealImg.obj
 0002:0001472c       $chain$2$?FromBitmap@FCObjImage@@QEAA_NAEAVBitmap@Gdiplus@@@Z 000000018004972c     dealImg.obj
 0002:00014748       $chain$3$?FromBitmap@FCObjImage@@QEAA_NAEAVBitmap@Gdiplus@@@Z 0000000180049748     dealImg.obj
 0002:0001475c       $chain$4$?FromBitmap@FCObjImage@@QEAA_NAEAVBitmap@Gdiplus@@@Z 000000018004975c     dealImg.obj
 0002:0001476c       $chain$5$?FromBitmap@FCObjImage@@QEAA_NAEAVBitmap@Gdiplus@@@Z 000000018004976c     dealImg.obj
 0002:0001477c       $unwind$?Draw@FCObjImage@@QEBAXPEAUHDC__@@UtagRECT@@PEAU3@@Z 000000018004977c     dealImg.obj
 0002:00014788       $chain$5$?Draw@FCObjImage@@QEBAXPEAUHDC__@@UtagRECT@@PEAU3@@Z 0000000180049788     dealImg.obj
 0002:000147b0       $chain$6$?Draw@FCObjImage@@QEBAXPEAUHDC__@@UtagRECT@@PEAU3@@Z 00000001800497b0     dealImg.obj
 0002:000147c0       $unwind$??0FCImageCodec_Gdiplus@@QEAA@XZ 00000001800497c0     dealImg.obj
 0002:000147cc       $chain$0$??0FCImageCodec_Gdiplus@@QEAA@XZ 00000001800497cc     dealImg.obj
 0002:000147e0       $chain$1$??0FCImageCodec_Gdiplus@@QEAA@XZ 00000001800497e0     dealImg.obj
 0002:000147f0       $unwind$?CreateBitmapFromMemory@FCImageCodec_Gdiplus@@SAPEAVBitmap@Gdiplus@@PEBX_K@Z 00000001800497f0     dealImg.obj
 0002:000147f8       $chain$0$?CreateBitmapFromMemory@FCImageCodec_Gdiplus@@SAPEAVBitmap@Gdiplus@@PEBX_K@Z 00000001800497f8     dealImg.obj
 0002:0001480c       $chain$1$?CreateBitmapFromMemory@FCImageCodec_Gdiplus@@SAPEAVBitmap@Gdiplus@@PEBX_K@Z 000000018004980c     dealImg.obj
 0002:0001481c       $unwind$?GetPropertyFromBitmap@FCImageCodec_Gdiplus@@SAXAEAVBitmap@Gdiplus@@AEAVFCImageProperty@@@Z 000000018004981c     dealImg.obj
 0002:00014834       $chain$1$?GetPropertyFromBitmap@FCImageCodec_Gdiplus@@SAXAEAVBitmap@Gdiplus@@AEAVFCImageProperty@@@Z 0000000180049834     dealImg.obj
 0002:0001484c       $chain$2$?GetPropertyFromBitmap@FCImageCodec_Gdiplus@@SAXAEAVBitmap@Gdiplus@@AEAVFCImageProperty@@@Z 000000018004984c     dealImg.obj
 0002:00014860       $chain$3$?GetPropertyFromBitmap@FCImageCodec_Gdiplus@@SAXAEAVBitmap@Gdiplus@@AEAVFCImageProperty@@@Z 0000000180049860     dealImg.obj
 0002:00014874       $chain$4$?GetPropertyFromBitmap@FCImageCodec_Gdiplus@@SAXAEAVBitmap@Gdiplus@@AEAVFCImageProperty@@@Z 0000000180049874     dealImg.obj
 0002:00014884       $chain$5$?GetPropertyFromBitmap@FCImageCodec_Gdiplus@@SAXAEAVBitmap@Gdiplus@@AEAVFCImageProperty@@@Z 0000000180049884     dealImg.obj
 0002:00014884       $chain$7$?GetPropertyFromBitmap@FCImageCodec_Gdiplus@@SAXAEAVBitmap@Gdiplus@@AEAVFCImageProperty@@@Z 0000000180049884     dealImg.obj
 0002:00014894       $chain$6$?GetPropertyFromBitmap@FCImageCodec_Gdiplus@@SAXAEAVBitmap@Gdiplus@@AEAVFCImageProperty@@@Z 0000000180049894     dealImg.obj
 0002:000148ac       $chain$8$?GetPropertyFromBitmap@FCImageCodec_Gdiplus@@SAXAEAVBitmap@Gdiplus@@AEAVFCImageProperty@@@Z 00000001800498ac     dealImg.obj
 0002:000148bc       $chain$9$?GetPropertyFromBitmap@FCImageCodec_Gdiplus@@SAXAEAVBitmap@Gdiplus@@AEAVFCImageProperty@@@Z 00000001800498bc     dealImg.obj
 0002:000148d4       $unwind$?AddPropertyToBitmap@FCImageCodec_Gdiplus@@SAXAEBVFCImageProperty@@AEAVBitmap@Gdiplus@@@Z 00000001800498d4     dealImg.obj
 0002:000148f8       $unwind$?LoadImageFile@FCImageCodec_Gdiplus@@EEAA_NPEB_WAEAV?$vector@PEAVFCObjImage@@V?$allocator@PEAVFCObjImage@@@std@@@std@@AEAVFCImageProperty@@@Z 00000001800498f8     dealImg.obj
 0002:000148f8       $unwind$_mbsdec_l          00000001800498f8     libucrt:mbsdec.obj
 0002:00014904       $unwind$?StoreMultiFrame@FCImageCodec_Gdiplus@@CA_NAEAVBitmap@Gdiplus@@AEAV?$vector@PEAVFCObjImage@@V?$allocator@PEAVFCObjImage@@@std@@@std@@AEAVFCImageProperty@@@Z 0000000180049904     dealImg.obj
 0002:00014910       $chain$4$?StoreMultiFrame@FCImageCodec_Gdiplus@@CA_NAEAVBitmap@Gdiplus@@AEAV?$vector@PEAVFCObjImage@@V?$allocator@PEAVFCObjImage@@@std@@@std@@AEAVFCImageProperty@@@Z 0000000180049910     dealImg.obj
 0002:00014934       $chain$6$?StoreMultiFrame@FCImageCodec_Gdiplus@@CA_NAEAVBitmap@Gdiplus@@AEAV?$vector@PEAVFCObjImage@@V?$allocator@PEAVFCObjImage@@@std@@@std@@AEAVFCImageProperty@@@Z 0000000180049934     dealImg.obj
 0002:00014958       $unwind$?SaveImageFile@FCImageCodec_Gdiplus@@EEAA_NPEB_WAEBV?$vector@PEBVFCObjImage@@V?$allocator@PEBVFCObjImage@@@std@@@std@@AEBVFCImageProperty@@@Z 0000000180049958     dealImg.obj
 0002:0001496c       $chain$0$?SaveImageFile@FCImageCodec_Gdiplus@@EEAA_NPEB_WAEBV?$vector@PEBVFCObjImage@@V?$allocator@PEBVFCObjImage@@@std@@@std@@AEBVFCImageProperty@@@Z 000000018004996c     dealImg.obj
 0002:00014980       $chain$5$?SaveImageFile@FCImageCodec_Gdiplus@@EEAA_NPEB_WAEBV?$vector@PEBVFCObjImage@@V?$allocator@PEBVFCObjImage@@@std@@@std@@AEBVFCImageProperty@@@Z 0000000180049980     dealImg.obj
 0002:00014980       $chain$1$?SaveImageFile@FCImageCodec_Gdiplus@@EEAA_NPEB_WAEBV?$vector@PEBVFCObjImage@@V?$allocator@PEBVFCObjImage@@@std@@@std@@AEBVFCImageProperty@@@Z 0000000180049980     dealImg.obj
 0002:00014990       $chain$2$?SaveImageFile@FCImageCodec_Gdiplus@@EEAA_NPEB_WAEBV?$vector@PEBVFCObjImage@@V?$allocator@PEBVFCObjImage@@@std@@@std@@AEBVFCImageProperty@@@Z 0000000180049990     dealImg.obj
 0002:000149a4       $chain$3$?SaveImageFile@FCImageCodec_Gdiplus@@EEAA_NPEB_WAEBV?$vector@PEBVFCObjImage@@V?$allocator@PEBVFCObjImage@@@std@@@std@@AEBVFCImageProperty@@@Z 00000001800499a4     dealImg.obj
 0002:000149b8       $unwind$?CreateStreamFromMemory@FCImageCodec_Gdiplus@@CAPEAUIStream@@PEBX_K@Z 00000001800499b8     dealImg.obj
 0002:000149c4       $chain$0$?CreateStreamFromMemory@FCImageCodec_Gdiplus@@CAPEAUIStream@@PEBX_K@Z 00000001800499c4     dealImg.obj
 0002:000149d8       $chain$1$?CreateStreamFromMemory@FCImageCodec_Gdiplus@@CAPEAUIStream@@PEBX_K@Z 00000001800499d8     dealImg.obj
 0002:000149e8       $unwind$?GetImageEncoderClsid@FCImageCodec_Gdiplus@@CAHW4IMAGE_TYPE@@AEAU_GUID@@@Z 00000001800499e8     dealImg.obj
 0002:000149f8       $chain$0$?GetImageEncoderClsid@FCImageCodec_Gdiplus@@CAHW4IMAGE_TYPE@@AEAU_GUID@@@Z 00000001800499f8     dealImg.obj
 0002:00014a0c       $chain$3$?GetImageEncoderClsid@FCImageCodec_Gdiplus@@CAHW4IMAGE_TYPE@@AEAU_GUID@@@Z 0000000180049a0c     dealImg.obj
 0002:00014a28       $chain$4$?GetImageEncoderClsid@FCImageCodec_Gdiplus@@CAHW4IMAGE_TYPE@@AEAU_GUID@@@Z 0000000180049a28     dealImg.obj
 0002:00014a38       $chain$6$?GetImageEncoderClsid@FCImageCodec_Gdiplus@@CAHW4IMAGE_TYPE@@AEAU_GUID@@@Z 0000000180049a38     dealImg.obj
 0002:00014a58       $unwind$?MakeKernel@FCEffectBlur_Gauss@@AEAAXN@Z 0000000180049a58     dealImg.obj
 0002:00014a78       $unwind$?BlurOnePixel@FCEffectBlur_Gauss@@AEAAXPEAEPEBUtagRGBQUAD@@@Z 0000000180049a78     dealImg.obj
 0002:00014a90       $unwind$?FillPadding@FCEffectBlur_Gauss@@AEAAXAEAPEAUtagRGBQUAD@@PEBX@Z 0000000180049a90     dealImg.obj
 0002:00014aa0       $unwind$?HorizonGetLine@FCEffectBlur_Gauss@@AEAAXAEAVFCObjImage@@HPEAUtagRGBQUAD@@@Z 0000000180049aa0     dealImg.obj
 0002:00014aac       $chain$0$?HorizonGetLine@FCEffectBlur_Gauss@@AEAAXAEAVFCObjImage@@HPEAUtagRGBQUAD@@@Z 0000000180049aac     dealImg.obj
 0002:00014ac0       $chain$2$?HorizonGetLine@FCEffectBlur_Gauss@@AEAAXAEAVFCObjImage@@HPEAUtagRGBQUAD@@@Z 0000000180049ac0     dealImg.obj
 0002:00014ad8       $chain$4$?HorizonGetLine@FCEffectBlur_Gauss@@AEAAXAEAVFCObjImage@@HPEAUtagRGBQUAD@@@Z 0000000180049ad8     dealImg.obj
 0002:00014af0       $chain$5$?HorizonGetLine@FCEffectBlur_Gauss@@AEAAXAEAVFCObjImage@@HPEAUtagRGBQUAD@@@Z 0000000180049af0     dealImg.obj
 0002:00014b00       $chain$6$?HorizonGetLine@FCEffectBlur_Gauss@@AEAAXAEAVFCObjImage@@HPEAUtagRGBQUAD@@@Z 0000000180049b00     dealImg.obj
 0002:00014b14       $chain$7$?HorizonGetLine@FCEffectBlur_Gauss@@AEAAXAEAVFCObjImage@@HPEAUtagRGBQUAD@@@Z 0000000180049b14     dealImg.obj
 0002:00014b28       $unwind$?VerticalGetLine@FCEffectBlur_Gauss@@AEAAXAEAVFCObjImage@@HPEAUtagRGBQUAD@@@Z 0000000180049b28     dealImg.obj
 0002:00014b38       $chain$0$?VerticalGetLine@FCEffectBlur_Gauss@@AEAAXAEAVFCObjImage@@HPEAUtagRGBQUAD@@@Z 0000000180049b38     dealImg.obj
 0002:00014b4c       $chain$2$?VerticalGetLine@FCEffectBlur_Gauss@@AEAAXAEAVFCObjImage@@HPEAUtagRGBQUAD@@@Z 0000000180049b4c     dealImg.obj
 0002:00014b64       $chain$3$?VerticalGetLine@FCEffectBlur_Gauss@@AEAAXAEAVFCObjImage@@HPEAUtagRGBQUAD@@@Z 0000000180049b64     dealImg.obj
 0002:00014b74       $chain$4$?VerticalGetLine@FCEffectBlur_Gauss@@AEAAXAEAVFCObjImage@@HPEAUtagRGBQUAD@@@Z 0000000180049b74     dealImg.obj
 0002:00014b84       $unwind$?BlurVertical@FCEffectBlur_Gauss@@AEAAXAEAVFCObjImage@@PEAVFCProgressObserver@@@Z 0000000180049b84     dealImg.obj
 0002:00014b94       $chain$3$?BlurVertical@FCEffectBlur_Gauss@@AEAAXAEAVFCObjImage@@PEAVFCProgressObserver@@@Z 0000000180049b94     dealImg.obj
 0002:00014bb4       $chain$4$?BlurVertical@FCEffectBlur_Gauss@@AEAAXAEAVFCObjImage@@PEAVFCProgressObserver@@@Z 0000000180049bb4     dealImg.obj
 0002:00014bc4       $unwind$?BlurHorizon@FCEffectBlur_Gauss@@AEAAXAEAVFCObjImage@@PEAVFCProgressObserver@@@Z 0000000180049bc4     dealImg.obj
 0002:00014bd0       $chain$4$?BlurHorizon@FCEffectBlur_Gauss@@AEAAXAEAVFCObjImage@@PEAVFCProgressObserver@@@Z 0000000180049bd0     dealImg.obj
 0002:00014bf4       $chain$5$?BlurHorizon@FCEffectBlur_Gauss@@AEAAXAEAVFCObjImage@@PEAVFCProgressObserver@@@Z 0000000180049bf4     dealImg.obj
 0002:00014c04       $unwind$??0FCEffectGetHistogram@@QEAA@XZ 0000000180049c04     dealImg.obj
 0002:00014c10       $chain$0$??0FCEffectGetHistogram@@QEAA@XZ 0000000180049c10     dealImg.obj
 0002:00014c24       $chain$1$??0FCEffectGetHistogram@@QEAA@XZ 0000000180049c24     dealImg.obj
 0002:00014c34       $chain$2$??0FCEffectGetHistogram@@QEAA@XZ 0000000180049c34     dealImg.obj
 0002:00014c48       $unwind$?ProcessPixel@FCEffectMosaic@@EEAAXAEAVFCObjImage@@HHPEAE@Z 0000000180049c48     dealImg.obj
 0002:00014c54       $chain$0$?ProcessPixel@FCEffectMosaic@@EEAAXAEAVFCObjImage@@HHPEAE@Z 0000000180049c54     dealImg.obj
 0002:00014c68       $chain$1$?ProcessPixel@FCEffectMosaic@@EEAAXAEAVFCObjImage@@HHPEAE@Z 0000000180049c68     dealImg.obj
 0002:00014c7c       $chain$2$?ProcessPixel@FCEffectMosaic@@EEAAXAEAVFCObjImage@@HHPEAE@Z 0000000180049c7c     dealImg.obj
 0002:00014c8c       $chain$6$?ProcessPixel@FCEffectMosaic@@EEAAXAEAVFCObjImage@@HHPEAE@Z 0000000180049c8c     dealImg.obj
 0002:00014c8c       $chain$8$?ProcessPixel@FCEffectMosaic@@EEAAXAEAVFCObjImage@@HHPEAE@Z 0000000180049c8c     dealImg.obj
 0002:00014c8c       $chain$10$?ProcessPixel@FCEffectMosaic@@EEAAXAEAVFCObjImage@@HHPEAE@Z 0000000180049c8c     dealImg.obj
 0002:00014c8c       $chain$4$?ProcessPixel@FCEffectMosaic@@EEAAXAEAVFCObjImage@@HHPEAE@Z 0000000180049c8c     dealImg.obj
 0002:00014ca0       $unwind$?GetBlockAverage@FCEffectMosaic@@AEAA?AUtagRGBQUAD@@HH@Z 0000000180049ca0     dealImg.obj
 0002:00014cc8       $chain$0$?GetBlockAverage@FCEffectMosaic@@AEAA?AUtagRGBQUAD@@HH@Z 0000000180049cc8     dealImg.obj
 0002:00014cdc       $chain$4$?GetBlockAverage@FCEffectMosaic@@AEAA?AUtagRGBQUAD@@HH@Z 0000000180049cdc     dealImg.obj
 0002:00014cfc       $chain$5$?GetBlockAverage@FCEffectMosaic@@AEAA?AUtagRGBQUAD@@HH@Z 0000000180049cfc     dealImg.obj
 0002:00014d0c       $chain$6$?GetBlockAverage@FCEffectMosaic@@AEAA?AUtagRGBQUAD@@HH@Z 0000000180049d0c     dealImg.obj
 0002:00014d1c       $unwind$?InitLUTtable@FCEffectGamma@@EEAAHH@Z 0000000180049d1c     dealImg.obj
 0002:00014d2c       $unwind$??0FCEffectColorTone@@QEAA@UtagRGBQUAD@@H@Z 0000000180049d2c     dealImg.obj
 0002:00014d40       $unwind$?OnBeforeProcess@FCEffectAutoContrast@@EEAAXAEAVFCObjImage@@@Z 0000000180049d40     dealImg.obj
 0002:00014d54       $chain$1$?OnBeforeProcess@FCEffectAutoContrast@@EEAAXAEAVFCObjImage@@@Z 0000000180049d54     dealImg.obj
 0002:00014d6c       $chain$5$?OnBeforeProcess@FCEffectAutoContrast@@EEAAXAEAVFCObjImage@@@Z 0000000180049d6c     dealImg.obj
 0002:00014d8c       $chain$6$?OnBeforeProcess@FCEffectAutoContrast@@EEAAXAEAVFCObjImage@@@Z 0000000180049d8c     dealImg.obj
 0002:00014d9c       $chain$7$?OnBeforeProcess@FCEffectAutoContrast@@EEAAXAEAVFCObjImage@@@Z 0000000180049d9c     dealImg.obj
 0002:00014dac       $unwind$?OnBeforeProcess@FCEffectAutoColorEnhance@@EEAAXAEAVFCObjImage@@@Z 0000000180049dac     dealImg.obj
 0002:00014db8       $chain$3$?OnBeforeProcess@FCEffectAutoColorEnhance@@EEAAXAEAVFCObjImage@@@Z 0000000180049db8     dealImg.obj
 0002:00014dd8       $chain$4$?OnBeforeProcess@FCEffectAutoColorEnhance@@EEAAXAEAVFCObjImage@@@Z 0000000180049dd8     dealImg.obj
 0002:00014de8       $unwind$?ProcessPixel@FCEffectAutoColorEnhance@@EEAAXAEAVFCObjImage@@HHPEAE@Z 0000000180049de8     dealImg.obj
 0002:00014dfc       $unwind$?ProcessPixel@FCEffectBilinearDistort@@EEAAXAEAVFCObjImage@@HHPEAE@Z 0000000180049dfc     dealImg.obj
 0002:00014e04       $chain$1$?ProcessPixel@FCEffectBilinearDistort@@EEAAXAEAVFCObjImage@@HHPEAE@Z 0000000180049e04     dealImg.obj
 0002:00014e1c       $chain$5$?ProcessPixel@FCEffectBilinearDistort@@EEAAXAEAVFCObjImage@@HHPEAE@Z 0000000180049e1c     dealImg.obj
 0002:00014e3c       $chain$6$?ProcessPixel@FCEffectBilinearDistort@@EEAAXAEAVFCObjImage@@HHPEAE@Z 0000000180049e3c     dealImg.obj
 0002:00014e4c       $chain$7$?ProcessPixel@FCEffectBilinearDistort@@EEAAXAEAVFCObjImage@@HHPEAE@Z 0000000180049e4c     dealImg.obj
 0002:00014e5c       $unwind$?calc_undistorted_coord@FCEffectWave@@EEAAXHHAEAN0@Z 0000000180049e5c     dealImg.obj
 0002:00014e88       $unwind$?calc_undistorted_coord@FCEffectBulge@@EEAAXHHAEAN0@Z 0000000180049e88     dealImg.obj
 0002:00014eb8       $unwind$?calc_undistorted_coord@FCEffectTwist@@EEAAXHHAEAN0@Z 0000000180049eb8     dealImg.obj
 0002:00014eec       $unwind$?RotatePoint@FCEffectRotate@@CAXAEAN0NNN@Z 0000000180049eec     dealImg.obj
 0002:00014f0c       $unwind$?OnBeforeProcess@FCEffectRotate@@EEAAXAEAVFCObjImage@@@Z 0000000180049f0c     dealImg.obj
 0002:00014f50       $unwind$?calc_undistorted_coord@FCEffectRotate@@EEAAXHHAEAN0@Z 0000000180049f50     dealImg.obj
 0002:00014f64       $unwind$?OnBeforeProcess@FCEffectRibbon@@EEAAXAEAVFCObjImage@@@Z 0000000180049f64     dealImg.obj
 0002:00014f80       $chain$3$?OnBeforeProcess@FCEffectRibbon@@EEAAXAEAVFCObjImage@@@Z 0000000180049f80     dealImg.obj
 0002:00014fa0       $chain$4$?OnBeforeProcess@FCEffectRibbon@@EEAAXAEAVFCObjImage@@@Z 0000000180049fa0     dealImg.obj
 0002:00014fb0       $chain$5$?OnBeforeProcess@FCEffectRibbon@@EEAAXAEAVFCObjImage@@@Z 0000000180049fb0     dealImg.obj
 0002:00014fd0       $unwind$?calc_undistorted_coord@FCEffectRipple@@EEAAXHHAEAN0@Z 0000000180049fd0     dealImg.obj
 0002:00014fe4       $unwind$??0FCEffectColorBalance@@QEAA@_NW4TONE_REGION@0@HHH@Z 0000000180049fe4     dealImg.obj
 0002:00014ff8       $chain$5$??0FCEffectColorBalance@@QEAA@_NW4TONE_REGION@0@HHH@Z 0000000180049ff8     dealImg.obj
 0002:00015020       $chain$6$??0FCEffectColorBalance@@QEAA@_NW4TONE_REGION@0@HHH@Z 000000018004a020     dealImg.obj
 0002:00015034       $chain$11$??0FCEffectColorBalance@@QEAA@_NW4TONE_REGION@0@HHH@Z 000000018004a034     dealImg.obj
 0002:00015058       $chain$12$??0FCEffectColorBalance@@QEAA@_NW4TONE_REGION@0@HHH@Z 000000018004a058     dealImg.obj
 0002:00015068       $chain$13$??0FCEffectColorBalance@@QEAA@_NW4TONE_REGION@0@HHH@Z 000000018004a068     dealImg.obj
 0002:00015078       $chain$14$??0FCEffectColorBalance@@QEAA@_NW4TONE_REGION@0@HHH@Z 000000018004a078     dealImg.obj
 0002:00015090       $chain$15$??0FCEffectColorBalance@@QEAA@_NW4TONE_REGION@0@HHH@Z 000000018004a090     dealImg.obj
 0002:000150ac       $chain$16$??0FCEffectColorBalance@@QEAA@_NW4TONE_REGION@0@HHH@Z 000000018004a0ac     dealImg.obj
 0002:000150cc       $chain$17$??0FCEffectColorBalance@@QEAA@_NW4TONE_REGION@0@HHH@Z 000000018004a0cc     dealImg.obj
 0002:000150f0       $chain$18$??0FCEffectColorBalance@@QEAA@_NW4TONE_REGION@0@HHH@Z 000000018004a0f0     dealImg.obj
 0002:00015118       $chain$19$??0FCEffectColorBalance@@QEAA@_NW4TONE_REGION@0@HHH@Z 000000018004a118     dealImg.obj
 0002:00015144       $unwind$?ProcessPixel@FCEffectColorBalance@@EEAAXAEAVFCObjImage@@HHPEAE@Z 000000018004a144     dealImg.obj
 0002:00015154       $unwind$?OnBeforeProcess@FCEffectOilPaint@@EEAAXAEAVFCObjImage@@@Z 000000018004a154     dealImg.obj
 0002:00015164       $chain$3$?OnBeforeProcess@FCEffectOilPaint@@EEAAXAEAVFCObjImage@@@Z 000000018004a164     dealImg.obj
 0002:00015184       $chain$4$?OnBeforeProcess@FCEffectOilPaint@@EEAAXAEAVFCObjImage@@@Z 000000018004a184     dealImg.obj
 0002:00015194       $unwind$?ProcessPixel@FCEffectOilPaint@@EEAAXAEAVFCObjImage@@HHPEAE@Z 000000018004a194     dealImg.obj
 0002:000151a8       $chain$3$?ProcessPixel@FCEffectOilPaint@@EEAAXAEAVFCObjImage@@HHPEAE@Z 000000018004a1a8     dealImg.obj
 0002:000151c8       $chain$5$?ProcessPixel@FCEffectOilPaint@@EEAAXAEAVFCObjImage@@HHPEAE@Z 000000018004a1c8     dealImg.obj
 0002:000151e0       $chain$6$?ProcessPixel@FCEffectOilPaint@@EEAAXAEAVFCObjImage@@HHPEAE@Z 000000018004a1e0     dealImg.obj
 0002:000151f0       $chain$7$?ProcessPixel@FCEffectOilPaint@@EEAAXAEAVFCObjImage@@HHPEAE@Z 000000018004a1f0     dealImg.obj
 0002:00015200       $unwind$__scrt_dllmain_exception_filter 000000018004a200     LIBCMT:utility.obj
 0002:00015200       $unwind$?_Reallocate@?$vector@PEAVFCImageEffect@@V?$allocator@PEAVFCImageEffect@@@std@@@std@@IEAAX_K@Z 000000018004a200     dealImg.obj
 0002:00015200       $unwind$__crtInitializeCriticalSectionEx 000000018004a200     libcpmt:winapisupp.obj
 0002:00015200       $unwind$?_Reallocate@?$vector@NV?$allocator@N@std@@@std@@IEAAX_K@Z 000000018004a200     dealImg.obj
 0002:00015200       $unwind$__vcrt_InitializeCriticalSectionEx 000000018004a200     libvcruntime:winapi_downlevel.obj
 0002:00015200       $unwind$?setSBCS@@YAXPEAU__crt_multibyte_data@@@Z 000000018004a200     libucrt:mbctype.obj
 0002:00015200       $unwind$?_Reallocate@?$vector@HV?$allocator@H@std@@@std@@IEAAX_K@Z 000000018004a200     dealImg.obj
 0002:00015200       $unwind$__acrt_free_locale 000000018004a200     libucrt:locale_refcounting.obj
 0002:00015200       $unwind$_wassert           000000018004a200     libucrt:assert.obj
 0002:00015200       $unwind$_seh_filter_exe    000000018004a200     libucrt:exception_filter.obj
 0002:00015200       $unwind$__acrt_lowio_create_handle_array 000000018004a200     libucrt:osfinfo.obj
 0002:00015200       $unwind$?dllmain_raw@@YAHQEAUHINSTANCE__@@KQEAX@Z 000000018004a200     LIBCMT:dll_dllmain.obj
 0002:00015200       $unwind$?_Reallocate@?$vector@UtagRGBQUAD@@V?$allocator@UtagRGBQUAD@@@std@@@std@@IEAAX_K@Z 000000018004a200     dealImg.obj
 0002:00015200       $unwind$_recalloc_base     000000018004a200     libucrt:recalloc.obj
 0002:00015200       $unwind$??$ensure_buffer_is_big_enough@D@formatting_buffer@__crt_stdio_output@@QEAA_N_K@Z 000000018004a200     libucrt:output.obj
 0002:00015200       $unwind$?expand_if_necessary@?$argument_list@D@?A0xca0879c4@@AEAAHXZ 000000018004a200     libucrt:argv_wildcards.obj
 0002:00015200       $unwind$??1FCEffectOilPaint@@UEAA@XZ 000000018004a200     dealImg.obj
 0002:00015200       $unwind$__acrt_execute_initializers 000000018004a200     libucrt:shared_initialization.obj
 0002:00015200       $unwind$__acrt_InitializeCriticalSectionEx 000000018004a200     libucrt:winapi_thunks.obj
 0002:00015200       $unwind$?_Copy@?$basic_string@_WU?$char_traits@_W@std@@V?$allocator@_W@2@@std@@QEAAX_K0@Z 000000018004a200     dealImg.obj
 0002:00015200       $unwind$?_Reallocate@?$vector@PEAVFCObjImage@@V?$allocator@PEAVFCObjImage@@@std@@@std@@IEAAX_K@Z 000000018004a200     dealImg.obj
 0002:00015200       $unwind$?_Copy@?$basic_string@DU?$char_traits@D@std@@V?$allocator@D@2@@std@@QEAAX_K0@Z 000000018004a200     dealImg.obj
 0002:00015214       $unwind$?CalculateValue@FCEffectColorLevel@@AEAAEHHH@Z 000000018004a214     dealImg.obj
 0002:00015220       $unwind$?OnBeforeProcess@FCEffectAutoColorLevel@@EEAAXAEAVFCObjImage@@@Z 000000018004a220     dealImg.obj
 0002:0001522c       $unwind$wcschr             000000018004a22c     libvcruntime:wcschr.obj
 0002:0001522c       $unwind$strrchr            000000018004a22c     libvcruntime:strrchr.obj
 0002:0001522c       $unwind$?AutoColorLevelChannel@FCEffectAutoColorLevel@@AEAAXAEBV?$vector@HV?$allocator@H@std@@@std@@H@Z 000000018004a22c     dealImg.obj
 0002:00015234       $chain$0$?AutoColorLevelChannel@FCEffectAutoColorLevel@@AEAAXAEBV?$vector@HV?$allocator@H@std@@@std@@H@Z 000000018004a234     dealImg.obj
 0002:00015248       $chain$1$?AutoColorLevelChannel@FCEffectAutoColorLevel@@AEAAXAEBV?$vector@HV?$allocator@H@std@@@std@@H@Z 000000018004a248     dealImg.obj
 0002:00015258       $unwind$?ProcessPixel@FCEffectBlur_Zoom@@EEAAXAEAVFCObjImage@@HHPEAE@Z 000000018004a258     dealImg.obj
 0002:00015270       $unwind$?ProcessPixel@FCEffectBlur_Radial@@EEAAXAEAVFCObjImage@@HHPEAE@Z 000000018004a270     dealImg.obj
 0002:00015288       $unwind$??0FCEffectBlur_Motion@@QEAA@HH@Z 000000018004a288     dealImg.obj
 0002:000152a0       $unwind$?ProcessPixel@FCEffectBlur_Motion@@EEAAXAEAVFCObjImage@@HHPEAE@Z 000000018004a2a0     dealImg.obj
 0002:000152b8       $unwind$??0FCEffectPencilSketch@@QEAA@HH@Z 000000018004a2b8     dealImg.obj
 0002:000152b8       $unwind$?parse_int_from_format_string@?$output_processor@_WV?$string_output_adapter@_W@__crt_stdio_output@@V?$standard_base@_WV?$string_output_adapter@_W@__crt_stdio_output@@@2@@__crt_stdio_output@@AEAA_NQEAH@Z 000000018004a2b8     libucrt:output.obj
 0002:000152b8       $unwind$?parse_int_from_format_string@?$output_processor@_WV?$stream_output_adapter@_W@__crt_stdio_output@@V?$standard_base@_WV?$stream_output_adapter@_W@__crt_stdio_output@@@2@@__crt_stdio_output@@AEAA_NQEAH@Z 000000018004a2b8     libucrt:output.obj
 0002:000152cc       $unwind$__acrt_is_packaged_app 000000018004a2cc     libucrt:winapi_thunks.obj
 0002:000152cc       $unwind$??1FCEffectOldPhoto@@UEAA@XZ 000000018004a2cc     dealImg.obj
 0002:000152cc       $unwind$iswctype           000000018004a2cc     libucrt:iswctype.obj
 0002:000152cc       $unwind$??1FCEffectPencilSketch@@UEAA@XZ 000000018004a2cc     dealImg.obj
 0002:000152d8       $unwind$?OnFinishPixel@FCEffectPencilSketch@@EEAAXAEAVFCObjImage@@HHPEAE@Z 000000018004a2d8     dealImg.obj
 0002:000152e0       $chain$1$?OnFinishPixel@FCEffectPencilSketch@@EEAAXAEAVFCObjImage@@HHPEAE@Z 000000018004a2e0     dealImg.obj
 0002:000152f8       $chain$5$?OnFinishPixel@FCEffectPencilSketch@@EEAAXAEAVFCObjImage@@HHPEAE@Z 000000018004a2f8     dealImg.obj
 0002:00015318       $chain$6$?OnFinishPixel@FCEffectPencilSketch@@EEAAXAEAVFCObjImage@@HHPEAE@Z 000000018004a318     dealImg.obj
 0002:0001532c       $chain$7$?OnFinishPixel@FCEffectPencilSketch@@EEAAXAEAVFCObjImage@@HHPEAE@Z 000000018004a32c     dealImg.obj
 0002:0001533c       $chain$8$?OnFinishPixel@FCEffectPencilSketch@@EEAAXAEAVFCObjImage@@HHPEAE@Z 000000018004a33c     dealImg.obj
 0002:00015358       $chain$9$?OnFinishPixel@FCEffectPencilSketch@@EEAAXAEAVFCObjImage@@HHPEAE@Z 000000018004a358     dealImg.obj
 0002:00015370       $chain$10$?OnFinishPixel@FCEffectPencilSketch@@EEAAXAEAVFCObjImage@@HHPEAE@Z 000000018004a370     dealImg.obj
 0002:00015380       $chain$11$?OnFinishPixel@FCEffectPencilSketch@@EEAAXAEAVFCObjImage@@HHPEAE@Z 000000018004a380     dealImg.obj
 0002:000153ac       $unwind$??0FCEffectOldPhoto@@QEAA@HHH@Z 000000018004a3ac     dealImg.obj
 0002:000153ac       $unwind$?write_stored_string_tchar@?$output_processor@_WV?$stream_output_adapter@_W@__crt_stdio_output@@V?$standard_base@_WV?$stream_output_adapter@_W@__crt_stdio_output@@@2@@__crt_stdio_output@@AEAA_N_W@Z 000000018004a3ac     libucrt:output.obj
 0002:000153c0       $unwind$?OnFinishPixel@FCEffectOldPhoto@@EEAAXAEAVFCObjImage@@HHPEAE@Z 000000018004a3c0     dealImg.obj
 0002:000153d4       $chain$1$?OnFinishPixel@FCEffectOldPhoto@@EEAAXAEAVFCObjImage@@HHPEAE@Z 000000018004a3d4     dealImg.obj
 0002:000153ec       $chain$2$?OnFinishPixel@FCEffectOldPhoto@@EEAAXAEAVFCObjImage@@HHPEAE@Z 000000018004a3ec     dealImg.obj
 0002:000153fc       $chain$3$?OnFinishPixel@FCEffectOldPhoto@@EEAAXAEAVFCObjImage@@HHPEAE@Z 000000018004a3fc     dealImg.obj
 0002:00015414       $unwind$?Init@set@dealImg@@SAXPEAVIsolate@v8@@@Z 000000018004a414     dealImg.obj
 0002:00015420       $unwind$?AppendText@set@dealImg@@CAXPEAUuv_work_s@@@Z 000000018004a420     dealImg.obj
 0002:00015430       $unwind$?DrawTextOnOtherWorkThread@set@dealImg@@CAXPEAUHDC__@@HHHHHHHPEAD1@Z 000000018004a430     dealImg.obj
 0002:00015448       $unwind$?CutImg@set@dealImg@@CAXPEAUuv_work_s@@@Z 000000018004a448     dealImg.obj
 0002:00015468       $unwind$?Save@set@dealImg@@CAXAEBV?$FunctionCallbackInfo@VValue@v8@@@v8@@@Z 000000018004a468     dealImg.obj
 0002:00015478       $unwind$?ChangeWchar_t@set@dealImg@@CAPEA_WPEADH@Z 000000018004a478     dealImg.obj
 0002:00015490       $chain$0$?ChangeWchar_t@set@dealImg@@CAPEA_WPEADH@Z 000000018004a490     dealImg.obj
 0002:000154a4       $chain$1$?ChangeWchar_t@set@dealImg@@CAPEA_WPEADH@Z 000000018004a4a4     dealImg.obj
 0002:000154b4       $unwind$?CutImg@set@dealImg@@CAXAEBV?$FunctionCallbackInfo@VValue@v8@@@v8@@@Z 000000018004a4b4     dealImg.obj
 0002:000154c0       $chain$1$?CutImg@set@dealImg@@CAXAEBV?$FunctionCallbackInfo@VValue@v8@@@v8@@@Z 000000018004a4c0     dealImg.obj
 0002:000154d8       $chain$5$?CutImg@set@dealImg@@CAXAEBV?$FunctionCallbackInfo@VValue@v8@@@v8@@@Z 000000018004a4d8     dealImg.obj
 0002:000154f8       $chain$6$?CutImg@set@dealImg@@CAXAEBV?$FunctionCallbackInfo@VValue@v8@@@v8@@@Z 000000018004a4f8     dealImg.obj
 0002:00015508       $chain$7$?CutImg@set@dealImg@@CAXAEBV?$FunctionCallbackInfo@VValue@v8@@@v8@@@Z 000000018004a508     dealImg.obj
 0002:00015518       $unwind$?AppendText@set@dealImg@@CAXAEBV?$FunctionCallbackInfo@VValue@v8@@@v8@@@Z 000000018004a518     dealImg.obj
 0002:00015530       $unwind$?Effect@set@dealImg@@CAXPEAUuv_work_s@@@Z 000000018004a530     dealImg.obj
 0002:00015550       $unwind$?Effect@set@dealImg@@CAXAEBV?$FunctionCallbackInfo@VValue@v8@@@v8@@@Z 000000018004a550     dealImg.obj
 0002:0001555c       $chain$1$?Effect@set@dealImg@@CAXAEBV?$FunctionCallbackInfo@VValue@v8@@@v8@@@Z 000000018004a55c     dealImg.obj
 0002:00015574       $chain$4$?Effect@set@dealImg@@CAXAEBV?$FunctionCallbackInfo@VValue@v8@@@v8@@@Z 000000018004a574     dealImg.obj
 0002:00015590       $chain$5$?Effect@set@dealImg@@CAXAEBV?$FunctionCallbackInfo@VValue@v8@@@v8@@@Z 000000018004a590     dealImg.obj
 0002:000155a4       $chain$6$?Effect@set@dealImg@@CAXAEBV?$FunctionCallbackInfo@VValue@v8@@@v8@@@Z 000000018004a5a4     dealImg.obj
 0002:000155b4       $chain$7$?Effect@set@dealImg@@CAXAEBV?$FunctionCallbackInfo@VValue@v8@@@v8@@@Z 000000018004a5b4     dealImg.obj
 0002:000155c4       $unwind$?WorkAsyncComplete@set@dealImg@@CAXPEAUuv_work_s@@H@Z 000000018004a5c4     dealImg.obj
 0002:000155d0       $unwind$?append@?$basic_string@DU?$char_traits@D@std@@V?$allocator@D@2@@std@@QEAAAEAV12@PEBD_K@Z 000000018004a5d0     dealImg.obj
 0002:000155d0       $unwind$?append@?$basic_string@DU?$char_traits@D@std@@V?$allocator@D@2@@std@@QEAAAEAV12@_KD@Z 000000018004a5d0     dealImg.obj
 0002:000155e0       $chain$0$?append@?$basic_string@DU?$char_traits@D@std@@V?$allocator@D@2@@std@@QEAAAEAV12@PEBD_K@Z 000000018004a5e0     dealImg.obj
 0002:000155f4       $chain$1$?append@?$basic_string@DU?$char_traits@D@std@@V?$allocator@D@2@@std@@QEAAAEAV12@PEBD_K@Z 000000018004a5f4     dealImg.obj
 0002:00015604       $chain$2$?append@?$basic_string@DU?$char_traits@D@std@@V?$allocator@D@2@@std@@QEAAAEAV12@PEBD_K@Z 000000018004a604     dealImg.obj
 0002:00015618       $unwind$_free_osfhnd       000000018004a618     libucrt:osfinfo.obj
 0002:00015618       $unwind$?initialize_stdio_handles_nolock@@YAXXZ 000000018004a618     libucrt:ioinit.obj
 0002:00015618       $unwind$_wcstombs_s_l      000000018004a618     libucrt:wcstombs.obj
 0002:00015618       $unwind$__std_exception_copy 000000018004a618     libvcruntime:std_exception.obj
 0002:00015618       $unwind$?assign@?$basic_string@_WU?$char_traits@_W@std@@V?$allocator@_W@2@@std@@QEAAAEAV12@AEBV12@_K1@Z 000000018004a618     dealImg.obj
 0002:00015618       $unwind$?assign@?$basic_string@DU?$char_traits@D@std@@V?$allocator@D@2@@std@@QEAAAEAV12@AEBV12@_K1@Z 000000018004a618     dealImg.obj
 0002:0001562c       $chain$0$?append@?$basic_string@DU?$char_traits@D@std@@V?$allocator@D@2@@std@@QEAAAEAV12@_KD@Z 000000018004a62c     dealImg.obj
 0002:00015640       $chain$1$?append@?$basic_string@DU?$char_traits@D@std@@V?$allocator@D@2@@std@@QEAAAEAV12@_KD@Z 000000018004a640     dealImg.obj
 0002:00015650       $chain$2$?append@?$basic_string@DU?$char_traits@D@std@@V?$allocator@D@2@@std@@QEAAAEAV12@_KD@Z 000000018004a650     dealImg.obj
 0002:00015664       $unwind$?append@?$basic_string@DU?$char_traits@D@std@@V?$allocator@D@2@@std@@QEAAAEAV12@AEBV12@_K1@Z 000000018004a664     dealImg.obj
 0002:00015678       $chain$0$?append@?$basic_string@DU?$char_traits@D@std@@V?$allocator@D@2@@std@@QEAAAEAV12@AEBV12@_K1@Z 000000018004a678     dealImg.obj
 0002:0001568c       $chain$1$?append@?$basic_string@DU?$char_traits@D@std@@V?$allocator@D@2@@std@@QEAAAEAV12@AEBV12@_K1@Z 000000018004a68c     dealImg.obj
 0002:0001569c       $chain$2$?append@?$basic_string@DU?$char_traits@D@std@@V?$allocator@D@2@@std@@QEAAAEAV12@AEBV12@_K1@Z 000000018004a69c     dealImg.obj
 0002:000156b0       $unwind$??$use_facet@V?$ctype@D@std@@@std@@YAAEBV?$ctype@D@0@AEBVlocale@0@@Z 000000018004a6b0     dealImg.obj
 0002:000156c0       $unwind$??$for_each@V?$_Vector_iterator@V?$_Vector_val@U?$_Simple_types@PEAVFCObjImage@@@std@@@std@@@std@@UFCDeleteEachObject@@@std@@YA?AUFCDeleteEachObject@@V?$_Vector_iterator@V?$_Vector_val@U?$_Simple_types@PEAVFCObjImage@@@std@@@std@@@0@0U1@@Z 000000018004a6c0     dealImg.obj
 0002:000156c0       $unwind$??$for_each@V?$_Vector_iterator@V?$_Vector_val@U?$_Simple_types@PEAVFCImageEffect@@@std@@@std@@@std@@UFCDeleteEachObject@@@std@@YA?AUFCDeleteEachObject@@V?$_Vector_iterator@V?$_Vector_val@U?$_Simple_types@PEAVFCImageEffect@@@std@@@std@@@0@0U1@@Z 000000018004a6c0     dealImg.obj
 0002:000156d4       $unwind$??$Unwrap@Vset@dealImg@@@ObjectWrap@node@@SAPEAVset@dealImg@@V?$Local@VObject@v8@@@v8@@@Z 000000018004a6d4     dealImg.obj
 0002:000156dc       $unwind$??$_Destroy_range@U?$_Wrap_alloc@V?$allocator@V?$basic_string@DU?$char_traits@D@std@@V?$allocator@D@2@@std@@@std@@@std@@@std@@YAXPEAV?$basic_string@DU?$char_traits@D@std@@V?$allocator@D@2@@0@0AEAU?$_Wrap_alloc@V?$allocator@V?$basic_string@DU?$char_traits@D@std@@V?$allocator@D@2@@std@@@std@@@0@@Z 000000018004a6dc     dealImg.obj
 0002:000156e8       $chain$0$??$_Destroy_range@U?$_Wrap_alloc@V?$allocator@V?$basic_string@DU?$char_traits@D@std@@V?$allocator@D@2@@std@@@std@@@std@@@std@@YAXPEAV?$basic_string@DU?$char_traits@D@std@@V?$allocator@D@2@@0@0AEAU?$_Wrap_alloc@V?$allocator@V?$basic_string@DU?$char_traits@D@std@@V?$allocator@D@2@@std@@@std@@@0@@Z 000000018004a6e8     dealImg.obj
 0002:000156fc       $chain$1$??$_Destroy_range@U?$_Wrap_alloc@V?$allocator@V?$basic_string@DU?$char_traits@D@std@@V?$allocator@D@2@@std@@@std@@@std@@@std@@YAXPEAV?$basic_string@DU?$char_traits@D@std@@V?$allocator@D@2@@0@0AEAU?$_Wrap_alloc@V?$allocator@V?$basic_string@DU?$char_traits@D@std@@V?$allocator@D@2@@std@@@std@@@0@@Z 000000018004a6fc     dealImg.obj
 0002:0001570c       $chain$2$??$_Destroy_range@U?$_Wrap_alloc@V?$allocator@V?$basic_string@DU?$char_traits@D@std@@V?$allocator@D@2@@std@@@std@@@std@@@std@@YAXPEAV?$basic_string@DU?$char_traits@D@std@@V?$allocator@D@2@@0@0AEAU?$_Wrap_alloc@V?$allocator@V?$basic_string@DU?$char_traits@D@std@@V?$allocator@D@2@@std@@@std@@@0@@Z 000000018004a70c     dealImg.obj
 0002:00015720       $unwind$?widen@?$basic_ios@DU?$char_traits@D@std@@@std@@QEBADD@Z 000000018004a720     dealImg.obj
 0002:00015720       $unwind$__acrt_copy_locale_name 000000018004a720     libucrt:wsetlocale.obj
 0002:00015730       $unwind$?_Traits_compare@?$basic_string@_WU?$char_traits@_W@std@@V?$allocator@_W@2@@std@@SAHQEB_W_K01@Z 000000018004a730     dealImg.obj
 0002:0001573c       $chain$0$??$_Uninitialized_move_al_unchecked1@PEAV?$basic_string@DU?$char_traits@D@std@@V?$allocator@D@2@@std@@PEAV12@V?$allocator@V?$basic_string@DU?$char_traits@D@std@@V?$allocator@D@2@@std@@@2@@std@@YAPEAV?$basic_string@DU?$char_traits@D@std@@V?$allocator@D@2@@0@PEAV10@00AEAU?$_Wrap_alloc@V?$allocator@V?$basic_string@DU?$char_traits@D@std@@V?$allocator@D@2@@std@@@std@@@0@U_General_ptr_iterator_tag@0@@Z 000000018004a73c     dealImg.obj
 0002:00015750       $chain$1$??$_Uninitialized_move_al_unchecked1@PEAV?$basic_string@DU?$char_traits@D@std@@V?$allocator@D@2@@std@@PEAV12@V?$allocator@V?$basic_string@DU?$char_traits@D@std@@V?$allocator@D@2@@std@@@2@@std@@YAPEAV?$basic_string@DU?$char_traits@D@std@@V?$allocator@D@2@@0@PEAV10@00AEAU?$_Wrap_alloc@V?$allocator@V?$basic_string@DU?$char_traits@D@std@@V?$allocator@D@2@@std@@@std@@@0@U_General_ptr_iterator_tag@0@@Z 000000018004a750     dealImg.obj
 0002:00015760       xdata                      000000018004a760     node:node.exe
 0002:00015768       $unwind$??_Glocale@std@@QEAAPEAXI@Z 000000018004a768     libcpmt:cout.obj
 0002:00015788       $ip2state$??_Glocale@std@@QEAAPEAXI@Z 000000018004a788     libcpmt:cout.obj
 0002:000157a0       $unwind$?_Init@ios_base@std@@IEAAXXZ 000000018004a7a0     libcpmt:cout.obj
 0002:000157b8       $ip2state$?_Init@ios_base@std@@IEAAXXZ 000000018004a7b8     libcpmt:cout.obj
 0002:000157d0       $unwind$??_Gios_base@std@@UEAAPEAXI@Z 000000018004a7d0     libcpmt:cout.obj
 0002:000157e8       $ip2state$??_Gios_base@std@@UEAAPEAXI@Z 000000018004a7e8     libcpmt:cout.obj
 0002:00015800       $unwind$??0?$basic_streambuf@DU?$char_traits@D@std@@@std@@IEAA@XZ 000000018004a800     libcpmt:cout.obj
 0002:00015818       $ip2state$??0?$basic_streambuf@DU?$char_traits@D@std@@@std@@IEAA@XZ 000000018004a818     libcpmt:cout.obj
 0002:00015830       $unwind$??1?$basic_filebuf@DU?$char_traits@D@std@@@std@@UEAA@XZ 000000018004a830     libcpmt:cout.obj
 0002:00015840       $ip2state$??1?$basic_filebuf@DU?$char_traits@D@std@@@std@@UEAA@XZ 000000018004a840     libcpmt:cout.obj
 0002:00015848       $unwind$?overflow@?$basic_filebuf@DU?$char_traits@D@std@@@std@@MEAAHH@Z 000000018004a848     libcpmt:cout.obj
 0002:00015870       $stateUnwindMap$?uflow@?$basic_filebuf@DU?$char_traits@D@std@@@std@@MEAAHXZ 000000018004a870     libcpmt:cout.obj
 0002:00015870       $stateUnwindMap$?overflow@?$basic_filebuf@DU?$char_traits@D@std@@@std@@MEAAHH@Z 000000018004a870     libcpmt:cout.obj
 0002:00015878       $ip2state$?overflow@?$basic_filebuf@DU?$char_traits@D@std@@@std@@MEAAHH@Z 000000018004a878     libcpmt:cout.obj
 0002:00015890       $unwind$?uflow@?$basic_filebuf@DU?$char_traits@D@std@@@std@@MEAAHXZ 000000018004a890     libcpmt:cout.obj
 0002:000158c0       $ip2state$?uflow@?$basic_filebuf@DU?$char_traits@D@std@@@std@@MEAAHXZ 000000018004a8c0     libcpmt:cout.obj
 0002:000158d8       $unwind$?seekoff@?$basic_filebuf@DU?$char_traits@D@std@@@std@@MEAA?AV?$fpos@U_Mbstatet@@@2@_JHH@Z 000000018004a8d8     libcpmt:cout.obj
 0002:000158ec       $unwind$?seekpos@?$basic_filebuf@DU?$char_traits@D@std@@@std@@MEAA?AV?$fpos@U_Mbstatet@@@2@V32@H@Z 000000018004a8ec     libcpmt:cout.obj
 0002:00015900       $unwind$?_Init@?$basic_filebuf@DU?$char_traits@D@std@@@std@@IEAAXPEAU_iobuf@@W4_Initfl@12@@Z 000000018004a900     libcpmt:cout.obj
 0002:0001590c       $unwind$?_Endwrite@?$basic_filebuf@DU?$char_traits@D@std@@@std@@IEAA_NXZ 000000018004a90c     libcpmt:cout.obj
 0002:00015934       $stateUnwindMap$?_Endwrite@?$basic_filebuf@DU?$char_traits@D@std@@@std@@IEAA_NXZ 000000018004a934     libcpmt:cout.obj
 0002:00015940       $ip2state$?_Endwrite@?$basic_filebuf@DU?$char_traits@D@std@@@std@@IEAA_NXZ 000000018004a940     libcpmt:cout.obj
 0002:00015958       $unwind$??1?$basic_ios@DU?$char_traits@D@std@@@std@@UEAA@XZ 000000018004a958     libcpmt:cout.obj
 0002:00015968       $ip2state$??1?$basic_ios@DU?$char_traits@D@std@@@std@@UEAA@XZ 000000018004a968     libcpmt:cout.obj
 0002:00015980       $unwind$??_G?$basic_ios@DU?$char_traits@D@std@@@std@@UEAAPEAXI@Z 000000018004a980     libcpmt:cout.obj
 0002:00015998       $ip2state$??_G?$basic_ios@DU?$char_traits@D@std@@@std@@UEAAPEAXI@Z 000000018004a998     libcpmt:cout.obj
 0002:000159b0       $unwind$??0?$basic_ostream@DU?$char_traits@D@std@@@std@@QEAA@PEAV?$basic_streambuf@DU?$char_traits@D@std@@@1@_N@Z 000000018004a9b0     libcpmt:cout.obj
 0002:000159c8       $stateUnwindMap$??0?$basic_ostream@DU?$char_traits@D@std@@@std@@QEAA@PEAV?$basic_streambuf@DU?$char_traits@D@std@@@1@_N@Z 000000018004a9c8     libcpmt:cout.obj
 0002:000159d0       $ip2state$??0?$basic_ostream@DU?$char_traits@D@std@@@std@@QEAA@PEAV?$basic_streambuf@DU?$char_traits@D@std@@@1@_N@Z 000000018004a9d0     libcpmt:cout.obj
 0002:000159e8       $unwind$??_G?$basic_ostream@DU?$char_traits@D@std@@@std@@UEAAPEAXI@Z 000000018004a9e8     libcpmt:cout.obj
 0002:00015a00       $ip2state$??_G?$basic_ostream@DU?$char_traits@D@std@@@std@@UEAAPEAXI@Z 000000018004aa00     libcpmt:cout.obj
 0002:00015a18       $unwind$??__Fcout@std@@YAXXZ 000000018004aa18     libcpmt:cout.obj
 0002:00015a28       $ip2state$??__Fcout@std@@YAXXZ 000000018004aa28     libcpmt:cout.obj
 0002:00015a40       $unwind$??$use_facet@V?$codecvt@DDU_Mbstatet@@@std@@@std@@YAAEBV?$codecvt@DDU_Mbstatet@@@0@AEBVlocale@0@@Z 000000018004aa40     libcpmt:cout.obj
 0002:00015a58       $stateUnwindMap$??$use_facet@V?$codecvt@DDU_Mbstatet@@@std@@@std@@YAAEBV?$codecvt@DDU_Mbstatet@@@0@AEBVlocale@0@@Z 000000018004aa58     libcpmt:cout.obj
 0002:00015a60       $ip2state$??$use_facet@V?$codecvt@DDU_Mbstatet@@@std@@@std@@YAAEBV?$codecvt@DDU_Mbstatet@@@0@AEBVlocale@0@@Z 000000018004aa60     libcpmt:cout.obj
 0002:00015a78       $unwind$?_Getcat@?$codecvt@DDU_Mbstatet@@@std@@SA_KPEAPEBVfacet@locale@2@PEBV42@@Z 000000018004aa78     libcpmt:cout.obj
 0002:00015a98       $stateUnwindMap$?_Getcat@?$codecvt@DDU_Mbstatet@@@std@@SA_KPEAPEBVfacet@locale@2@PEBV42@@Z 000000018004aa98     libcpmt:cout.obj
 0002:00015aa0       $ip2state$?_Getcat@?$codecvt@DDU_Mbstatet@@@std@@SA_KPEAPEBVfacet@locale@2@PEBV42@@Z 000000018004aaa0     libcpmt:cout.obj
 0002:00015ab8       $unwind$??_G_Fac_node@std@@QEAAPEAXI@Z 000000018004aab8     libcpmt:locale0.obj
 0002:00015ad4       $stateUnwindMap$??_G?$basic_ostream@DU?$char_traits@D@std@@@std@@UEAAPEAXI@Z 000000018004aad4     libcpmt:cout.obj
 0002:00015ad4       $stateUnwindMap$??_Gios_base@std@@UEAAPEAXI@Z 000000018004aad4     libcpmt:cout.obj
 0002:00015ad4       $stateUnwindMap$?_Init@ios_base@std@@IEAAXXZ 000000018004aad4     libcpmt:cout.obj
 0002:00015ad4       $stateUnwindMap$??1?$basic_ios@DU?$char_traits@D@std@@@std@@UEAA@XZ 000000018004aad4     libcpmt:cout.obj
 0002:00015ad4       $stateUnwindMap$??_Glocale@std@@QEAAPEAXI@Z 000000018004aad4     libcpmt:cout.obj
 0002:00015ad4       $stateUnwindMap$??__Fcout@std@@YAXXZ 000000018004aad4     libcpmt:cout.obj
 0002:00015ad4       $stateUnwindMap$??_G_Locimp@locale@std@@MEAAPEAXI@Z 000000018004aad4     libcpmt:locale0.obj
 0002:00015ad4       $stateUnwindMap$??__Finit_atexit@@YAXXZ 000000018004aad4     libcpmt:iosptrs.obj
 0002:00015ad4       $stateUnwindMap$??__Fclassic_locale@std@@YAXXZ 000000018004aad4     libcpmt:locale0.obj
 0002:00015ad4       $stateUnwindMap$??_G_Fac_node@std@@QEAAPEAXI@Z 000000018004aad4     libcpmt:locale0.obj
 0002:00015ad4       $stateUnwindMap$??0?$basic_streambuf@DU?$char_traits@D@std@@@std@@IEAA@XZ 000000018004aad4     libcpmt:cout.obj
 0002:00015ad4       $stateUnwindMap$??_G?$basic_ios@DU?$char_traits@D@std@@@std@@UEAAPEAXI@Z 000000018004aad4     libcpmt:cout.obj
 0002:00015ae0       $ip2state$??_G_Fac_node@std@@QEAAPEAXI@Z 000000018004aae0     libcpmt:locale0.obj
 0002:00015af8       $unwind$?_Locimp_dtor@_Locimp@locale@std@@CAXPEAV123@@Z 000000018004aaf8     libcpmt:locale0.obj
 0002:00015b14       $stateUnwindMap$?_Init@locale@std@@CAPEAV_Locimp@12@_N@Z 000000018004ab14     libcpmt:locale0.obj
 0002:00015b14       $stateUnwindMap$?_Locimp_dtor@_Locimp@locale@std@@CAXPEAV123@@Z 000000018004ab14     libcpmt:locale0.obj
 0002:00015b20       $ip2state$?_Locimp_dtor@_Locimp@locale@std@@CAXPEAV123@@Z 000000018004ab20     libcpmt:locale0.obj
 0002:00015b38       $unwind$??_G_Locimp@locale@std@@MEAAPEAXI@Z 000000018004ab38     libcpmt:locale0.obj
 0002:00015b50       $ip2state$??_G_Locimp@locale@std@@MEAAPEAXI@Z 000000018004ab50     libcpmt:locale0.obj
 0002:00015b68       $unwind$?_Init@locale@std@@CAPEAV_Locimp@12@_N@Z 000000018004ab68     libcpmt:locale0.obj
 0002:00015b80       $ip2state$?_Init@locale@std@@CAPEAV_Locimp@12@_N@Z 000000018004ab80     libcpmt:locale0.obj
 0002:00015b98       $unwind$??__Fclassic_locale@std@@YAXXZ 000000018004ab98     libcpmt:locale0.obj
 0002:00015bb0       $ip2state$??__Fclassic_locale@std@@YAXXZ 000000018004abb0     libcpmt:locale0.obj
 0002:00015bc8       $unwind$_Tolower           000000018004abc8     libcpmt:_tolower.obj
 0002:00015bd8       $unwind$_Toupper           000000018004abd8     libcpmt:_toupper.obj
 0002:00015bec       $unwind$??__Finit_atexit@@YAXXZ 000000018004abec     libcpmt:iosptrs.obj
 0002:00015c00       $ip2state$??__Finit_atexit@@YAXXZ 000000018004ac00     libcpmt:iosptrs.obj
 0002:00015c18       $unwind$__crtLCMapStringA  000000018004ac18     libcpmt:StlLCMapStringA.obj
 0002:00015c40       $xdatasym                  000000018004ac40     LIBCMT:_amdsecgs_.obj
 0002:00015c44       $unwind$__scrt_is_nonwritable_in_current_image 000000018004ac44     LIBCMT:utility.obj
 0002:00015c64       $unwind$__scrt_is_nonwritable_in_current_image$filt$0 000000018004ac64     LIBCMT:utility.obj
 0002:00015c6c       $unwind$__scrt_initialize_onexit_tables 000000018004ac6c     LIBCMT:utility.obj
 0002:00015c78       $unwind$?dllmain_crt_process_attach@@YAHQEAUHINSTANCE__@@QEAX@Z 000000018004ac78     LIBCMT:dll_dllmain.obj
 0002:00015ca4       $unwind$?dllmain_crt_process_detach@@YAH_N@Z 000000018004aca4     LIBCMT:dll_dllmain.obj
 0002:00015ccc       $unwind$?dllmain_dispatch@@YAHQEAUHINSTANCE__@@KQEAX@Z 000000018004accc     LIBCMT:dll_dllmain.obj
 0002:00015cf4       $unwind$__GSHandlerCheckCommon 000000018004acf4     LIBCMT:_gshandler_.obj
 0002:00015d00       $xdatasym                  000000018004ad00     LIBCMT:_chkstk_.obj
 0002:00015d08       $unwind$__report_securityfailure 000000018004ad08     LIBCMT:gs_report.obj
 0002:00015d10       $unwind$capture_current_context 000000018004ad10     LIBCMT:gs_report.obj
 0002:00015d1c       $unwind$capture_previous_context 000000018004ad1c     LIBCMT:gs_report.obj
 0002:00015d28       $unwind$__scrt_fastfail    000000018004ad28     LIBCMT:utility_desktop.obj
 0002:00015d38       $unwind$__isa_available_init 000000018004ad38     LIBCMT:_cpu_disp_.obj
 0002:00015d44       $unwind$__security_init_cookie 000000018004ad44     LIBCMT:gs_support.obj
 0002:00015d50       $xdatasym                  000000018004ad50     LIBCMT:_guard_dispatch_.obj
 0002:00015d58       $xdatasym                  000000018004ad58     libvcruntime:memcpy.obj
 0002:00015d5c       $unwind$__CxxCallCatchBlock 000000018004ad5c     libvcruntime:frame.obj
 0002:00015d98       $unwind$?dtor$0@?0??_Getcat@?$codecvt@DDU_Mbstatet@@@std@@SA_KPEAPEBVfacet@locale@2@PEBV42@@Z@4HA 000000018004ad98     libcpmt:cout.obj
 0002:00015d98       $unwind$?fin$1@?0??common_exit@@YAXHW4_crt_exit_cleanup_mode@@W4_crt_exit_return_mode@@@Z@4HA 000000018004ad98     libucrt:exit.obj
 0002:00015d98       $unwind$_IsNonwritableInCurrentImage$filt$0 000000018004ad98     LIBCMT:pesect.obj
 0002:00015d98       $unwind$fputc$fin$0        000000018004ad98     libucrt:fputc.obj
 0002:00015d98       $unwind$fgetc$fin$0        000000018004ad98     libucrt:fgetc.obj
 0002:00015d98       $unwind$__CxxCallCatchBlock$filt$0 000000018004ad98     libvcruntime:frame.obj
 0002:00015d98       $unwind$?fin$0@?0???$?RV<lambda_e24bbb7b643b32fcea6fa61b31d4c984>@@AEAV<lambda_275893d493268fdec8709772e3fcec0e>@@V<lambda_9d71df4d7cf3f480f8d633942495c3b0>@@@?$__crt_seh_guarded_call@H@@QEAAH$$QEAV<lambda_e24bbb7b643b32fcea6fa61b31d4c984>@@AEAV<lambda_275893d493268fdec8709772e3fcec0e>@@$$QEAV<lambda_9d71df4d7cf3f480f8d633942495c3b0>@@@Z@4HA 000000018004ad98     libucrt:onexit.obj
 0002:00015d98       $unwind$__acrt_update_thread_locale_data$fin$0 000000018004ad98     libucrt:locale_refcounting.obj
 0002:00015d98       $unwind$__acrt_initialize_lowio$fin$0 000000018004ad98     libucrt:ioinit.obj
 0002:00015d98       $unwind$?fin$0@?0???$common_lseek@_J@@YA_JH_JH@Z@4HA 000000018004ad98     libucrt:lseek.obj
 0002:00015d98       $unwind$_query_new_handler$fin$0 000000018004ad98     libucrt:new_handler.obj
 0002:00015d98       $unwind$?fin$0@?0??dllmain_crt_process_attach@@YAHQEAUHINSTANCE__@@QEAX@Z@4HA 000000018004ad98     LIBCMT:dll_dllmain.obj
 0002:00015d98       $unwind$fflush$fin$0       000000018004ad98     libucrt:fflush.obj
 0002:00015d98       $unwind$__acrt_uninitialize_locale$fin$0 000000018004ad98     libucrt:wsetlocale.obj
 0002:00015d98       $unwind$__acrt_lowio_ensure_fh_exists$fin$0 000000018004ad98     libucrt:osfinfo.obj
 0002:00015d98       $unwind$__FrameUnwindToState$filt$0 000000018004ad98     libvcruntime:frame.obj
 0002:00015d98       $unwind$?fin$0@?0???$?RV<lambda_b8c45f8f788dd370798f47cfe8ac3a86>@@AEAV<lambda_4e60a939b0d047cfe11ddc22648dfba9>@@V<lambda_332c3edc96d0294ec56c57d38c1cdfd5>@@@?$__crt_seh_guarded_call@H@@QEAAH$$QEAV<lambda_b8c45f8f788dd370798f47cfe8ac3a86>@@AEAV<lambda_4e60a939b0d047cfe11ddc22648dfba9>@@$$QEAV<lambda_332c3edc96d0294ec56c57d38c1cdfd5>@@@Z@4HA 000000018004ad98     libucrt:onexit.obj
 0002:00015d98       $unwind$__FrameUnwindToState$fin$1 000000018004ad98     libvcruntime:frame.obj
 0002:00015d98       $unwind$?fin$0@?0???$?RV<lambda_fb3a7dec4e47f37f22dae91bb15c9095>@@AEAV<lambda_698284760c8add0bfb0756c19673e34b>@@V<lambda_dfb8eca1e75fef3034a8fb18dd509707>@@@?$__crt_seh_guarded_call@X@@QEAAX$$QEAV<lambda_fb3a7dec4e47f37f22dae91bb15c9095>@@AEAV<lambda_698284760c8add0bfb0756c19673e34b>@@$$QEAV<lambda_dfb8eca1e75fef3034a8fb18dd509707>@@@Z@4HA 000000018004ad98     libucrt:per_thread_data.obj
 0002:00015d98       $unwind$?fin$0@?0???$?RV<lambda_99476a1ad63dd22509b5d3e65b0ffc95>@@AEAV<lambda_ad1ced32f4ac17aa236e5ef05d6b3b7c>@@V<lambda_f7424dd8d45958661754dc4f2697e9c3>@@@?$__crt_seh_guarded_call@X@@QEAAX$$QEAV<lambda_99476a1ad63dd22509b5d3e65b0ffc95>@@AEAV<lambda_ad1ced32f4ac17aa236e5ef05d6b3b7c>@@$$QEAV<lambda_f7424dd8d45958661754dc4f2697e9c3>@@@Z@4HA 000000018004ad98     libucrt:mbctype.obj
 0002:00015d98       $unwind$_ctrlfp$filt$0     000000018004ad98     libucrt:fpctrl.obj
 0002:00015d98       $unwind$?fin$0@?0???$?RV<lambda_d67e8342c384adda8f857579ab50b2ae>@@AEAV<lambda_30712929f77e709619002f448b6a9510>@@V<lambda_4525336fd7e478d965fb7ca7a337cad8>@@@?$__crt_seh_guarded_call@X@@QEAAX$$QEAV<lambda_d67e8342c384adda8f857579ab50b2ae>@@AEAV<lambda_30712929f77e709619002f448b6a9510>@@$$QEAV<lambda_4525336fd7e478d965fb7ca7a337cad8>@@@Z@4HA 000000018004ad98     libucrt:wsetlocale.obj
 0002:00015d98       $unwind$?fin$0@?0???$?RV<lambda_7b91131dde12e1c3dfc74ff76b3f2eac>@@AEAV<lambda_dd75445284c072d0bd3768540cc698fa>@@V<lambda_16bc4ecb55b4718497c16bceaea2ceaf>@@@?$__crt_seh_guarded_call@H@@QEAAH$$QEAV<lambda_7b91131dde12e1c3dfc74ff76b3f2eac>@@AEAV<lambda_dd75445284c072d0bd3768540cc698fa>@@$$QEAV<lambda_16bc4ecb55b4718497c16bceaea2ceaf>@@@Z@4HA 000000018004ad98     libucrt:output.obj
 0002:00015d98       $unwind$?fin$0@?0???$?RV<lambda_5df02c53a8f32f81fd64e5bbb78039f1>@@AEAV<lambda_2af78c5f5901b1372d98f9ab3177dfa6>@@AEAV<lambda_f51fe5fd7c79a33db34fc9310f277369>@@@?$__crt_seh_guarded_call@X@@QEAAX$$QEAV<lambda_5df02c53a8f32f81fd64e5bbb78039f1>@@AEAV<lambda_2af78c5f5901b1372d98f9ab3177dfa6>@@AEAV<lambda_f51fe5fd7c79a33db34fc9310f277369>@@@Z@4HA 000000018004ad98     libucrt:wsetlocale.obj
 0002:00015d98       $unwind$common_control87$filt$0 000000018004ad98     libucrt:ieee.obj
 0002:00015d98       $unwind$?filt$0@?0??common_exit@@YAXHW4_crt_exit_cleanup_mode@@W4_crt_exit_return_mode@@@Z@4HA 000000018004ad98     libucrt:exit.obj
 0002:00015d98       $unwind$?fin$0@?0???$?RV<lambda_bfedae4ebbf01fab1bb6dcc6a9e276e0>@@AEAV<lambda_2fe9b910cf3cbf4a0ab98a02ba45b3ec>@@V<lambda_237c231691f317818eb88cc1d5d642d6>@@@?$__crt_seh_guarded_call@H@@QEAAH$$QEAV<lambda_bfedae4ebbf01fab1bb6dcc6a9e276e0>@@AEAV<lambda_2fe9b910cf3cbf4a0ab98a02ba45b3ec>@@$$QEAV<lambda_237c231691f317818eb88cc1d5d642d6>@@@Z@4HA 000000018004ad98     libucrt:close.obj
 0002:00015d98       $unwind$?fin$0@?0???$?RV<lambda_5e887d1dcbef67a5eb4283622ba103bf>@@AEAV<lambda_4466841279450cc726390878d4a41900>@@V<lambda_341c25c0346d94847f1f3c463c57e077>@@@?$__crt_seh_guarded_call@X@@QEAAX$$QEAV<lambda_5e887d1dcbef67a5eb4283622ba103bf>@@AEAV<lambda_4466841279450cc726390878d4a41900>@@$$QEAV<lambda_341c25c0346d94847f1f3c463c57e077>@@@Z@4HA 000000018004ad98     libucrt:per_thread_data.obj
 0002:00015d98       $unwind$?fin$0@?0??dllmain_crt_process_detach@@YAH_N@Z@4HA 000000018004ad98     LIBCMT:dll_dllmain.obj
 0002:00015d98       $unwind$?fin$0@?0???$?RV<lambda_c36588078e9f5dfd39652860aa6b3aaf>@@AEAV<lambda_ec61778202f4f5fc7e7711acc23c3bca>@@V<lambda_dc9d2797ccde5d239b4a0efae8ebd7db>@@@?$__crt_seh_guarded_call@P6AXH@Z@@QEAAP6AXH@Z$$QEAV<lambda_c36588078e9f5dfd39652860aa6b3aaf>@@AEAV<lambda_ec61778202f4f5fc7e7711acc23c3bca>@@$$QEAV<lambda_dc9d2797ccde5d239b4a0efae8ebd7db>@@@Z@4HA 000000018004ad98     libucrt:signal.obj
 0002:00015d98       $unwind$?fin$0@?0???$?RV<lambda_7a5ef57ff966f610505f1d28a3d40618>@@AEAV<lambda_b721fa326cdb32351d23dfa67958c160>@@V<lambda_5e0fb27672408a07956fe59e48ccb2aa>@@@?$__crt_seh_guarded_call@H@@QEAAH$$QEAV<lambda_7a5ef57ff966f610505f1d28a3d40618>@@AEAV<lambda_b721fa326cdb32351d23dfa67958c160>@@$$QEAV<lambda_5e0fb27672408a07956fe59e48ccb2aa>@@@Z@4HA 000000018004ad98     libucrt:setvbuf.obj
 0002:00015d98       $unwind$_read$fin$0        000000018004ad98     libucrt:read.obj
 0002:00015d98       $unwind$?fin$0@?0???$?RV<lambda_5d4c3fee44080f75d5d9762853974fe0>@@AEAV<lambda_532e024f4337e6fc7ad266c2bef9f4ed>@@V<lambda_c87bdc10097eb2402edb8ba9bdf0697b>@@@?$__crt_seh_guarded_call@_K@@QEAA_K$$QEAV<lambda_5d4c3fee44080f75d5d9762853974fe0>@@AEAV<lambda_532e024f4337e6fc7ad266c2bef9f4ed>@@$$QEAV<lambda_c87bdc10097eb2402edb8ba9bdf0697b>@@@Z@4HA 000000018004ad98     libucrt:fwrite.obj
 0002:00015d98       $unwind$?fin$0@?0???$?RV<lambda_72d1df2b273a38828b1ce30cbf4cdab5>@@AEAV<lambda_876a65b173b8412d3a47c70a915b0cf4>@@V<lambda_41932305e351933ebe8f8be3ed8bb5dc>@@@?$__crt_seh_guarded_call@X@@QEAAX$$QEAV<lambda_72d1df2b273a38828b1ce30cbf4cdab5>@@AEAV<lambda_876a65b173b8412d3a47c70a915b0cf4>@@$$QEAV<lambda_41932305e351933ebe8f8be3ed8bb5dc>@@@Z@4HA 000000018004ad98     libucrt:per_thread_data.obj
 0002:00015d98       $unwind$?fin$0@?0???$?RV<lambda_46352004c1216016012b18bd6f87e700>@@AEAV<lambda_3bd07e1a1191394380780325891bf33f>@@V<lambda_334532d3f185bcaa59b5be82d7d22bff>@@@?$__crt_seh_guarded_call@X@@QEAAX$$QEAV<lambda_46352004c1216016012b18bd6f87e700>@@AEAV<lambda_3bd07e1a1191394380780325891bf33f>@@$$QEAV<lambda_334532d3f185bcaa59b5be82d7d22bff>@@@Z@4HA 000000018004ad98     libucrt:per_thread_data.obj
 0002:00015d98       $unwind$__DestructExceptionObject$filt$0 000000018004ad98     libvcruntime:frame.obj
 0002:00015d98       $unwind$_fcloseall$fin$0   000000018004ad98     libucrt:closeall.obj
 0002:00015d98       $unwind$fclose$fin$0       000000018004ad98     libucrt:fclose.obj
 0002:00015d98       $unwind$ungetc$fin$0       000000018004ad98     libucrt:ungetc.obj
 0002:00015d98       $unwind$?fin$0@?0???$?RV<lambda_b521505b218e5242e90febf6bfebc422>@@AEAV<lambda_6978c1fb23f02e42e1d9e99668cc68aa>@@V<lambda_314360699dd331753a4119843814e9a7>@@@?$__crt_seh_guarded_call@H@@QEAAH$$QEAV<lambda_b521505b218e5242e90febf6bfebc422>@@AEAV<lambda_6978c1fb23f02e42e1d9e99668cc68aa>@@$$QEAV<lambda_314360699dd331753a4119843814e9a7>@@@Z@4HA 000000018004ad98     libucrt:commit.obj
 0002:00015d98       $unwind$common_flush_all$fin$1 000000018004ad98     libucrt:fflush.obj
 0002:00015d98       $unwind$raise$fin$0        000000018004ad98     libucrt:signal.obj
 0002:00015d98       $unwind$__acrt_update_thread_multibyte_data$fin$0 000000018004ad98     libucrt:mbctype.obj
 0002:00015d98       $unwind$common_flush_all$fin$0 000000018004ad98     libucrt:fflush.obj
 0002:00015d98       $unwind$?dtor$0@?0???0?$basic_ostream@DU?$char_traits@D@std@@@std@@QEAA@PEAV?$basic_streambuf@DU?$char_traits@D@std@@@1@_N@Z@4HA 000000018004ad98     libcpmt:cout.obj
 0002:00015d98       $unwind$?fin$0@?0???$common_ftell@_J@@YA_JV__crt_stdio_stream@@@Z@4HA 000000018004ad98     libucrt:ftell.obj
 0002:00015d98       $unwind$_write$fin$0       000000018004ad98     libucrt:write.obj
 0002:00015d98       $unwind$?fin$0@?0???$?RV<lambda_630b2aca97f6d20d5b5ea6529ea6b6af>@@AEAV<lambda_af91936f1d075d609f72d9d8cba980af>@@V<lambda_e82fa975f615b5c7c7b0e4d178fdae67>@@@?$__crt_seh_guarded_call@H@@QEAAH$$QEAV<lambda_630b2aca97f6d20d5b5ea6529ea6b6af>@@AEAV<lambda_af91936f1d075d609f72d9d8cba980af>@@$$QEAV<lambda_e82fa975f615b5c7c7b0e4d178fdae67>@@@Z@4HA 000000018004ad98     libucrt:winapi_thunks.obj
 0002:00015d98       $unwind$?fin$0@?0??common_fseek@@YAHV__crt_stdio_stream@@_JH@Z@4HA 000000018004ad98     libucrt:fseek.obj
 0002:00015da0       $unwind$__CxxCallCatchBlock$fin$1 000000018004ada0     libvcruntime:frame.obj
 0002:00015dac       $unwind$__FrameUnwindToState 000000018004adac     libvcruntime:frame.obj
 0002:00015de8       $unwind$?FindHandler@@YAXPEAUEHExceptionRecord@@PEA_KPEAU_CONTEXT@@PEAU_xDISPATCHER_CONTEXT@@PEBU_s_FuncInfo@@EH1@Z 000000018004ade8     libvcruntime:frame.obj
 0002:00015e08       $unwind$?CatchIt@@YAXPEAUEHExceptionRecord@@PEA_KPEAU_CONTEXT@@PEAU_xDISPATCHER_CONTEXT@@PEBU_s_FuncInfo@@PEBU_s_HandlerType@@PEBU_s_CatchableType@@PEBU_s_TryBlockMapEntry@@H1EE@Z 000000018004ae08     libvcruntime:frame.obj
 0002:00015e20       $unwind$__BuildCatchObject 000000018004ae20     libvcruntime:frame.obj
 0002:00015e4c       $unwind$?xsgetn@?$basic_streambuf@DU?$char_traits@D@std@@@std@@MEAA_JPEAD_J@Z 000000018004ae4c     libcpmt:cout.obj
 0002:00015e4c       $unwind$__acrt_initialize_stdio 000000018004ae4c     libucrt:_file.obj
 0002:00015e4c       $unwind$__acrt_MessageBoxW 000000018004ae4c     libucrt:winapi_thunks.obj
 0002:00015e4c       $unwind$__acrt_GetLocaleInfoEx 000000018004ae4c     libucrt:winapi_thunks.obj
 0002:00015e4c       $unwind$__TypeMatch        000000018004ae4c     libvcruntime:frame.obj
 0002:00015e4c       $unwind$__acrt_LCIDToLocaleName 000000018004ae4c     libucrt:winapi_thunks.obj
 0002:00015e4c       $unwind$GetTableIndexFromLocaleName 000000018004ae4c     libcpmt:winapinls.obj
 0002:00015e4c       $unwind$?process@?$output_processor@_WV?$string_output_adapter@_W@__crt_stdio_output@@V?$standard_base@_WV?$string_output_adapter@_W@__crt_stdio_output@@@2@@__crt_stdio_output@@QEAAHXZ 000000018004ae4c     libucrt:output.obj
 0002:00015e4c       $unwind$__vcrt_EventSetInformation 000000018004ae4c     libvcruntime:winapi_downlevel.obj
 0002:00015e4c       $unwind$__vcrt_EventRegister 000000018004ae4c     libvcruntime:winapi_downlevel.obj
 0002:00015e4c       $unwind$TranslateName      000000018004ae4c     libucrt:getqloc_downlevel.obj
 0002:00015e4c       $unwind$__GSHandlerCheck_EH 000000018004ae4c     LIBCMT:gshandlereh.obj
 0002:00015e4c       $unwind$_initterm          000000018004ae4c     libucrt:initterm.obj
 0002:00015e64       $unwind$?FindHandlerForForeignException@@YAXPEAUEHExceptionRecord@@PEA_KPEAU_CONTEXT@@PEAU_xDISPATCHER_CONTEXT@@PEBU_s_FuncInfo@@HH1@Z 000000018004ae64     libvcruntime:frame.obj
 0002:00015e7c       $unwind$__DestructExceptionObject 000000018004ae7c     libvcruntime:frame.obj
 0002:00015ea0       $unwind$__BuildCatchObjectHelper 000000018004aea0     libvcruntime:frame.obj
 0002:00015ee0       $unwind$_CxxThrowException 000000018004aee0     libvcruntime:throw.obj
 0002:00015ef4       $unwind$?_GetEstablisherFrame@@YAPEA_KPEA_KPEAU_xDISPATCHER_CONTEXT@@PEBU_s_FuncInfo@@0@Z 000000018004aef4     libvcruntime:trnsctrl.obj
 0002:00015f0c       $unwind$?__FrameUnwindToEmptyState@@YAXPEA_KPEAU_xDISPATCHER_CONTEXT@@PEBU_s_FuncInfo@@@Z 000000018004af0c     libvcruntime:trnsctrl.obj
 0002:00015f20       $unwind$_CallSETranslator  000000018004af20     libvcruntime:trnsctrl.obj
 0002:00015f44       $unwind$_CallSETranslator$filt$0 000000018004af44     libvcruntime:trnsctrl.obj
 0002:00015f4c       $unwind$_UnwindNestedFrames 000000018004af4c     libvcruntime:trnsctrl.obj
 0002:00015f60       $unwind$__CxxFrameHandler3 000000018004af60     libvcruntime:trnsctrl.obj
 0002:00015f70       $xdatasym                  000000018004af70     libvcruntime:memset.obj
 0002:00015f78       $xdatasym                  000000018004af78     libvcruntime:memcmp.obj
 0002:00015f7c       $unwind$__acrt_stdio_end_temporary_buffering_nolock 000000018004af7c     libucrt:_sftbuf.obj
 0002:00015f7c       $unwind$__vcrt_uninitialize_winapi_thunks 000000018004af7c     libvcruntime:winapi_downlevel.obj
 0002:00015f84       $unwind$__C_specific_handler 000000018004af84     libvcruntime:_chandler_.obj
 0002:00015f84       $unwind$__InternalCxxFrameHandler 000000018004af84     libvcruntime:frame.obj
 0002:00015f84       $unwind$__acrt_locale_initialize_numeric 000000018004af84     libucrt:initnum.obj
 0002:00015fa0       $unwind$__telemetry_main_invoke_trigger 000000018004afa0     libvcruntime:telemetry.obj
 0002:00015fa0       $unwind$__telemetry_main_return_trigger 000000018004afa0     libvcruntime:telemetry.obj
 0002:00015fb8       $unwind$?_TlgEnableCallback@__vcrt_trace_logging_provider@@YAXPEBU_GUID@@KE_K1PEAU_EVENT_FILTER_DESCRIPTOR@@PEAX@Z 000000018004afb8     libvcruntime:telemetry.obj
 0002:00015fd8       $xdatasym                  000000018004afd8     libvcruntime:handlers.obj
 0002:00015fe0       $xdatasym                  000000018004afe0     libvcruntime:_jmpuwind_.obj
 0002:00015ff4       $unwind$__acrt_call_reportfault 000000018004aff4     libucrt:invalid_parameter.obj
 0002:00016014       $unwind$_invalid_parameter 000000018004b014     libucrt:invalid_parameter.obj
 0002:00016014       $unwind$__vcrt_EventWriteTransfer 000000018004b014     libvcruntime:winapi_downlevel.obj
 0002:0001602c       $unwind$_tolower_l         000000018004b02c     libucrt:tolower_toupper.obj
 0002:0001603c       $unwind$__stdio_common_vfwprintf 000000018004b03c     libucrt:output.obj
 0002:00016044       $unwind$__stdio_common_vswprintf 000000018004b044     libucrt:output.obj
 0002:00016068       $unwind$?write_string@?$stream_output_adapter@_W@__crt_stdio_output@@QEBAXQEB_WHQEAH1@Z 000000018004b068     libucrt:output.obj
 0002:00016080       $unwind$?process@?$output_processor@_WV?$stream_output_adapter@_W@__crt_stdio_output@@V?$standard_base@_WV?$stream_output_adapter@_W@__crt_stdio_output@@@2@@__crt_stdio_output@@QEAAHXZ 000000018004b080     libucrt:output.obj
 0002:00016098       $unwind$??R<lambda_dd75445284c072d0bd3768540cc698fa>@@QEBAHXZ 000000018004b098     libucrt:output.obj
 0002:000160b4       $unwind$?state_case_type@?$output_processor@_WV?$stream_output_adapter@_W@__crt_stdio_output@@V?$standard_base@_WV?$stream_output_adapter@_W@__crt_stdio_output@@@2@@__crt_stdio_output@@AEAA_NXZ 000000018004b0b4     libucrt:output.obj
 0002:000160b4       $unwind$?state_case_type@?$output_processor@_WV?$string_output_adapter@_W@__crt_stdio_output@@V?$standard_base@_WV?$string_output_adapter@_W@__crt_stdio_output@@@2@@__crt_stdio_output@@AEAA_NXZ 000000018004b0b4     libucrt:output.obj
 0002:000160d8       $unwind$?type_case_a@?$output_processor@_WV?$string_output_adapter@_W@__crt_stdio_output@@V?$standard_base@_WV?$string_output_adapter@_W@__crt_stdio_output@@@2@@__crt_stdio_output@@AEAA_NXZ 000000018004b0d8     libucrt:output.obj
 0002:000160d8       $unwind$?type_case_a@?$output_processor@_WV?$stream_output_adapter@_W@__crt_stdio_output@@V?$standard_base@_WV?$stream_output_adapter@_W@__crt_stdio_output@@@2@@__crt_stdio_output@@AEAA_NXZ 000000018004b0d8     libucrt:output.obj
 0002:000160e8       $unwind$?write_stored_string_tchar@?$output_processor@_WV?$string_output_adapter@_W@__crt_stdio_output@@V?$standard_base@_WV?$string_output_adapter@_W@__crt_stdio_output@@@2@@__crt_stdio_output@@AEAA_N_W@Z 000000018004b0e8     libucrt:output.obj
 0002:000160fc       $unwind$??$write_multiple_characters@V?$stream_output_adapter@_W@__crt_stdio_output@@D@__crt_stdio_output@@YAXAEBV?$stream_output_adapter@_W@0@DHQEAH@Z 000000018004b0fc     libucrt:output.obj
 0002:00016114       $unwind$??$write_multiple_characters@V?$string_output_adapter@_W@__crt_stdio_output@@D@__crt_stdio_output@@YAXAEBV?$string_output_adapter@_W@0@DHQEAH@Z 000000018004b114     libucrt:output.obj
 0002:00016120       $unwind$??$?RV<lambda_7b91131dde12e1c3dfc74ff76b3f2eac>@@AEAV<lambda_dd75445284c072d0bd3768540cc698fa>@@V<lambda_16bc4ecb55b4718497c16bceaea2ceaf>@@@?$__crt_seh_guarded_call@H@@QEAAH$$QEAV<lambda_7b91131dde12e1c3dfc74ff76b3f2eac>@@AEAV<lambda_dd75445284c072d0bd3768540cc698fa>@@$$QEAV<lambda_16bc4ecb55b4718497c16bceaea2ceaf>@@@Z 000000018004b120     libucrt:output.obj
 0002:00016144       $unwind$fwprintf           000000018004b144     libucrt:assert.obj
 0002:00016150       $unwind$swprintf           000000018004b150     libucrt:assert.obj
 0002:00016160       $unwind$??$common_assert_to_stderr@_W@@YAXQEB_W0I@Z 000000018004b160     libucrt:assert.obj
 0002:0001617c       $unwind$??$common_assert_to_message_box@_W@@YAXQEB_W0IQEAX@Z 000000018004b17c     libucrt:assert.obj
 0002:00016198       $unwind$??$common_assert_to_message_box_build_string@_W@@YAXQEA_W_KQEB_W2IQEAX@Z 000000018004b198     libucrt:assert.obj
 0002:000161b8       $unwind$fclose             000000018004b1b8     libucrt:fclose.obj
 0002:000161dc       $unwind$fflush             000000018004b1dc     libucrt:fflush.obj
 0002:00016200       $unwind$common_flush_all   000000018004b200     libucrt:fflush.obj
 0002:0001623c       $unwind$fgetc              000000018004b23c     libucrt:fgetc.obj
 0002:00016270       $unwind$fputc              000000018004b270     libucrt:fputc.obj
 0002:000162a4       $unwind$?common_fseek_binary_mode_read_only_fast_track_nolock@@YA_NV__crt_stdio_stream@@_JH@Z 000000018004b2a4     libucrt:fseek.obj
 0002:000162b0       $unwind$?common_fseek@@YAHV__crt_stdio_stream@@_JH@Z 000000018004b2b0     libucrt:fseek.obj
 0002:000162d4       $unwind$fwrite             000000018004b2d4     libucrt:fwrite.obj
 0002:000162dc       $unwind$??$?RV<lambda_5d4c3fee44080f75d5d9762853974fe0>@@AEAV<lambda_532e024f4337e6fc7ad266c2bef9f4ed>@@V<lambda_c87bdc10097eb2402edb8ba9bdf0697b>@@@?$__crt_seh_guarded_call@_K@@QEAA_K$$QEAV<lambda_5d4c3fee44080f75d5d9762853974fe0>@@AEAV<lambda_532e024f4337e6fc7ad266c2bef9f4ed>@@$$QEAV<lambda_c87bdc10097eb2402edb8ba9bdf0697b>@@@Z 000000018004b2dc     libucrt:fwrite.obj
 0002:00016300       $unwind$setvbuf            000000018004b300     libucrt:setvbuf.obj
 0002:00016308       $unwind$??$?RV<lambda_7a5ef57ff966f610505f1d28a3d40618>@@AEAV<lambda_b721fa326cdb32351d23dfa67958c160>@@V<lambda_5e0fb27672408a07956fe59e48ccb2aa>@@@?$__crt_seh_guarded_call@H@@QEAAH$$QEAV<lambda_7a5ef57ff966f610505f1d28a3d40618>@@AEAV<lambda_b721fa326cdb32351d23dfa67958c160>@@$$QEAV<lambda_5e0fb27672408a07956fe59e48ccb2aa>@@@Z 000000018004b308     libucrt:setvbuf.obj
 0002:0001632c       $unwind$ungetc             000000018004b32c     libucrt:ungetc.obj
 0002:00016350       $unwind$setlocale          000000018004b350     libucrt:setlocale.obj
 0002:00016380       $unwind$?filt$0@?0??dllmain_dispatch@@YAHQEAUHINSTANCE__@@KQEAX@Z@4HA 000000018004b380     LIBCMT:dll_dllmain.obj
 0002:00016380       $unwind$setlocale$fin$0    000000018004b380     libucrt:setlocale.obj
 0002:00016388       $unwind$call_wsetlocale    000000018004b388     libucrt:setlocale.obj
 0002:0001639c       $unwind$islower            000000018004b39c     libucrt:_ctype.obj
 0002:0001639c       $unwind$?_TlgWrite@__vcrt_trace_logging_provider@@YAJPEBU_TlgProvider_t@1@PEFBXPEBU_GUID@@2IPEAU_EVENT_DATA_DESCRIPTOR@@@Z 000000018004b39c     libvcruntime:telemetry.obj
 0002:0001639c       $unwind$_isleadbyte_l      000000018004b39c     libucrt:_wctype.obj
 0002:0001639c       $unwind$isdigit            000000018004b39c     libucrt:_ctype.obj
 0002:0001639c       $unwind$isupper            000000018004b39c     libucrt:_ctype.obj
 0002:0001639c       $unwind$?getSystemCP@@YAHH@Z 000000018004b39c     libucrt:mbctype.obj
 0002:000163a4       $unwind$__acrt_locale_initialize_ctype 000000018004b3a4     libucrt:initctype.obj
 0002:000163cc       $unwind$?divide@__crt_strtox@@YA_KAEAUbig_integer@1@AEBU21@@Z 000000018004b3cc     libucrt:strtod.obj
 0002:000163ec       $chain$5$?divide@__crt_strtox@@YA_KAEAUbig_integer@1@AEBU21@@Z 000000018004b3ec     libucrt:strtod.obj
 0002:00016400       $chain$6$?divide@__crt_strtox@@YA_KAEAUbig_integer@1@AEBU21@@Z 000000018004b400     libucrt:strtod.obj
 0002:00016410       $xdatasym                  000000018004b410     libucrt:pow.obj
 0002:00016420       $xdatasym                  000000018004b420     libucrt:powf.obj
 0002:00016430       $unwind$wcsnlen            000000018004b430     libucrt:strnlen.obj
 0002:00016438       $unwind$?common_exit@@YAXHW4_crt_exit_cleanup_mode@@W4_crt_exit_return_mode@@@Z 000000018004b438     libucrt:exit.obj
 0002:00016478       $unwind$_configure_narrow_argv 000000018004b478     libucrt:argv_parsing.obj
 0002:0001648c       $unwind$?_GetRangeOfTrysToCheck@@YAPEBU_s_TryBlockMapEntry@@PEA_KPEBU_s_FuncInfo@@HHPEAI2PEAU_xDISPATCHER_CONTEXT@@@Z 000000018004b48c     libvcruntime:trnsctrl.obj
 0002:0001648c       $unwind$??$parse_command_line@D@@YAXPEADPEAPEAD0PEA_K2@Z 000000018004b48c     libucrt:argv_parsing.obj
 0002:0001648c       $unwind$??R<lambda_4e60a939b0d047cfe11ddc22648dfba9>@@QEBAHXZ 000000018004b48c     libucrt:onexit.obj
 0002:0001648c       $unwind$TranslateName      000000018004b48c     libucrt:get_qualified_locale.obj
 0002:000164a8       $unwind$__lc_wcstolc       000000018004b4a8     libucrt:wsetlocale.obj
 0002:000164a8       $unwind$??$create_environment@D@@YAQEAPEADQEAD@Z 000000018004b4a8     libucrt:environment_initialization.obj
 0002:000164c0       $unwind$_register_onexit_function 000000018004b4c0     libucrt:onexit.obj
 0002:000164c8       $unwind$_execute_onexit_table 000000018004b4c8     libucrt:onexit.obj
 0002:000164d0       $unwind$??$?RV<lambda_b8c45f8f788dd370798f47cfe8ac3a86>@@AEAV<lambda_4e60a939b0d047cfe11ddc22648dfba9>@@V<lambda_332c3edc96d0294ec56c57d38c1cdfd5>@@@?$__crt_seh_guarded_call@H@@QEAAH$$QEAV<lambda_b8c45f8f788dd370798f47cfe8ac3a86>@@AEAV<lambda_4e60a939b0d047cfe11ddc22648dfba9>@@$$QEAV<lambda_332c3edc96d0294ec56c57d38c1cdfd5>@@@Z 000000018004b4d0     libucrt:onexit.obj
 0002:000164f4       $unwind$??$?RV<lambda_e24bbb7b643b32fcea6fa61b31d4c984>@@AEAV<lambda_275893d493268fdec8709772e3fcec0e>@@V<lambda_9d71df4d7cf3f480f8d633942495c3b0>@@@?$__crt_seh_guarded_call@H@@QEAAH$$QEAV<lambda_e24bbb7b643b32fcea6fa61b31d4c984>@@AEAV<lambda_275893d493268fdec8709772e3fcec0e>@@$$QEAV<lambda_9d71df4d7cf3f480f8d633942495c3b0>@@@Z 000000018004b4f4     libucrt:onexit.obj
 0002:00016524       $unwind$_query_new_handler 000000018004b524     libucrt:new_handler.obj
 0002:00016544       $unwind$terminate          000000018004b544     libucrt:terminate.obj
 0002:00016564       $unwind$??$parse_integer@KV?$c_string_character_source@_W@__crt_strtox@@@__crt_strtox@@YAKQEAU__crt_locale_pointers@@V?$c_string_character_source@_W@0@H_N@Z 000000018004b564     libucrt:atox.obj
 0002:00016580       $unwind$__acrt_get_sigabrt_handler 000000018004b580     libucrt:signal.obj
 0002:00016588       $unwind$raise              000000018004b588     libucrt:signal.obj
 0002:000165b4       $unwind$??$?RV<lambda_c36588078e9f5dfd39652860aa6b3aaf>@@AEAV<lambda_ec61778202f4f5fc7e7711acc23c3bca>@@V<lambda_dc9d2797ccde5d239b4a0efae8ebd7db>@@@?$__crt_seh_guarded_call@P6AXH@Z@@QEAAP6AXH@Z$$QEAV<lambda_c36588078e9f5dfd39652860aa6b3aaf>@@AEAV<lambda_ec61778202f4f5fc7e7711acc23c3bca>@@$$QEAV<lambda_dc9d2797ccde5d239b4a0efae8ebd7db>@@@Z 000000018004b5b4     libucrt:signal.obj
 0002:000165d8       $unwind$?construct_ptd_array@@YAXQEAU__acrt_ptd@@@Z 000000018004b5d8     libucrt:per_thread_data.obj
 0002:000165e0       $unwind$?destroy_ptd_array@@YAXQEAU__acrt_ptd@@@Z 000000018004b5e0     libucrt:per_thread_data.obj
 0002:000165e8       $unwind$??$?RV<lambda_72d1df2b273a38828b1ce30cbf4cdab5>@@AEAV<lambda_876a65b173b8412d3a47c70a915b0cf4>@@V<lambda_41932305e351933ebe8f8be3ed8bb5dc>@@@?$__crt_seh_guarded_call@X@@QEAAX$$QEAV<lambda_72d1df2b273a38828b1ce30cbf4cdab5>@@AEAV<lambda_876a65b173b8412d3a47c70a915b0cf4>@@$$QEAV<lambda_41932305e351933ebe8f8be3ed8bb5dc>@@@Z 000000018004b5e8     libucrt:per_thread_data.obj
 0002:0001660c       $unwind$??$?RV<lambda_5e887d1dcbef67a5eb4283622ba103bf>@@AEAV<lambda_4466841279450cc726390878d4a41900>@@V<lambda_341c25c0346d94847f1f3c463c57e077>@@@?$__crt_seh_guarded_call@X@@QEAAX$$QEAV<lambda_5e887d1dcbef67a5eb4283622ba103bf>@@AEAV<lambda_4466841279450cc726390878d4a41900>@@$$QEAV<lambda_341c25c0346d94847f1f3c463c57e077>@@@Z 000000018004b60c     libucrt:per_thread_data.obj
 0002:00016630       $unwind$??$?RV<lambda_46352004c1216016012b18bd6f87e700>@@AEAV<lambda_3bd07e1a1191394380780325891bf33f>@@V<lambda_334532d3f185bcaa59b5be82d7d22bff>@@@?$__crt_seh_guarded_call@X@@QEAAX$$QEAV<lambda_46352004c1216016012b18bd6f87e700>@@AEAV<lambda_3bd07e1a1191394380780325891bf33f>@@$$QEAV<lambda_334532d3f185bcaa59b5be82d7d22bff>@@@Z 000000018004b630     libucrt:per_thread_data.obj
 0002:00016654       $unwind$??$?RV<lambda_fb3a7dec4e47f37f22dae91bb15c9095>@@AEAV<lambda_698284760c8add0bfb0756c19673e34b>@@V<lambda_dfb8eca1e75fef3034a8fb18dd509707>@@@?$__crt_seh_guarded_call@X@@QEAAX$$QEAV<lambda_fb3a7dec4e47f37f22dae91bb15c9095>@@AEAV<lambda_698284760c8add0bfb0756c19673e34b>@@$$QEAV<lambda_dfb8eca1e75fef3034a8fb18dd509707>@@@Z 000000018004b654     libucrt:per_thread_data.obj
 0002:00016678       $unwind$_isctype_l         000000018004b678     libucrt:isctype.obj
 0002:00016694       $unwind$__acrt_LCMapStringA 000000018004b694     libucrt:lcmapstringa.obj
 0002:000166a4       $unwind$?__acrt_LCMapStringA_stat@@YAHPEAU__crt_locale_pointers@@PEB_WKPEBDHPEADHHH@Z 000000018004b6a4     libucrt:lcmapstringa.obj
 0002:000166cc       $unwind$_wsetlocale        000000018004b6cc     libucrt:wsetlocale.obj
 0002:000166d4       $unwind$_expandlocale      000000018004b6d4     libucrt:wsetlocale.obj
 0002:000166f4       $unwind$_wcscats           000000018004b6f4     libucrt:wsetlocale.obj
 0002:00016704       $unwind$_wsetlocale_set_cat 000000018004b704     libucrt:wsetlocale.obj
 0002:00016728       $unwind$_wsetlocale_get_all 000000018004b728     libucrt:wsetlocale.obj
 0002:00016744       $unwind$_wsetlocale_nolock 000000018004b744     libucrt:wsetlocale.obj
 0002:00016768       $unwind$__acrt_uninitialize_locale 000000018004b768     libucrt:wsetlocale.obj
 0002:00016788       $unwind$??R<lambda_2af78c5f5901b1372d98f9ab3177dfa6>@@QEBAXXZ 000000018004b788     libucrt:wsetlocale.obj
 0002:00016794       $unwind$??$?RV<lambda_5df02c53a8f32f81fd64e5bbb78039f1>@@AEAV<lambda_2af78c5f5901b1372d98f9ab3177dfa6>@@AEAV<lambda_f51fe5fd7c79a33db34fc9310f277369>@@@?$__crt_seh_guarded_call@X@@QEAAX$$QEAV<lambda_5df02c53a8f32f81fd64e5bbb78039f1>@@AEAV<lambda_2af78c5f5901b1372d98f9ab3177dfa6>@@AEAV<lambda_f51fe5fd7c79a33db34fc9310f277369>@@@Z 000000018004b794     libucrt:wsetlocale.obj
 0002:000167b4       $unwind$??$?RV<lambda_d67e8342c384adda8f857579ab50b2ae>@@AEAV<lambda_30712929f77e709619002f448b6a9510>@@V<lambda_4525336fd7e478d965fb7ca7a337cad8>@@@?$__crt_seh_guarded_call@X@@QEAAX$$QEAV<lambda_d67e8342c384adda8f857579ab50b2ae>@@AEAV<lambda_30712929f77e709619002f448b6a9510>@@$$QEAV<lambda_4525336fd7e478d965fb7ca7a337cad8>@@@Z 000000018004b7b4     libucrt:wsetlocale.obj
 0002:000167d8       $unwind$__crtLCMapStringEx 000000018004b7d8     libcpmt:winapinls.obj
 0002:000167d8       $unwind$__acrt_show_wide_message_box 000000018004b7d8     libucrt:crtmbox.obj
 0002:000167d8       $unwind$_mbtowc_l          000000018004b7d8     libucrt:mbtowc.obj
 0002:000167d8       $unwind$__acrt_LCMapStringEx 000000018004b7d8     libucrt:winapi_thunks.obj
 0002:000167f0       $unwind$_wctomb_s_l        000000018004b7f0     libucrt:wctomb.obj
 0002:00016800       $unwind$__acrt_fp_format   000000018004b800     libucrt:cvt.obj
 0002:0001681c       $unwind$?fp_format_nan_or_infinity@@YAHW4__acrt_fp_class@@_NPEAD_K1@Z 000000018004b81c     libucrt:cvt.obj
 0002:00016830       $unwind$?fp_format_e_internal@@YAHQEAD_KH_NIQEAU_strflt@@2QEAU__crt_locale_pointers@@@Z 000000018004b830     libucrt:cvt.obj
 0002:00016848       $unwind$?fp_format_a@@YAHQEBNPEAD_KQEAD2H_NIQEAU__crt_locale_pointers@@@Z 000000018004b848     libucrt:cvt.obj
 0002:00016864       $unwind$__dcrt_get_narrow_environment_from_os 000000018004b864     libucrt:get_environment_from_os.obj
 0002:00016864       $unwind$_wcsnicmp_l        000000018004b864     libucrt:wcsnicmp.obj
 0002:00016864       $unwind$?fp_format_f_internal@@YAHQEAD_KHQEAU_strflt@@_NQEAU__crt_locale_pointers@@@Z 000000018004b864     libucrt:cvt.obj
 0002:0001687c       $unwind$?fp_format_g@@YAHQEBNQEAD_K12H_NIQEAU__crt_locale_pointers@@@Z 000000018004b87c     libucrt:cvt.obj
 0002:00016890       $unwind$_fputwc_nolock     000000018004b890     libucrt:fputwc.obj
 0002:000168ac       $unwind$__acrt_initialize_lowio 000000018004b8ac     libucrt:ioinit.obj
 0002:000168cc       $unwind$?initialize_inherited_file_handles_nolock@@YAXXZ 000000018004b8cc     libucrt:ioinit.obj
 0002:000168e8       $unwind$?__scrt_throw_std_bad_alloc@@YAXXZ 000000018004b8e8     LIBCMT:throw_bad_alloc.obj
 0002:000168e8       $unwind$?__scrt_throw_std_bad_array_new_length@@YAXXZ 000000018004b8e8     LIBCMT:throw_bad_alloc.obj
 0002:000168e8       $unwind$?_Xlength_error@std@@YAXPEBD@Z 000000018004b8e8     libcpmt:xthrow.obj
 0002:000168e8       $unwind$?_Xbad_alloc@std@@YAXXZ 000000018004b8e8     libcpmt:xthrow.obj
 0002:000168e8       $unwind$_raise_exc         000000018004b8e8     libucrt:fpexcept.obj
 0002:000168e8       $unwind$_raise_excf        000000018004b8e8     libucrt:fpexcept.obj
 0002:000168e8       $unwind$__dcrt_lowio_initialize_console_output 000000018004b8e8     libucrt:initcon.obj
 0002:000168e8       $unwind$?_Xout_of_range@std@@YAXPEBD@Z 000000018004b8e8     libcpmt:xthrow.obj
 0002:000168f0       $unwind$_ctrlfp            000000018004b8f0     libucrt:fpctrl.obj
 0002:00016918       $unwind$wcsncpy            000000018004b918     libucrt:wcsncpy.obj
 0002:00016918       $unwind$__acrt_initialize_winapi_thunks 000000018004b918     libucrt:winapi_thunks.obj
 0002:00016918       $unwind$__vcrt_initialize_winapi_thunks 000000018004b918     libvcruntime:winapi_downlevel.obj
 0002:00016920       $unwind$__acrt_EnumSystemLocalesEx 000000018004b920     libucrt:winapi_thunks.obj
 0002:00016934       $unwind$__acrt_is_interactive 000000018004b934     libucrt:winapi_thunks.obj
 0002:00016948       $unwind$_fwrite_nolock     000000018004b948     libucrt:fwrite.obj
 0002:00016948       $unwind$?try_get_function@@YAPEAXW4function_id@?A0x49c8dc86@@QEBDQEBW4module_id@2@2@Z 000000018004b948     libvcruntime:winapi_downlevel.obj
 0002:00016948       $unwind$?write_string@?$string_output_adapter@_W@__crt_stdio_output@@QEBAXQEB_WHQEAH1@Z 000000018004b948     libucrt:output.obj
 0002:00016948       $unwind$?IsInExceptionSpec@@YAEPEAUEHExceptionRecord@@PEBU_s_ESTypeList@@@Z 000000018004b948     libvcruntime:frame.obj
 0002:00016948       $unwind$?try_get_function@@YAPEAXW4function_id@?A0x63058377@@QEBDQEBW4module_id@2@2@Z 000000018004b948     libucrt:winapi_thunks.obj
 0002:00016964       $unwind$??$?RV<lambda_630b2aca97f6d20d5b5ea6529ea6b6af>@@AEAV<lambda_af91936f1d075d609f72d9d8cba980af>@@V<lambda_e82fa975f615b5c7c7b0e4d178fdae67>@@@?$__crt_seh_guarded_call@H@@QEAAH$$QEAV<lambda_630b2aca97f6d20d5b5ea6529ea6b6af>@@AEAV<lambda_af91936f1d075d609f72d9d8cba980af>@@$$QEAV<lambda_e82fa975f615b5c7c7b0e4d178fdae67>@@@Z 000000018004b964     libucrt:winapi_thunks.obj
 0002:0001698c       $unwind$_fcloseall         000000018004b98c     libucrt:closeall.obj
 0002:000169b0       $unwind$??$?RV<lambda_bfedae4ebbf01fab1bb6dcc6a9e276e0>@@AEAV<lambda_2fe9b910cf3cbf4a0ab98a02ba45b3ec>@@V<lambda_237c231691f317818eb88cc1d5d642d6>@@@?$__crt_seh_guarded_call@H@@QEAAH$$QEAV<lambda_bfedae4ebbf01fab1bb6dcc6a9e276e0>@@AEAV<lambda_2fe9b910cf3cbf4a0ab98a02ba45b3ec>@@$$QEAV<lambda_237c231691f317818eb88cc1d5d642d6>@@@Z 000000018004b9b0     libucrt:close.obj
 0002:000169d4       $unwind$_close             000000018004b9d4     libucrt:close.obj
 0002:000169d4       $unwind$_commit            000000018004b9d4     libucrt:commit.obj
 0002:000169dc       $unwind$??$?RV<lambda_b521505b218e5242e90febf6bfebc422>@@AEAV<lambda_6978c1fb23f02e42e1d9e99668cc68aa>@@V<lambda_314360699dd331753a4119843814e9a7>@@@?$__crt_seh_guarded_call@H@@QEAAH$$QEAV<lambda_b521505b218e5242e90febf6bfebc422>@@AEAV<lambda_6978c1fb23f02e42e1d9e99668cc68aa>@@$$QEAV<lambda_314360699dd331753a4119843814e9a7>@@@Z 000000018004b9dc     libucrt:commit.obj
 0002:00016a00       $unwind$_write             000000018004ba00     libucrt:write.obj
 0002:00016a30       $unwind$_write_nolock      000000018004ba30     libucrt:write.obj
 0002:00016a48       $unwind$?write_double_translated_ansi_nolock@@YA?AUwrite_result@?A0x9c548279@@HQEBDI@Z 000000018004ba48     libucrt:write.obj
 0002:00016a68       $unwind$?write_text_ansi_nolock@@YA?AUwrite_result@?A0x9c548279@@HQEBDI@Z 000000018004ba68     libucrt:write.obj
 0002:00016a68       $unwind$?write_text_utf16le_nolock@@YA?AUwrite_result@?A0x9c548279@@HQEBDI@Z 000000018004ba68     libucrt:write.obj
 0002:00016a88       $unwind$?write_text_utf8_nolock@@YA?AUwrite_result@?A0x9c548279@@HQEBDI@Z 000000018004ba88     libucrt:write.obj
 0002:00016aac       $unwind$_raise_exc_ex      000000018004baac     libucrt:fpexcept.obj
 0002:00016aac       $unwind$?common_fseek_nolock@@YAHV__crt_stdio_stream@@_JH@Z 000000018004baac     libucrt:fseek.obj
 0002:00016aac       $unwind$??$common_refill_and_read_nolock@D@@YAHV__crt_stdio_stream@@@Z 000000018004baac     libucrt:_filbuf.obj
 0002:00016ac0       $unwind$?common_ftell_translated_utf8_nolock@@YA_JV__crt_stdio_stream@@_J@Z 000000018004bac0     libucrt:ftell.obj
 0002:00016ae4       $unwind$?common_ftell_read_mode_nolock@@YA_JV__crt_stdio_stream@@_J1@Z 000000018004bae4     libucrt:ftell.obj
 0002:00016b00       $unwind$??$common_ftell_nolock@_J@@YA_JV__crt_stdio_stream@@@Z 000000018004bb00     libucrt:ftell.obj
 0002:00016b0c       $unwind$??$common_ftell@_J@@YA_JV__crt_stdio_stream@@@Z 000000018004bb0c     libucrt:ftell.obj
 0002:00016b2c       $unwind$??$write_buffer_nolock@D@@YA_NDV__crt_stdio_stream@@@Z 000000018004bb2c     libucrt:_flsbuf.obj
 0002:00016b3c       $unwind$??$write_buffer_nolock@_W@@YA_N_WV__crt_stdio_stream@@@Z 000000018004bb3c     libucrt:_flsbuf.obj
 0002:00016b4c       $unwind$??$common_lseek@_J@@YA_JH_JH@Z 000000018004bb4c     libucrt:lseek.obj
 0002:00016b7c       $unwind$_mbstowcs_s_l      000000018004bb7c     libucrt:mbstowcs.obj
 0002:00016b94       $unwind$?_mbstowcs_l_helper@@YA_KPEA_WPEBD_KPEAU__crt_locale_pointers@@@Z 000000018004bb94     libucrt:mbstowcs.obj
 0002:00016bb0       $unwind$?_wcstombs_l_helper@@YA_KPEADPEB_W_KPEAU__crt_locale_pointers@@@Z 000000018004bbb0     libucrt:wcstombs.obj
 0002:00016bd0       $unwind$__acrt_GetLocaleInfoA 000000018004bbd0     libucrt:getlocaleinfoa.obj
 0002:00016bf0       $unwind$?InternalGetLocaleInfoA@@YAHQEAU__crt_locale_pointers@@QEB_WKQEADH@Z 000000018004bbf0     libucrt:getlocaleinfoa.obj
 0002:00016c18       $unwind$__acrt_GetStringTypeA 000000018004bc18     libucrt:getstringtypea.obj
 0002:00016c40       $unwind$__acrt_initialize_fma3 000000018004bc40     libucrt:fma3_available.obj
 0002:00016c48       $unwind$_powf_special      000000018004bc48     libucrt:pow_special.obj
 0002:00016c58       $unwind$_pow_special       000000018004bc58     libucrt:pow_special.obj
 0002:00016c64       $unwind$_wcsicmp_l         000000018004bc64     libucrt:wcsicmp.obj
 0002:00016c64       $unwind$?__SehTransFilter@@YAHPEAU_EXCEPTION_POINTERS@@PEAUEHExceptionRecord@@PEA_KPEAU_CONTEXT@@PEAU_xDISPATCHER_CONTEXT@@PEBU_s_FuncInfo@@PEAH@Z 000000018004bc64     libvcruntime:trnsctrl.obj
 0002:00016c78       $unwind$??$common_expand_argv_wildcards@D@@YAHQEAPEADQEAPEAPEAD@Z 000000018004bc78     libucrt:argv_wildcards.obj
 0002:00016c90       $unwind$__acrt_get_qualified_locale 000000018004bc90     libucrt:get_qualified_locale.obj
 0002:00016c90       $unwind$??$copy_and_add_argument_to_buffer@D@@YAHQEBD0_KAEAV?$argument_list@D@?A0xca0879c4@@@Z 000000018004bc90     libucrt:argv_wildcards.obj
 0002:00016cac       $unwind$??$expand_argument_wildcards@D@@YAHQEAD0AEAV?$argument_list@D@?A0xca0879c4@@@Z 000000018004bcac     libucrt:argv_wildcards.obj
 0002:00016ccc       $unwind$__acrt_update_thread_multibyte_data 000000018004bccc     libucrt:mbctype.obj
 0002:00016cf0       $unwind$_setmbcp_nolock    000000018004bcf0     libucrt:mbctype.obj
 0002:00016d10       $unwind$?setSBUpLow@@YAXPEAU__crt_multibyte_data@@@Z 000000018004bd10     libucrt:mbctype.obj
 0002:00016d2c       $unwind$?setmbcp_internal@@YAHH_N@Z 000000018004bd2c     libucrt:mbctype.obj
 0002:00016d3c       $unwind$??$?RV<lambda_99476a1ad63dd22509b5d3e65b0ffc95>@@AEAV<lambda_ad1ced32f4ac17aa236e5ef05d6b3b7c>@@V<lambda_f7424dd8d45958661754dc4f2697e9c3>@@@?$__crt_seh_guarded_call@X@@QEAAX$$QEAV<lambda_99476a1ad63dd22509b5d3e65b0ffc95>@@AEAV<lambda_ad1ced32f4ac17aa236e5ef05d6b3b7c>@@$$QEAV<lambda_f7424dd8d45958661754dc4f2697e9c3>@@@Z 000000018004bd3c     libucrt:mbctype.obj
 0002:00016d60       $unwind$_free_base         000000018004bd60     libucrt:free_base.obj
 0002:00016d60       $unwind$?destroy_fls@@YAXPEAX@Z 000000018004bd60     libucrt:per_thread_data.obj
 0002:00016d60       $unwind$__acrt_locale_free_lc_time_if_unreferenced 000000018004bd60     libucrt:locale_refcounting.obj
 0002:00016d60       $unwind$__acrt_locale_free_numeric 000000018004bd60     libucrt:initnum.obj
 0002:00016d68       $unwind$__acrt_update_thread_locale_data 000000018004bd68     libucrt:locale_refcounting.obj
 0002:00016d8c       $unwind$__acrt_locale_initialize_monetary 000000018004bd8c     libucrt:initmon.obj
 0002:00016da8       $unwind$__acrt_locale_free_monetary 000000018004bda8     libucrt:initmon.obj
 0002:00016db0       $unwind$__acrt_locale_free_time 000000018004bdb0     libucrt:inittime.obj
 0002:00016dc0       $unwind$?initialize_lc_time@@YA_NQEAU__crt_lc_time_data@@QEAU__crt_locale_data@@@Z 000000018004bdc0     libucrt:inittime.obj
 0002:00016ddc       $unwind$LangCountryEnumProcEx 000000018004bddc     libucrt:get_qualified_locale.obj
 0002:00016dfc       $unwind$LanguageEnumProcEx 000000018004bdfc     libucrt:get_qualified_locale.obj
 0002:00016e18       $unwind$GetLocaleNameFromDefault 000000018004be18     libucrt:get_qualified_locale.obj
 0002:00016e30       $unwind$TestDefaultCountry 000000018004be30     libucrt:get_qualified_locale.obj
 0002:00016e44       $unwind$__acrt_get_qualified_locale_downlevel 000000018004be44     libucrt:getqloc_downlevel.obj
 0002:00016e60       $unwind$LangCountryEnumProc 000000018004be60     libucrt:getqloc_downlevel.obj
 0002:00016e80       $unwind$LanguageEnumProc   000000018004be80     libucrt:getqloc_downlevel.obj
 0002:00016e9c       $unwind$CountryEnumProc    000000018004be9c     libucrt:getqloc_downlevel.obj
 0002:00016ebc       $unwind$__acrt_fltout      000000018004bebc     libucrt:cfout.obj
 0002:00016edc       $unwind$__acrt_lowio_destroy_handle_array 000000018004bedc     libucrt:osfinfo.obj
 0002:00016eec       $unwind$__acrt_lowio_ensure_fh_exists 000000018004beec     libucrt:osfinfo.obj
 0002:00016f18       $xdatasym                  000000018004bf18     libucrt:fpsr.obj
 0002:00016f20       $unwind$?GetTableIndexFromLocaleName@@YAHPEB_W@Z 000000018004bf20     libucrt:lcidtoname_downlevel.obj
 0002:00016f38       $unwind$__report_gsfailure 000000018004bf38     LIBCMT:gs_report.obj
 0002:00016f38       $unwind$_putwch_nolock     000000018004bf38     libucrt:putwch.obj
 0002:00016f40       $unwind$_read              000000018004bf40     libucrt:read.obj
 0002:00016f6c       $unwind$_read_nolock       000000018004bf6c     libucrt:read.obj
 0002:00016f84       $unwind$?translate_ansi_or_utf8_nolock@@YAHHQEAD_KQEA_W1@Z 000000018004bf84     libucrt:read.obj
 0002:00016f9c       $unwind$??$translate_text_mode_nolock@_W@@YAHHQEA_W_K@Z 000000018004bf9c     libucrt:read.obj
 0002:00016fb4       $unwind$_call_matherr      000000018004bfb4     libucrt:libm_error.obj
 0002:00016fbc       $unwind$_handle_errorf     000000018004bfbc     libucrt:libm_error.obj
 0002:00016fbc       $unwind$_handle_error      000000018004bfbc     libucrt:libm_error.obj
 0002:00016fdc       $unwind$_towlower_l        000000018004bfdc     libucrt:towlower.obj
 0002:00016fe4       $unwind$qsort              000000018004bfe4     libucrt:qsort.obj
 0002:00016ffc       $chain$4$qsort             000000018004bffc     libucrt:qsort.obj
 0002:00017020       $chain$5$qsort             000000018004c020     libucrt:qsort.obj
 0002:00017030       $unwind$?shortsort@@YAXPEAD0_KP6AHPEBX2@Z@Z 000000018004c030     libucrt:qsort.obj
 0002:00017040       $chain$2$?shortsort@@YAXPEAD0_KP6AHPEBX2@Z@Z 000000018004c040     libucrt:qsort.obj
 0002:0001705c       $chain$3$?shortsort@@YAXPEAD0_KP6AHPEBX2@Z@Z 000000018004c05c     libucrt:qsort.obj
 0002:0001706c       $unwind$strpbrk            000000018004c06c     libucrt:strpbrk.obj
 0002:00017080       $xdatasym                  000000018004c080     libucrt:log10.obj
 0002:0001708c       $unwind$common_control87   000000018004c08c     libucrt:ieee.obj
 0002:000170bc       $unwind$__acrt_LCMapStringW 000000018004c0bc     libucrt:lcmapstringw.obj
 0002:000170bc       $unwind$?fp_format_e@@YAHQEBNQEAD_K12H_NIQEAU__crt_locale_pointers@@@Z 000000018004c0bc     libucrt:cvt.obj
 0002:000170d0       $unwind$?DloadObtainSection@@YAPEAXPEAK0@Z 000000018004c0d0     DelayImp:delayhlp.obj
 0002:000170e0       $unwind$?DloadMakePermanentImageCommit@@YAXPEAX_K@Z 000000018004c0e0     DelayImp:delayhlp.obj
 0002:000170ec       $unwind$?DloadProtectSection@@YAXKPEAK@Z 000000018004c0ec     DelayImp:delayhlp.obj
 0002:000170fc       $unwind$__delayLoadHelper2 000000018004c0fc     DelayImp:delayhlp.obj
 0002:00017114       $unwind$_IsNonwritableInCurrentImage 000000018004c114     LIBCMT:pesect.obj
 0002:00017138       $unwind$atan2              000000018004c138     libucrt:atan2.obj
 0002:00017168       $xdatasym                  000000018004c168     libucrt:cos.obj
 0002:00017170       $xdatasym                  000000018004c170     libucrt:exp.obj
 0002:00017178       $unwind$fmod               000000018004c178     libucrt:fmod.obj
 0002:00017198       $xdatasym                  000000018004c198     libucrt:sin.obj
 0002:000171a0       $unwind$sqrt               000000018004c1a0     libucrt:sqrt.obj
 0002:000171a8       $xdatasym                  000000018004c1a8     libucrt:remainder_piby2_forasm.obj
 0002:000171b8       $xdatasym                  000000018004c1b8     libucrt:remainder_piby2_forfma3.obj
 0002:000171c4       $unwind$_sincos_special    000000018004c1c4     libucrt:sincos_special.obj
 0002:000171cc       $unwind$_log_special_common 000000018004c1cc     libucrt:log_special.obj
 0002:000171cc       $unwind$_exp_special       000000018004c1cc     libucrt:exp_special.obj
 0002:00018100       .edata                     000000018004d100     dealImg.exp
 0002:00018128       rgpv                       000000018004d128     dealImg.exp
 0002:0001812c       rgszName                   000000018004d12c     dealImg.exp
 0002:00018130       rgwOrd                     000000018004d130     dealImg.exp
 0002:00018132       szName                     000000018004d132     dealImg.exp
 0002:0001813f       $N00001                    000000018004d13f     dealImg.exp
 0002:00018762       .idata$6                   000000018004d762     kernel32:KERNEL32.dll
 0002:00018780       .idata$6                   000000018004d780     user32:USER32.dll
 0002:0001885c       .idata$6                   000000018004d85c     gdi32:GDI32.dll
 0002:0001887e       .idata$6                   000000018004d87e     ole32:ole32.dll
 0002:00018b02       .idata$6                   000000018004db02     GdiPlus:gdiplus.dll
 0002:00018b1c       .idata$6                   000000018004db1c     Msimg32:MSIMG32.dll
 0002:0001909e       .idata$6                   000000018004e09e     advapi32:ADVAPI32.dll
 0003:00000000       ?init@std@@3JA             000000018004f000     libcpmt:xlock.obj
 0003:00000010       ?atcount_cdecl@@3_KA       000000018004f010     libcpmt:iosptrs.obj
 0003:000000b0       ?_Tlg_Microsoft_CRTProviderProv@@3U_TlgProvider_t@__vcrt_trace_logging_provider@@A 000000018004f0b0     libvcruntime:telemetry.obj
 0003:00000100       ?__vcrt_flsindex@@3KA      000000018004f100     libvcruntime:per_thread_data.obj
 0003:000001c8       errno_no_memory            000000018004f1c8     libucrt:errno.obj
 0003:000001cc       doserrno_no_memory         000000018004f1cc     libucrt:errno.obj
 0003:000002f0       __acrt_flsindex            000000018004f2f0     libucrt:per_thread_data.obj
 0003:000002f8       _ctype_loc_style           000000018004f2f8     libucrt:wsetlocale.obj
 0003:000004b0       ?dazSupported@?1??_ctrlfp@@9@9 000000018004f4b0     libucrt:fpctrl.obj
 0003:000004c0       tzstd_program              000000018004f4c0     libucrt:timeset.obj
 0003:00000500       tzdst_program              000000018004f500     libucrt:timeset.obj
 0003:00000540       tzname_states              000000018004f540     libucrt:timeset.obj
 0003:00000780       __rgctypeflag              000000018004f780     libucrt:mbctype.obj
 0003:00000790       __rgcode_page_info         000000018004f790     libucrt:mbctype.obj
 0003:00000b98       ?dazSupported@?1??common_control87@@9@9 000000018004fb98     libucrt:ieee.obj
 0003:00000ba0       _module                    000000018004fba0     addon.obj
 0003:000012d0       ?initlocks@std@@3V_Init_locks@1@A 00000001800502d0     libcpmt:xlock.obj
 0003:000012e0       ?mtx@std@@3PAU_RTL_CRITICAL_SECTION@@A 00000001800502e0     libcpmt:xlock.obj
 0003:00001420       ?initlocks@@3V_Init_locks@std@@A 0000000180050420     libcpmt:cout.obj
 0003:00001421       ?init_cout@std@@3U_Init_cout@1@A 0000000180050421     libcpmt:cout.obj
 0003:000014a0       ?fout@std@@3V?$basic_filebuf@DU?$char_traits@D@std@@@1@A 00000001800504a0     libcpmt:cout.obj
 0003:00001550       ?_Fac_head@std@@3PEAU_Fac_node@1@EA 0000000180050550     libcpmt:locale0.obj
 0003:00001568       global_locale              0000000180050568     libcpmt:locale0.obj
 0003:00001590       ?classic_locale@std@@3Vlocale@1@A 0000000180050590     libcpmt:locale0.obj
 0003:000015a8       ?_Fac_tidy_reg@std@@3U_Fac_tidy_reg_t@1@B 00000001800505a8     libcpmt:locale0.obj
 0003:000015a9       ?registered@?1??_Setgloballocale@locale@std@@CAXPEAX@Z@4_NA 00000001800505a9     libcpmt:locale0.obj
 0003:000015c0       ?stdstr@std@@3PAPEAVios_base@1@A 00000001800505c0     libcpmt:ios.obj
 0003:00001610       ?stdopens@std@@3PADA       0000000180050610     libcpmt:ios.obj
 0003:00001620       ?atfuns_cdecl@@3PAP6AXXZA  0000000180050620     libcpmt:iosptrs.obj
 0003:000016b0       ?initlocks@std@@3V_Init_locks@1@A 00000001800506b0     libcpmt:iosptrs.obj
 0003:000016b1       ?init_atexit@@3U_Init_atexit@@A 00000001800506b1     libcpmt:iosptrs.obj
 0003:00001958       ?_Tss_mutex@@3U_RTL_CRITICAL_SECTION@@A 0000000180050958     LIBCMT:thread_safe_statics.obj
 0003:00001980       ?_Tss_cv@@3U_RTL_CONDITION_VARIABLE@@A 0000000180050980     LIBCMT:thread_safe_statics.obj
 0003:00001988       ?_Tss_event@@3PEAXEA       0000000180050988     LIBCMT:thread_safe_statics.obj
 0003:00001990       ?encoded_sleep_condition_variable_cs@@3P6AHPEAU_RTL_CONDITION_VARIABLE@@PEAU_RTL_CRITICAL_SECTION@@K@ZEA 0000000180050990     LIBCMT:thread_safe_statics.obj
 0003:00001998       ?encoded_wake_all_condition_variable@@3P6AXPEAU_RTL_CONDITION_VARIABLE@@@ZEA 0000000180050998     LIBCMT:thread_safe_statics.obj
 0003:000019b0       ?module_local_atexit_table@@3U_onexit_table_t@@A 00000001800509b0     LIBCMT:utility.obj
 0003:000019c8       ?module_local_at_quick_exit_table@@3U_onexit_table_t@@A 00000001800509c8     LIBCMT:utility.obj
 0003:000019e0       ?is_initialized_as_dll@@3_NA 00000001800509e0     LIBCMT:utility.obj
 0003:000019e4       ?__proc_attached@@3HA      00000001800509e4     LIBCMT:dll_dllmain.obj
 0003:000019f0       GS_ExceptionRecord         00000001800509f0     LIBCMT:gs_report.obj
 0003:00001a90       GS_ContextRecord           0000000180050a90     LIBCMT:gs_report.obj
 0003:00001f90       ?module_handles@@3PAPEAUHINSTANCE__@@A 0000000180050f90     libvcruntime:winapi_downlevel.obj
 0003:00001fb0       ?encoded_function_pointers@@3PAPEAXA 0000000180050fb0     libvcruntime:winapi_downlevel.obj
 0003:00002000       ?__vcrt_startup_thread_ptd@@3U__vcrt_ptd@@A 0000000180051000     libvcruntime:per_thread_data.obj
 0003:00002078       __vcrt_lock_table          0000000180051078     libvcruntime:locks.obj
 0003:000020a0       __vcrt_locks_initialized   00000001800510a0     libvcruntime:locks.obj
 0003:000020f0       ?heap@@3V_HeapManager@@A   00000001800510f0     libvcruntime:undname.obj
 0003:00002118       __acrt_invalid_parameter_handler 0000000180051118     libucrt:invalid_parameter.obj
 0003:00002130       __acrt_lock_table          0000000180051130     libucrt:locks.obj
 0003:00002338       __acrt_locks_initialized   0000000180051338     libucrt:locks.obj
 0003:00002354       c_termination_complete     0000000180051354     libucrt:exit.obj
 0003:00002358       thread_local_exit_callback_func 0000000180051358     libucrt:exit.obj
 0003:00002360       ?c_exit_complete@?5??common_exit@@YAXHW4_crt_exit_cleanup_mode@@W4_crt_exit_return_mode@@@Z@4_NA 0000000180051360     libucrt:exit.obj
 0003:00002370       ?program_name@?5???$common_configure_argv@D@@YAHW4_crt_argv_mode@@@Z@4PADA 0000000180051370     libucrt:argv_parsing.obj
 0003:000024c8       __acrt_new_handler         00000001800514c8     libucrt:new_handler.obj
 0003:000024d0       ctrlc_action               00000001800514d0     libucrt:signal.obj
 0003:000024d8       ctrlbreak_action           00000001800514d8     libucrt:signal.obj
 0003:000024e0       abort_action               00000001800514e0     libucrt:signal.obj
 0003:000024e8       term_action                00000001800514e8     libucrt:signal.obj
 0003:00002500       enable_percent_n           0000000180051500     libucrt:printf_count_output.obj
 0003:00002924       __acrt_app_type            0000000180051924     libucrt:report_runtime_error.obj
 0003:00002928       __acrt_error_mode          0000000180051928     libucrt:set_error_mode.obj
 0003:00002930       module_handles             0000000180051930     libucrt:winapi_thunks.obj
 0003:000029d0       encoded_function_pointers  00000001800519d0     libucrt:winapi_thunks.obj
 0003:00002ad0       ?static_enum_proc@?1??enum_system_locales_ex_nolock@@YAHQ6AHPEA_WK_J@Z@Z@4P6AH0K1@ZEA 0000000180051ad0     libucrt:winapi_thunks.obj
 0003:00002ad8       ?state_cache@?1??__acrt_is_packaged_app@@9@4JA 0000000180051ad8     libucrt:winapi_thunks.obj
 0003:00002adc       __acrt_global_new_mode     0000000180051adc     libucrt:new_mode.obj
 0003:00002b00       _tzname                    0000000180051b00     libucrt:timeset.obj
 0003:00002b10       tz_api_used                0000000180051b10     libucrt:tzset.obj
 0003:00002b20       tz_info                    0000000180051b20     libucrt:tzset.obj
 0003:00002be4       fSystemSet                 0000000180051be4     libucrt:mbctype.obj
 0003:00002bf0       ?initialized@?1??__acrt_initialize_multibyte@@9@4_NA 0000000180051bf0     libucrt:mbctype.obj
 0003:00002c20       user_matherr               0000000180051c20     libucrt:matherr.obj
 0003:00002c60       ?GenericMonospaceFontFamilyBuffer@Gdiplus@@3PAEA 0000000180051c60     addon.obj
 0003:00002c70       ?GenericTypographicStringFormatBuffer@Gdiplus@@3PAEA 0000000180051c70     addon.obj
 0003:00002c80       ?GenericSansSerifFontFamilyBuffer@Gdiplus@@3PAEA 0000000180051c80     addon.obj
 0003:00002c90       ?GenericDefaultStringFormatBuffer@Gdiplus@@3PAEA 0000000180051c90     addon.obj
 0003:00002ca0       ?GenericSerifFontFamilyBuffer@Gdiplus@@3PAEA 0000000180051ca0     addon.obj
 0003:00002cb0       ?GenericMonospaceFontFamilyBuffer@Gdiplus@@3PAEA 0000000180051cb0     dealImg.obj
 0003:00002cc0       ?GenericTypographicStringFormatBuffer@Gdiplus@@3PAEA 0000000180051cc0     dealImg.obj
 0003:00002cd0       ?GenericSansSerifFontFamilyBuffer@Gdiplus@@3PAEA 0000000180051cd0     dealImg.obj
 0003:00002ce0       ?GenericDefaultStringFormatBuffer@Gdiplus@@3PAEA 0000000180051ce0     dealImg.obj
 0003:00002cf0       ?GenericSerifFontFamilyBuffer@Gdiplus@@3PAEA 0000000180051cf0     dealImg.obj
 0004:00000000       $pdata$?TraceLoggingRegister@__vcrt_trace_logging_provider@@YAJPEBU_TlgProvider_t@1@PEBU_GUID@@P6AX1KE_K2PEAU_EVENT_FILTER_DESCRIPTOR@@PEAX@Z4@Z 0000000180052000     libvcruntime:telemetry.obj
 0004:0000000c       $pdata$?_TlgEnableCallback@__vcrt_trace_logging_provider@@YAXPEBU_GUID@@KE_K1PEAU_EVENT_FILTER_DESCRIPTOR@@PEAX@Z 000000018005200c     libvcruntime:telemetry.obj
 0004:00000018       $pdata$?_TlgWrite@__vcrt_trace_logging_provider@@YAJPEBU_TlgProvider_t@1@PEFBXPEBU_GUID@@2IPEAU_EVENT_DATA_DESCRIPTOR@@@Z 0000000180052018     libvcruntime:telemetry.obj
 0004:00000024       $pdata$??__Einitlocks@std@@YAXXZ 0000000180052024     libcpmt:xlock.obj
 0004:00000030       $pdata$??__Ecout@std@@YAXXZ 0000000180052030     libcpmt:cout.obj
 0004:0000003c       $pdata$??__Efout@std@@YAXXZ 000000018005203c     libcpmt:cout.obj
 0004:00000048       $pdata$??__Einitlocks@@YAXXZ 0000000180052048     libcpmt:cout.obj
 0004:00000054       $pdata$??__Einitlocks@std@@YAXXZ 0000000180052054     libcpmt:iosptrs.obj
 0004:00000060       $pdata$??__E_AtlBaseModule@ATL@@YAXXZ 0000000180052060     atls:atlbase.obj
 0004:0000006c       $pdata$?InitAll@dealImg@@YAXV?$Local@VObject@v8@@@v8@@0@Z 000000018005206c     addon.obj
 0004:00000078       $pdata$??_Gruntime_error@std@@UEAAPEAXI@Z 0000000180052078     dealImg.obj
 0004:00000078       $pdata$??_Gexception@stdext@@UEAAPEAXI@Z 0000000180052078     dealImg.obj
 0004:00000084       $pdata$?_Deallocate@std@@YAXPEAX_K1@Z 0000000180052084     dealImg.obj
 0004:00000090       $pdata$??0_Locinfo@std@@QEAA@PEBD@Z 0000000180052090     dealImg.obj
 0004:0000009c       $pdata$??1_Locinfo@std@@QEAA@XZ 000000018005209c     dealImg.obj
 0004:000000a8       $pdata$??_G_Facet_base@std@@UEAAPEAXI@Z 00000001800520a8     dealImg.obj
 0004:000000b4       $pdata$?_Getcat@?$ctype@D@std@@SA_KPEAPEBVfacet@locale@2@PEBV42@@Z 00000001800520b4     dealImg.obj
 0004:000000c0       $pdata$0$?_Getcat@?$ctype@D@std@@SA_KPEAPEBVfacet@locale@2@PEBV42@@Z 00000001800520c0     dealImg.obj
 0004:000000cc       $pdata$1$?_Getcat@?$ctype@D@std@@SA_KPEAPEBVfacet@locale@2@PEBV42@@Z 00000001800520cc     dealImg.obj
 0004:000000d8       $pdata$?do_tolower@?$ctype@D@std@@MEBAPEBDPEADPEBD@Z 00000001800520d8     dealImg.obj
 0004:000000e4       $pdata$0$?do_tolower@?$ctype@D@std@@MEBAPEBDPEADPEBD@Z 00000001800520e4     dealImg.obj
 0004:000000f0       $pdata$1$?do_tolower@?$ctype@D@std@@MEBAPEBDPEADPEBD@Z 00000001800520f0     dealImg.obj
 0004:000000fc       $pdata$?do_toupper@?$ctype@D@std@@MEBAPEBDPEADPEBD@Z 00000001800520fc     dealImg.obj
 0004:00000108       $pdata$0$?do_toupper@?$ctype@D@std@@MEBAPEBDPEADPEBD@Z 0000000180052108     dealImg.obj
 0004:00000114       $pdata$1$?do_toupper@?$ctype@D@std@@MEBAPEBDPEADPEBD@Z 0000000180052114     dealImg.obj
 0004:00000120       $pdata$?do_widen@?$ctype@D@std@@MEBAPEBDPEBD0PEAD@Z 0000000180052120     dealImg.obj
 0004:0000012c       $pdata$?do_narrow@?$ctype@D@std@@MEBAPEBDPEBD0DPEAD@Z 000000018005212c     dealImg.obj
 0004:00000138       $pdata$??_G?$ctype@D@std@@MEAAPEAXI@Z 0000000180052138     dealImg.obj
 0004:00000144       $pdata$??_Gerror_category@std@@UEAAPEAXI@Z 0000000180052144     dealImg.obj
 0004:00000144       $pdata$??_G_Iostream_error_category@std@@UEAAPEAXI@Z 0000000180052144     dealImg.obj
 0004:00000150       $pdata$?equivalent@error_category@std@@UEBA_NHAEBVerror_condition@2@@Z 0000000180052150     dealImg.obj
 0004:0000015c       $pdata$??0_System_error@std@@IEAA@Verror_code@1@AEBV?$basic_string@DU?$char_traits@D@std@@V?$allocator@D@2@@1@@Z 000000018005215c     dealImg.obj
 0004:00000168       $pdata$??_Gfailure@ios_base@std@@UEAAPEAXI@Z 0000000180052168     dealImg.obj
 0004:00000168       $pdata$??_G_System_error@std@@UEAAPEAXI@Z 0000000180052168     dealImg.obj
 0004:00000174       $pdata$?message@_Iostream_error_category@std@@UEBA?AV?$basic_string@DU?$char_traits@D@std@@V?$allocator@D@2@@2@H@Z 0000000180052174     dealImg.obj
 0004:00000180       $pdata$?clear@ios_base@std@@QEAAXH_N@Z 0000000180052180     dealImg.obj
 0004:0000018c       $pdata$0$?clear@ios_base@std@@QEAAXH_N@Z 000000018005218c     dealImg.obj
 0004:00000198       $pdata$1$?clear@ios_base@std@@QEAAXH_N@Z 0000000180052198     dealImg.obj
 0004:000001a4       $pdata$2$?clear@ios_base@std@@QEAAXH_N@Z 00000001800521a4     dealImg.obj
 0004:000001b0       $pdata$?NODE_SET_PROTOTYPE_METHOD@node@@YAXV?$Local@VFunctionTemplate@v8@@@v8@@PEBDP6AXAEBV?$FunctionCallbackInfo@VValue@v8@@@3@@Z@Z 00000001800521b0     dealImg.obj
 0004:000001bc       $pdata$??1ObjectWrap@node@@UEAA@XZ 00000001800521bc     dealImg.obj
 0004:000001c8       $pdata$?Wrap@ObjectWrap@node@@IEAAXV?$Local@VObject@v8@@@v8@@@Z 00000001800521c8     dealImg.obj
 0004:000001d4       $pdata$?Ref@ObjectWrap@node@@MEAAXXZ 00000001800521d4     dealImg.obj
 0004:000001e0       $pdata$?Unref@ObjectWrap@node@@MEAAXXZ 00000001800521e0     dealImg.obj
 0004:000001ec       $pdata$?WeakCallback@ObjectWrap@node@@CAXAEBV?$WeakCallbackData@VObject@v8@@VObjectWrap@node@@@v8@@@Z 00000001800521ec     dealImg.obj
 0004:000001f8       $pdata$??_GObjectWrap@node@@UEAAPEAXI@Z 00000001800521f8     dealImg.obj
 0004:00000204       $pdata$??_GBitmap@Gdiplus@@UEAAPEAXI@Z 0000000180052204     dealImg.obj
 0004:00000204       $pdata$??_GImage@Gdiplus@@UEAAPEAXI@Z 0000000180052204     dealImg.obj
 0004:00000210       $pdata$?Clone@Image@Gdiplus@@UEAAPEAV12@XZ 0000000180052210     dealImg.obj
 0004:0000021c       $pdata$?DrawBitmap@FCImageDrawDC@@SAXPEAUHDC__@@UtagRECT@@PEAUHBITMAP__@@PEAU3@@Z 000000018005221c     dealImg.obj
 0004:00000228       $pdata$3$?DrawBitmap@FCImageDrawDC@@SAXPEAUHDC__@@UtagRECT@@PEAUHBITMAP__@@PEAU3@@Z 0000000180052228     dealImg.obj
 0004:00000234       $pdata$4$?DrawBitmap@FCImageDrawDC@@SAXPEAUHDC__@@UtagRECT@@PEAUHBITMAP__@@PEAU3@@Z 0000000180052234     dealImg.obj
 0004:00000240       $pdata$?AlphaBlendPixel@FCColor@@SAXPEAXUtagRGBQUAD@@@Z 0000000180052240     dealImg.obj
 0004:0000024c       $pdata$?RGBtoHLS@FCColor@@SAXPEBXAEAN11@Z 000000018005224c     dealImg.obj
 0004:00000258       $pdata$0$?RGBtoHLS@FCColor@@SAXPEBXAEAN11@Z 0000000180052258     dealImg.obj
 0004:00000264       $pdata$1$?RGBtoHLS@FCColor@@SAXPEBXAEAN11@Z 0000000180052264     dealImg.obj
 0004:00000270       $pdata$3$?RGBtoHLS@FCColor@@SAXPEBXAEAN11@Z 0000000180052270     dealImg.obj
 0004:0000027c       $pdata$4$?RGBtoHLS@FCColor@@SAXPEBXAEAN11@Z 000000018005227c     dealImg.obj
 0004:00000288       $pdata$?HLStoRGB@FCColor@@SA?AUtagRGBQUAD@@NNN@Z 0000000180052288     dealImg.obj
 0004:00000294       $pdata$?RGBtoHSV@FCColor@@SAXPEBXAEAN11@Z 0000000180052294     dealImg.obj
 0004:000002a0       $pdata$?HSVtoRGB@FCColor@@SA?AUtagRGBQUAD@@NNN@Z 00000001800522a0     dealImg.obj
 0004:000002ac       $pdata$0$?HSVtoRGB@FCColor@@SA?AUtagRGBQUAD@@NNN@Z 00000001800522ac     dealImg.obj
 0004:000002b8       $pdata$2$?HSVtoRGB@FCColor@@SA?AUtagRGBQUAD@@NNN@Z 00000001800522b8     dealImg.obj
 0004:000002c4       $pdata$4$?HSVtoRGB@FCColor@@SA?AUtagRGBQUAD@@NNN@Z 00000001800522c4     dealImg.obj
 0004:000002d0       $pdata$6$?HSVtoRGB@FCColor@@SA?AUtagRGBQUAD@@NNN@Z 00000001800522d0     dealImg.obj
 0004:000002dc       $pdata$8$?HSVtoRGB@FCColor@@SA?AUtagRGBQUAD@@NNN@Z 00000001800522dc     dealImg.obj
 0004:000002e8       $pdata$10$?HSVtoRGB@FCColor@@SA?AUtagRGBQUAD@@NNN@Z 00000001800522e8     dealImg.obj
 0004:000002f4       $pdata$12$?HSVtoRGB@FCColor@@SA?AUtagRGBQUAD@@NNN@Z 00000001800522f4     dealImg.obj
 0004:00000300       $pdata$13$?HSVtoRGB@FCColor@@SA?AUtagRGBQUAD@@NNN@Z 0000000180052300     dealImg.obj
 0004:0000030c       $pdata$?GetBilinear@FCColor@@SA?AUtagRGBQUAD@@NNHQEAPEAE@Z 000000018005230c     dealImg.obj
 0004:00000318       $pdata$2$?GetBilinear@FCColor@@SA?AUtagRGBQUAD@@NNHQEAPEAE@Z 0000000180052318     dealImg.obj
 0004:00000324       $pdata$3$?GetBilinear@FCColor@@SA?AUtagRGBQUAD@@NNHQEAPEAE@Z 0000000180052324     dealImg.obj
 0004:00000330       $pdata$??_GFCObjGraph@@UEAAPEAXI@Z 0000000180052330     dealImg.obj
 0004:0000033c       $pdata$??_GFCImageProperty@@UEAAPEAXI@Z 000000018005233c     dealImg.obj
 0004:00000348       $pdata$?LoadImageFile@FCImageCodec@@UEAA_NPEB_WAEAV?$vector@PEAVFCObjImage@@V?$allocator@PEAVFCObjImage@@@std@@@std@@AEAVFCImageProperty@@@Z 0000000180052348     dealImg.obj
 0004:00000354       $pdata$?LoadImageMemory@FCImageCodec@@UEAA_NPEBXHAEAV?$vector@PEAVFCObjImage@@V?$allocator@PEAVFCObjImage@@@std@@@std@@AEAVFCImageProperty@@@Z 0000000180052354     dealImg.obj
 0004:00000360       $pdata$?SaveImageFile@FCImageCodec@@UEAA_NPEB_WAEBV?$vector@PEBVFCObjImage@@V?$allocator@PEBVFCObjImage@@@std@@@std@@AEBVFCImageProperty@@@Z 0000000180052360     dealImg.obj
 0004:0000036c       $pdata$??_GFCImageCodec@@UEAAPEAXI@Z 000000018005236c     dealImg.obj
 0004:00000378       $pdata$?GetTypeByFileExt@FCImageCodecFactory@@SA?AW4IMAGE_TYPE@@PEB_W@Z 0000000180052378     dealImg.obj
 0004:00000384       $pdata$1$?GetTypeByFileExt@FCImageCodecFactory@@SA?AW4IMAGE_TYPE@@PEB_W@Z 0000000180052384     dealImg.obj
 0004:00000390       $pdata$6$?GetTypeByFileExt@FCImageCodecFactory@@SA?AW4IMAGE_TYPE@@PEB_W@Z 0000000180052390     dealImg.obj
 0004:0000039c       $pdata$7$?GetTypeByFileExt@FCImageCodecFactory@@SA?AW4IMAGE_TYPE@@PEB_W@Z 000000018005239c     dealImg.obj
 0004:000003a8       $pdata$8$?GetTypeByFileExt@FCImageCodecFactory@@SA?AW4IMAGE_TYPE@@PEB_W@Z 00000001800523a8     dealImg.obj
 0004:000003b4       $pdata$9$?GetTypeByFileExt@FCImageCodecFactory@@SA?AW4IMAGE_TYPE@@PEB_W@Z 00000001800523b4     dealImg.obj
 0004:000003c0       $pdata$??_GFCImageCodecFactory@@UEAAPEAXI@Z 00000001800523c0     dealImg.obj
 0004:000003c0       $pdata$??_GFCImageCodecFactory_Gdiplus@@UEAAPEAXI@Z 00000001800523c0     dealImg.obj
 0004:000003cc       $pdata$??_GFCImageEffect@@UEAAPEAXI@Z 00000001800523cc     dealImg.obj
 0004:000003cc       $pdata$??_GFCEffectGrayscale@@UEAAPEAXI@Z 00000001800523cc     dealImg.obj
 0004:000003d8       $pdata$?Save@FCObjImage@@QEBA_NPEB_WH@Z 00000001800523d8     dealImg.obj
 0004:000003e4       $pdata$??_GFCObjImage@@UEAAPEAXI@Z 00000001800523e4     dealImg.obj
 0004:000003f0       $pdata$?AllocPixelBuffer@FCObjImage@@AEAAXXZ 00000001800523f0     dealImg.obj
 0004:000003fc       $pdata$?Create@FCObjImage@@QEAA_NHHH@Z 00000001800523fc     dealImg.obj
 0004:00000408       $pdata$?Destroy@FCObjImage@@QEAAXXZ 0000000180052408     dealImg.obj
 0004:00000414       $pdata$?GetBits@FCObjImage@@QEBAPEAEHH@Z 0000000180052414     dealImg.obj
 0004:00000420       $pdata$?SetColorTable@FCObjImage@@QEAAXQEBUtagRGBQUAD@@@Z 0000000180052420     dealImg.obj
 0004:0000042c       $pdata$0$?SetColorTable@FCObjImage@@QEAAXQEBUtagRGBQUAD@@@Z 000000018005242c     dealImg.obj
 0004:00000438       $pdata$1$?SetColorTable@FCObjImage@@QEAAXQEBUtagRGBQUAD@@@Z 0000000180052438     dealImg.obj
 0004:00000444       $pdata$?ConvertToTrueColor@FCObjImage@@AEAAXH@Z 0000000180052444     dealImg.obj
 0004:00000450       $pdata$6$?ConvertToTrueColor@FCObjImage@@AEAAXH@Z 0000000180052450     dealImg.obj
 0004:0000045c       $pdata$7$?ConvertToTrueColor@FCObjImage@@AEAAXH@Z 000000018005245c     dealImg.obj
 0004:00000468       $pdata$8$?ConvertToTrueColor@FCObjImage@@AEAAXH@Z 0000000180052468     dealImg.obj
 0004:00000474       $pdata$9$?ConvertToTrueColor@FCObjImage@@AEAAXH@Z 0000000180052474     dealImg.obj
 0004:00000480       $pdata$10$?ConvertToTrueColor@FCObjImage@@AEAAXH@Z 0000000180052480     dealImg.obj
 0004:0000048c       $pdata$??4FCObjImage@@QEAAAEAV0@AEBV0@@Z 000000018005248c     dealImg.obj
 0004:00000498       $pdata$?Load@FCObjImage@@SA_NPEB_WAEAV?$vector@PEAVFCObjImage@@V?$allocator@PEAVFCObjImage@@@std@@@std@@PEAVFCImageProperty@@@Z 0000000180052498     dealImg.obj
 0004:000004a4       $pdata$?Load@FCObjImage@@QEAA_NPEB_WPEAVFCImageProperty@@@Z 00000001800524a4     dealImg.obj
 0004:000004b0       $pdata$?Save@FCObjImage@@QEBA_NPEB_WAEBVFCImageProperty@@@Z 00000001800524b0     dealImg.obj
 0004:000004bc       $pdata$0$?Save@FCObjImage@@QEBA_NPEB_WAEBVFCImageProperty@@@Z 00000001800524bc     dealImg.obj
 0004:000004c8       $pdata$1$?Save@FCObjImage@@QEBA_NPEB_WAEBVFCImageProperty@@@Z 00000001800524c8     dealImg.obj
 0004:000004d4       $pdata$?ApplyEffect@FCObjImage@@QEAAXAEAVFCImageEffect@@PEAVFCProgressObserver@@@Z 00000001800524d4     dealImg.obj
 0004:000004e0       $pdata$1$?ApplyEffect@FCObjImage@@QEAAXAEAVFCImageEffect@@PEAVFCProgressObserver@@@Z 00000001800524e0     dealImg.obj
 0004:000004ec       $pdata$5$?ApplyEffect@FCObjImage@@QEAAXAEAVFCImageEffect@@PEAVFCProgressObserver@@@Z 00000001800524ec     dealImg.obj
 0004:000004f8       $pdata$6$?ApplyEffect@FCObjImage@@QEAAXAEAVFCImageEffect@@PEAVFCProgressObserver@@@Z 00000001800524f8     dealImg.obj
 0004:00000504       $pdata$7$?ApplyEffect@FCObjImage@@QEAAXAEAVFCImageEffect@@PEAVFCProgressObserver@@@Z 0000000180052504     dealImg.obj
 0004:00000510       $pdata$?CreateBitmap@FCObjImage@@QEBAPEAVBitmap@Gdiplus@@H@Z 0000000180052510     dealImg.obj
 0004:0000051c       $pdata$4$?CreateBitmap@FCObjImage@@QEBAPEAVBitmap@Gdiplus@@H@Z 000000018005251c     dealImg.obj
 0004:00000528       $pdata$5$?CreateBitmap@FCObjImage@@QEBAPEAVBitmap@Gdiplus@@H@Z 0000000180052528     dealImg.obj
 0004:00000534       $pdata$6$?CreateBitmap@FCObjImage@@QEBAPEAVBitmap@Gdiplus@@H@Z 0000000180052534     dealImg.obj
 0004:00000540       $pdata$?FromBitmap@FCObjImage@@QEAA_NAEAVBitmap@Gdiplus@@@Z 0000000180052540     dealImg.obj
 0004:0000054c       $pdata$2$?FromBitmap@FCObjImage@@QEAA_NAEAVBitmap@Gdiplus@@@Z 000000018005254c     dealImg.obj
 0004:00000558       $pdata$3$?FromBitmap@FCObjImage@@QEAA_NAEAVBitmap@Gdiplus@@@Z 0000000180052558     dealImg.obj
 0004:00000564       $pdata$4$?FromBitmap@FCObjImage@@QEAA_NAEAVBitmap@Gdiplus@@@Z 0000000180052564     dealImg.obj
 0004:00000570       $pdata$5$?FromBitmap@FCObjImage@@QEAA_NAEAVBitmap@Gdiplus@@@Z 0000000180052570     dealImg.obj
 0004:0000057c       $pdata$?Draw@FCObjImage@@QEBAXPEAUHDC__@@UtagRECT@@PEAU3@@Z 000000018005257c     dealImg.obj
 0004:00000588       $pdata$5$?Draw@FCObjImage@@QEBAXPEAUHDC__@@UtagRECT@@PEAU3@@Z 0000000180052588     dealImg.obj
 0004:00000594       $pdata$6$?Draw@FCObjImage@@QEBAXPEAUHDC__@@UtagRECT@@PEAU3@@Z 0000000180052594     dealImg.obj
 0004:000005a0       $pdata$??_GFCAutoInitGDIPlus@@UEAAPEAXI@Z 00000001800525a0     dealImg.obj
 0004:000005ac       $pdata$??0FCImageCodec_Gdiplus@@QEAA@XZ 00000001800525ac     dealImg.obj
 0004:000005b8       $pdata$0$??0FCImageCodec_Gdiplus@@QEAA@XZ 00000001800525b8     dealImg.obj
 0004:000005c4       $pdata$1$??0FCImageCodec_Gdiplus@@QEAA@XZ 00000001800525c4     dealImg.obj
 0004:000005d0       $pdata$?CreateBitmapFromMemory@FCImageCodec_Gdiplus@@SAPEAVBitmap@Gdiplus@@PEBX_K@Z 00000001800525d0     dealImg.obj
 0004:000005dc       $pdata$0$?CreateBitmapFromMemory@FCImageCodec_Gdiplus@@SAPEAVBitmap@Gdiplus@@PEBX_K@Z 00000001800525dc     dealImg.obj
 0004:000005e8       $pdata$1$?CreateBitmapFromMemory@FCImageCodec_Gdiplus@@SAPEAVBitmap@Gdiplus@@PEBX_K@Z 00000001800525e8     dealImg.obj
 0004:000005f4       $pdata$?GetPropertyFromBitmap@FCImageCodec_Gdiplus@@SAXAEAVBitmap@Gdiplus@@AEAVFCImageProperty@@@Z 00000001800525f4     dealImg.obj
 0004:00000600       $pdata$1$?GetPropertyFromBitmap@FCImageCodec_Gdiplus@@SAXAEAVBitmap@Gdiplus@@AEAVFCImageProperty@@@Z 0000000180052600     dealImg.obj
 0004:0000060c       $pdata$2$?GetPropertyFromBitmap@FCImageCodec_Gdiplus@@SAXAEAVBitmap@Gdiplus@@AEAVFCImageProperty@@@Z 000000018005260c     dealImg.obj
 0004:00000618       $pdata$3$?GetPropertyFromBitmap@FCImageCodec_Gdiplus@@SAXAEAVBitmap@Gdiplus@@AEAVFCImageProperty@@@Z 0000000180052618     dealImg.obj
 0004:00000624       $pdata$4$?GetPropertyFromBitmap@FCImageCodec_Gdiplus@@SAXAEAVBitmap@Gdiplus@@AEAVFCImageProperty@@@Z 0000000180052624     dealImg.obj
 0004:00000630       $pdata$5$?GetPropertyFromBitmap@FCImageCodec_Gdiplus@@SAXAEAVBitmap@Gdiplus@@AEAVFCImageProperty@@@Z 0000000180052630     dealImg.obj
 0004:0000063c       $pdata$6$?GetPropertyFromBitmap@FCImageCodec_Gdiplus@@SAXAEAVBitmap@Gdiplus@@AEAVFCImageProperty@@@Z 000000018005263c     dealImg.obj
 0004:00000648       $pdata$7$?GetPropertyFromBitmap@FCImageCodec_Gdiplus@@SAXAEAVBitmap@Gdiplus@@AEAVFCImageProperty@@@Z 0000000180052648     dealImg.obj
 0004:00000654       $pdata$8$?GetPropertyFromBitmap@FCImageCodec_Gdiplus@@SAXAEAVBitmap@Gdiplus@@AEAVFCImageProperty@@@Z 0000000180052654     dealImg.obj
 0004:00000660       $pdata$9$?GetPropertyFromBitmap@FCImageCodec_Gdiplus@@SAXAEAVBitmap@Gdiplus@@AEAVFCImageProperty@@@Z 0000000180052660     dealImg.obj
 0004:0000066c       $pdata$?AddPropertyToBitmap@FCImageCodec_Gdiplus@@SAXAEBVFCImageProperty@@AEAVBitmap@Gdiplus@@@Z 000000018005266c     dealImg.obj
 0004:00000678       $pdata$?LoadImageFile@FCImageCodec_Gdiplus@@EEAA_NPEB_WAEAV?$vector@PEAVFCObjImage@@V?$allocator@PEAVFCObjImage@@@std@@@std@@AEAVFCImageProperty@@@Z 0000000180052678     dealImg.obj
 0004:00000684       $pdata$?LoadImageMemory@FCImageCodec_Gdiplus@@EEAA_NPEBXHAEAV?$vector@PEAVFCObjImage@@V?$allocator@PEAVFCObjImage@@@std@@@std@@AEAVFCImageProperty@@@Z 0000000180052684     dealImg.obj
 0004:00000690       $pdata$?StoreMultiFrame@FCImageCodec_Gdiplus@@CA_NAEAVBitmap@Gdiplus@@AEAV?$vector@PEAVFCObjImage@@V?$allocator@PEAVFCObjImage@@@std@@@std@@AEAVFCImageProperty@@@Z 0000000180052690     dealImg.obj
 0004:0000069c       $pdata$4$?StoreMultiFrame@FCImageCodec_Gdiplus@@CA_NAEAVBitmap@Gdiplus@@AEAV?$vector@PEAVFCObjImage@@V?$allocator@PEAVFCObjImage@@@std@@@std@@AEAVFCImageProperty@@@Z 000000018005269c     dealImg.obj
 0004:000006a8       $pdata$6$?StoreMultiFrame@FCImageCodec_Gdiplus@@CA_NAEAVBitmap@Gdiplus@@AEAV?$vector@PEAVFCObjImage@@V?$allocator@PEAVFCObjImage@@@std@@@std@@AEAVFCImageProperty@@@Z 00000001800526a8     dealImg.obj
 0004:000006b4       $pdata$?SaveImageFile@FCImageCodec_Gdiplus@@EEAA_NPEB_WAEBV?$vector@PEBVFCObjImage@@V?$allocator@PEBVFCObjImage@@@std@@@std@@AEBVFCImageProperty@@@Z 00000001800526b4     dealImg.obj
 0004:000006c0       $pdata$0$?SaveImageFile@FCImageCodec_Gdiplus@@EEAA_NPEB_WAEBV?$vector@PEBVFCObjImage@@V?$allocator@PEBVFCObjImage@@@std@@@std@@AEBVFCImageProperty@@@Z 00000001800526c0     dealImg.obj
 0004:000006cc       $pdata$1$?SaveImageFile@FCImageCodec_Gdiplus@@EEAA_NPEB_WAEBV?$vector@PEBVFCObjImage@@V?$allocator@PEBVFCObjImage@@@std@@@std@@AEBVFCImageProperty@@@Z 00000001800526cc     dealImg.obj
 0004:000006d8       $pdata$2$?SaveImageFile@FCImageCodec_Gdiplus@@EEAA_NPEB_WAEBV?$vector@PEBVFCObjImage@@V?$allocator@PEBVFCObjImage@@@std@@@std@@AEBVFCImageProperty@@@Z 00000001800526d8     dealImg.obj
 0004:000006e4       $pdata$3$?SaveImageFile@FCImageCodec_Gdiplus@@EEAA_NPEB_WAEBV?$vector@PEBVFCObjImage@@V?$allocator@PEBVFCObjImage@@@std@@@std@@AEBVFCImageProperty@@@Z 00000001800526e4     dealImg.obj
 0004:000006f0       $pdata$5$?SaveImageFile@FCImageCodec_Gdiplus@@EEAA_NPEB_WAEBV?$vector@PEBVFCObjImage@@V?$allocator@PEBVFCObjImage@@@std@@@std@@AEBVFCImageProperty@@@Z 00000001800526f0     dealImg.obj
 0004:000006fc       $pdata$?CreateStreamFromMemory@FCImageCodec_Gdiplus@@CAPEAUIStream@@PEBX_K@Z 00000001800526fc     dealImg.obj
 0004:00000708       $pdata$0$?CreateStreamFromMemory@FCImageCodec_Gdiplus@@CAPEAUIStream@@PEBX_K@Z 0000000180052708     dealImg.obj
 0004:00000714       $pdata$1$?CreateStreamFromMemory@FCImageCodec_Gdiplus@@CAPEAUIStream@@PEBX_K@Z 0000000180052714     dealImg.obj
 0004:00000720       $pdata$?GetImageEncoderClsid@FCImageCodec_Gdiplus@@CAHW4IMAGE_TYPE@@AEAU_GUID@@@Z 0000000180052720     dealImg.obj
 0004:0000072c       $pdata$0$?GetImageEncoderClsid@FCImageCodec_Gdiplus@@CAHW4IMAGE_TYPE@@AEAU_GUID@@@Z 000000018005272c     dealImg.obj
 0004:00000738       $pdata$3$?GetImageEncoderClsid@FCImageCodec_Gdiplus@@CAHW4IMAGE_TYPE@@AEAU_GUID@@@Z 0000000180052738     dealImg.obj
 0004:00000744       $pdata$4$?GetImageEncoderClsid@FCImageCodec_Gdiplus@@CAHW4IMAGE_TYPE@@AEAU_GUID@@@Z 0000000180052744     dealImg.obj
 0004:00000750       $pdata$6$?GetImageEncoderClsid@FCImageCodec_Gdiplus@@CAHW4IMAGE_TYPE@@AEAU_GUID@@@Z 0000000180052750     dealImg.obj
 0004:0000075c       $pdata$??_GFCImageCodec_Gdiplus@@UEAAPEAXI@Z 000000018005275c     dealImg.obj
 0004:00000768       $pdata$?CreateImageCodec@FCImageCodecFactory_Gdiplus@@EEAAPEAVFCImageCodec@@W4IMAGE_TYPE@@@Z 0000000180052768     dealImg.obj
 0004:00000774       $pdata$?MakeKernel@FCEffectBlur_Gauss@@AEAAXN@Z 0000000180052774     dealImg.obj
 0004:00000780       $pdata$?BlurOnePixel@FCEffectBlur_Gauss@@AEAAXPEAEPEBUtagRGBQUAD@@@Z 0000000180052780     dealImg.obj
 0004:0000078c       $pdata$?FillPadding@FCEffectBlur_Gauss@@AEAAXAEAPEAUtagRGBQUAD@@PEBX@Z 000000018005278c     dealImg.obj
 0004:00000798       $pdata$?HorizonGetLine@FCEffectBlur_Gauss@@AEAAXAEAVFCObjImage@@HPEAUtagRGBQUAD@@@Z 0000000180052798     dealImg.obj
 0004:000007a4       $pdata$0$?HorizonGetLine@FCEffectBlur_Gauss@@AEAAXAEAVFCObjImage@@HPEAUtagRGBQUAD@@@Z 00000001800527a4     dealImg.obj
 0004:000007b0       $pdata$2$?HorizonGetLine@FCEffectBlur_Gauss@@AEAAXAEAVFCObjImage@@HPEAUtagRGBQUAD@@@Z 00000001800527b0     dealImg.obj
 0004:000007bc       $pdata$4$?HorizonGetLine@FCEffectBlur_Gauss@@AEAAXAEAVFCObjImage@@HPEAUtagRGBQUAD@@@Z 00000001800527bc     dealImg.obj
 0004:000007c8       $pdata$5$?HorizonGetLine@FCEffectBlur_Gauss@@AEAAXAEAVFCObjImage@@HPEAUtagRGBQUAD@@@Z 00000001800527c8     dealImg.obj
 0004:000007d4       $pdata$6$?HorizonGetLine@FCEffectBlur_Gauss@@AEAAXAEAVFCObjImage@@HPEAUtagRGBQUAD@@@Z 00000001800527d4     dealImg.obj
 0004:000007e0       $pdata$7$?HorizonGetLine@FCEffectBlur_Gauss@@AEAAXAEAVFCObjImage@@HPEAUtagRGBQUAD@@@Z 00000001800527e0     dealImg.obj
 0004:000007ec       $pdata$?VerticalGetLine@FCEffectBlur_Gauss@@AEAAXAEAVFCObjImage@@HPEAUtagRGBQUAD@@@Z 00000001800527ec     dealImg.obj
 0004:000007f8       $pdata$0$?VerticalGetLine@FCEffectBlur_Gauss@@AEAAXAEAVFCObjImage@@HPEAUtagRGBQUAD@@@Z 00000001800527f8     dealImg.obj
 0004:00000804       $pdata$2$?VerticalGetLine@FCEffectBlur_Gauss@@AEAAXAEAVFCObjImage@@HPEAUtagRGBQUAD@@@Z 0000000180052804     dealImg.obj
 0004:00000810       $pdata$3$?VerticalGetLine@FCEffectBlur_Gauss@@AEAAXAEAVFCObjImage@@HPEAUtagRGBQUAD@@@Z 0000000180052810     dealImg.obj
 0004:0000081c       $pdata$4$?VerticalGetLine@FCEffectBlur_Gauss@@AEAAXAEAVFCObjImage@@HPEAUtagRGBQUAD@@@Z 000000018005281c     dealImg.obj
 0004:00000828       $pdata$?BlurVertical@FCEffectBlur_Gauss@@AEAAXAEAVFCObjImage@@PEAVFCProgressObserver@@@Z 0000000180052828     dealImg.obj
 0004:00000834       $pdata$3$?BlurVertical@FCEffectBlur_Gauss@@AEAAXAEAVFCObjImage@@PEAVFCProgressObserver@@@Z 0000000180052834     dealImg.obj
 0004:00000840       $pdata$4$?BlurVertical@FCEffectBlur_Gauss@@AEAAXAEAVFCObjImage@@PEAVFCProgressObserver@@@Z 0000000180052840     dealImg.obj
 0004:0000084c       $pdata$?BlurHorizon@FCEffectBlur_Gauss@@AEAAXAEAVFCObjImage@@PEAVFCProgressObserver@@@Z 000000018005284c     dealImg.obj
 0004:00000858       $pdata$4$?BlurHorizon@FCEffectBlur_Gauss@@AEAAXAEAVFCObjImage@@PEAVFCProgressObserver@@@Z 0000000180052858     dealImg.obj
 0004:00000864       $pdata$5$?BlurHorizon@FCEffectBlur_Gauss@@AEAAXAEAVFCObjImage@@PEAVFCProgressObserver@@@Z 0000000180052864     dealImg.obj
 0004:00000870       $pdata$?ProcessWholeImage@FCEffectBlur_Gauss@@EEAAXAEAVFCObjImage@@PEAVFCProgressObserver@@@Z 0000000180052870     dealImg.obj
 0004:0000087c       $pdata$??_GFCEffectBlur_Gauss@@UEAAPEAXI@Z 000000018005287c     dealImg.obj
 0004:00000888       $pdata$??_GFCEffectBlinds@@UEAAPEAXI@Z 0000000180052888     dealImg.obj
 0004:00000888       $pdata$??_GFCEffectAdjustRGB@@UEAAPEAXI@Z 0000000180052888     dealImg.obj
 0004:00000888       $pdata$??_GFCEffectAutoColorEnhance@@UEAAPEAXI@Z 0000000180052888     dealImg.obj
 0004:00000894       $pdata$??0FCEffectGetHistogram@@QEAA@XZ 0000000180052894     dealImg.obj
 0004:000008a0       $pdata$0$??0FCEffectGetHistogram@@QEAA@XZ 00000001800528a0     dealImg.obj
 0004:000008ac       $pdata$1$??0FCEffectGetHistogram@@QEAA@XZ 00000001800528ac     dealImg.obj
 0004:000008b8       $pdata$2$??0FCEffectGetHistogram@@QEAA@XZ 00000001800528b8     dealImg.obj
 0004:000008c4       $pdata$??_GFCEffectGetHistogram@@UEAAPEAXI@Z 00000001800528c4     dealImg.obj
 0004:000008d0       $pdata$??1FCEffectGetHistogram@@UEAA@XZ 00000001800528d0     dealImg.obj
 0004:000008dc       $pdata$?ProcessPixel@FCEffectMosaic@@EEAAXAEAVFCObjImage@@HHPEAE@Z 00000001800528dc     dealImg.obj
 0004:000008e8       $pdata$0$?ProcessPixel@FCEffectMosaic@@EEAAXAEAVFCObjImage@@HHPEAE@Z 00000001800528e8     dealImg.obj
 0004:000008f4       $pdata$1$?ProcessPixel@FCEffectMosaic@@EEAAXAEAVFCObjImage@@HHPEAE@Z 00000001800528f4     dealImg.obj
 0004:00000900       $pdata$2$?ProcessPixel@FCEffectMosaic@@EEAAXAEAVFCObjImage@@HHPEAE@Z 0000000180052900     dealImg.obj
 0004:0000090c       $pdata$4$?ProcessPixel@FCEffectMosaic@@EEAAXAEAVFCObjImage@@HHPEAE@Z 000000018005290c     dealImg.obj
 0004:00000918       $pdata$6$?ProcessPixel@FCEffectMosaic@@EEAAXAEAVFCObjImage@@HHPEAE@Z 0000000180052918     dealImg.obj
 0004:00000924       $pdata$8$?ProcessPixel@FCEffectMosaic@@EEAAXAEAVFCObjImage@@HHPEAE@Z 0000000180052924     dealImg.obj
 0004:00000930       $pdata$10$?ProcessPixel@FCEffectMosaic@@EEAAXAEAVFCObjImage@@HHPEAE@Z 0000000180052930     dealImg.obj
 0004:0000093c       $pdata$?GetBlockAverage@FCEffectMosaic@@AEAA?AUtagRGBQUAD@@HH@Z 000000018005293c     dealImg.obj
 0004:00000948       $pdata$0$?GetBlockAverage@FCEffectMosaic@@AEAA?AUtagRGBQUAD@@HH@Z 0000000180052948     dealImg.obj
 0004:00000954       $pdata$4$?GetBlockAverage@FCEffectMosaic@@AEAA?AUtagRGBQUAD@@HH@Z 0000000180052954     dealImg.obj
 0004:00000960       $pdata$5$?GetBlockAverage@FCEffectMosaic@@AEAA?AUtagRGBQUAD@@HH@Z 0000000180052960     dealImg.obj
 0004:0000096c       $pdata$6$?GetBlockAverage@FCEffectMosaic@@AEAA?AUtagRGBQUAD@@HH@Z 000000018005296c     dealImg.obj
 0004:00000978       $pdata$??_GFCEffectMosaic@@UEAAPEAXI@Z 0000000180052978     dealImg.obj
 0004:00000984       $pdata$??1FCEffectMosaic@@UEAA@XZ 0000000180052984     dealImg.obj
 0004:00000990       $pdata$?OnBeforeProcess@FCEffectLUT@@EEAAXAEAVFCObjImage@@@Z 0000000180052990     dealImg.obj
 0004:0000099c       $pdata$??_GFCEffectBrightnessContrast@@UEAAPEAXI@Z 000000018005299c     dealImg.obj
 0004:0000099c       $pdata$??_GFCEffectGamma@@UEAAPEAXI@Z 000000018005299c     dealImg.obj
 0004:000009a8       $pdata$?InitLUTtable@FCEffectGamma@@EEAAHH@Z 00000001800529a8     dealImg.obj
 0004:000009b4       $pdata$??_GFCEffectInvert@@UEAAPEAXI@Z 00000001800529b4     dealImg.obj
 0004:000009c0       $pdata$??0FCEffectColorTone@@QEAA@UtagRGBQUAD@@H@Z 00000001800529c0     dealImg.obj
 0004:000009cc       $pdata$?ProcessPixel@FCEffectColorTone@@EEAAXAEAVFCObjImage@@HHPEAE@Z 00000001800529cc     dealImg.obj
 0004:000009d8       $pdata$??_GFCEffectColorTone@@UEAAPEAXI@Z 00000001800529d8     dealImg.obj
 0004:000009e4       $pdata$?g_codec_factory@FCObjImage@@CAAEAV?$auto_ptr@VFCImageCodecFactory@@@std@@XZ 00000001800529e4     dealImg.obj
 0004:000009f0       $pdata$?OnBeforeProcess@FCEffectAutoContrast@@EEAAXAEAVFCObjImage@@@Z 00000001800529f0     dealImg.obj
 0004:000009fc       $pdata$1$?OnBeforeProcess@FCEffectAutoContrast@@EEAAXAEAVFCObjImage@@@Z 00000001800529fc     dealImg.obj
 0004:00000a08       $pdata$5$?OnBeforeProcess@FCEffectAutoContrast@@EEAAXAEAVFCObjImage@@@Z 0000000180052a08     dealImg.obj
 0004:00000a14       $pdata$6$?OnBeforeProcess@FCEffectAutoContrast@@EEAAXAEAVFCObjImage@@@Z 0000000180052a14     dealImg.obj
 0004:00000a20       $pdata$7$?OnBeforeProcess@FCEffectAutoContrast@@EEAAXAEAVFCObjImage@@@Z 0000000180052a20     dealImg.obj
 0004:00000a2c       $pdata$??_GFCEffectAutoContrast@@UEAAPEAXI@Z 0000000180052a2c     dealImg.obj
 0004:00000a38       $pdata$?OnBeforeProcess@FCEffectAutoColorEnhance@@EEAAXAEAVFCObjImage@@@Z 0000000180052a38     dealImg.obj
 0004:00000a44       $pdata$3$?OnBeforeProcess@FCEffectAutoColorEnhance@@EEAAXAEAVFCObjImage@@@Z 0000000180052a44     dealImg.obj
 0004:00000a50       $pdata$4$?OnBeforeProcess@FCEffectAutoColorEnhance@@EEAAXAEAVFCObjImage@@@Z 0000000180052a50     dealImg.obj
 0004:00000a5c       $pdata$?ProcessPixel@FCEffectAutoColorEnhance@@EEAAXAEAVFCObjImage@@HHPEAE@Z 0000000180052a5c     dealImg.obj
 0004:00000a68       $pdata$?ProcessPixel@FCEffectNoisify@@EEAAXAEAVFCObjImage@@HHPEAE@Z 0000000180052a68     dealImg.obj
 0004:00000a74       $pdata$?GenGauss@FCEffectNoisify@@AEAAHXZ 0000000180052a74     dealImg.obj
 0004:00000a80       $pdata$??_GFCEffectNoisify@@UEAAPEAXI@Z 0000000180052a80     dealImg.obj
 0004:00000a80       $pdata$??_GFCEffect3DGrid@@UEAAPEAXI@Z 0000000180052a80     dealImg.obj
 0004:00000a8c       $pdata$?ProcessPixel@FCEffect3DGrid@@EEAAXAEAVFCObjImage@@HHPEAE@Z 0000000180052a8c     dealImg.obj
 0004:00000a98       $pdata$?ProcessPixel@FCEffectBilinearDistort@@EEAAXAEAVFCObjImage@@HHPEAE@Z 0000000180052a98     dealImg.obj
 0004:00000aa4       $pdata$1$?ProcessPixel@FCEffectBilinearDistort@@EEAAXAEAVFCObjImage@@HHPEAE@Z 0000000180052aa4     dealImg.obj
 0004:00000ab0       $pdata$5$?ProcessPixel@FCEffectBilinearDistort@@EEAAXAEAVFCObjImage@@HHPEAE@Z 0000000180052ab0     dealImg.obj
 0004:00000abc       $pdata$6$?ProcessPixel@FCEffectBilinearDistort@@EEAAXAEAVFCObjImage@@HHPEAE@Z 0000000180052abc     dealImg.obj
 0004:00000ac8       $pdata$7$?ProcessPixel@FCEffectBilinearDistort@@EEAAXAEAVFCObjImage@@HHPEAE@Z 0000000180052ac8     dealImg.obj
 0004:00000ad4       $pdata$?calc_undistorted_coord@FCEffectWave@@EEAAXHHAEAN0@Z 0000000180052ad4     dealImg.obj
 0004:00000ae0       $pdata$??_GFCEffectBulge@@UEAAPEAXI@Z 0000000180052ae0     dealImg.obj
 0004:00000ae0       $pdata$??_GFCEffectWave@@UEAAPEAXI@Z 0000000180052ae0     dealImg.obj
 0004:00000aec       $pdata$??1FCEffectBilinearDistort@@UEAA@XZ 0000000180052aec     dealImg.obj
 0004:00000af8       $pdata$?calc_undistorted_coord@FCEffectBulge@@EEAAXHHAEAN0@Z 0000000180052af8     dealImg.obj
 0004:00000b04       $pdata$?calc_undistorted_coord@FCEffectTwist@@EEAAXHHAEAN0@Z 0000000180052b04     dealImg.obj
 0004:00000b10       $pdata$??_GFCEffectTwist@@UEAAPEAXI@Z 0000000180052b10     dealImg.obj
 0004:00000b1c       $pdata$?OnBeforeProcess@FCEffectShear@@EEAAXAEAVFCObjImage@@@Z 0000000180052b1c     dealImg.obj
 0004:00000b28       $pdata$??_GFCEffectShear@@UEAAPEAXI@Z 0000000180052b28     dealImg.obj
 0004:00000b34       $pdata$?RotatePoint@FCEffectRotate@@CAXAEAN0NNN@Z 0000000180052b34     dealImg.obj
 0004:00000b40       $pdata$?OnBeforeProcess@FCEffectRotate@@EEAAXAEAVFCObjImage@@@Z 0000000180052b40     dealImg.obj
 0004:00000b4c       $pdata$?calc_undistorted_coord@FCEffectRotate@@EEAAXHHAEAN0@Z 0000000180052b4c     dealImg.obj
 0004:00000b58       $pdata$??_GFCEffectRotate@@UEAAPEAXI@Z 0000000180052b58     dealImg.obj
 0004:00000b58       $pdata$??_GFCEffectRipple@@UEAAPEAXI@Z 0000000180052b58     dealImg.obj
 0004:00000b64       $pdata$?OnBeforeProcess@FCEffectRibbon@@EEAAXAEAVFCObjImage@@@Z 0000000180052b64     dealImg.obj
 0004:00000b70       $pdata$3$?OnBeforeProcess@FCEffectRibbon@@EEAAXAEAVFCObjImage@@@Z 0000000180052b70     dealImg.obj
 0004:00000b7c       $pdata$4$?OnBeforeProcess@FCEffectRibbon@@EEAAXAEAVFCObjImage@@@Z 0000000180052b7c     dealImg.obj
 0004:00000b88       $pdata$5$?OnBeforeProcess@FCEffectRibbon@@EEAAXAEAVFCObjImage@@@Z 0000000180052b88     dealImg.obj
 0004:00000b94       $pdata$??_GFCEffectRibbon@@UEAAPEAXI@Z 0000000180052b94     dealImg.obj
 0004:00000ba0       $pdata$?calc_undistorted_coord@FCEffectRipple@@EEAAXHHAEAN0@Z 0000000180052ba0     dealImg.obj
 0004:00000bac       $pdata$?shift_amount@FCEffectRipple@@AEBANH@Z 0000000180052bac     dealImg.obj
 0004:00000bb8       $pdata$??0FCEffectColorBalance@@QEAA@_NW4TONE_REGION@0@HHH@Z 0000000180052bb8     dealImg.obj
 0004:00000bc4       $pdata$5$??0FCEffectColorBalance@@QEAA@_NW4TONE_REGION@0@HHH@Z 0000000180052bc4     dealImg.obj
 0004:00000bd0       $pdata$6$??0FCEffectColorBalance@@QEAA@_NW4TONE_REGION@0@HHH@Z 0000000180052bd0     dealImg.obj
 0004:00000bdc       $pdata$11$??0FCEffectColorBalance@@QEAA@_NW4TONE_REGION@0@HHH@Z 0000000180052bdc     dealImg.obj
 0004:00000be8       $pdata$12$??0FCEffectColorBalance@@QEAA@_NW4TONE_REGION@0@HHH@Z 0000000180052be8     dealImg.obj
 0004:00000bf4       $pdata$13$??0FCEffectColorBalance@@QEAA@_NW4TONE_REGION@0@HHH@Z 0000000180052bf4     dealImg.obj
 0004:00000c00       $pdata$14$??0FCEffectColorBalance@@QEAA@_NW4TONE_REGION@0@HHH@Z 0000000180052c00     dealImg.obj
 0004:00000c0c       $pdata$15$??0FCEffectColorBalance@@QEAA@_NW4TONE_REGION@0@HHH@Z 0000000180052c0c     dealImg.obj
 0004:00000c18       $pdata$16$??0FCEffectColorBalance@@QEAA@_NW4TONE_REGION@0@HHH@Z 0000000180052c18     dealImg.obj
 0004:00000c24       $pdata$17$??0FCEffectColorBalance@@QEAA@_NW4TONE_REGION@0@HHH@Z 0000000180052c24     dealImg.obj
 0004:00000c30       $pdata$18$??0FCEffectColorBalance@@QEAA@_NW4TONE_REGION@0@HHH@Z 0000000180052c30     dealImg.obj
 0004:00000c3c       $pdata$19$??0FCEffectColorBalance@@QEAA@_NW4TONE_REGION@0@HHH@Z 0000000180052c3c     dealImg.obj
 0004:00000c48       $pdata$?ProcessPixel@FCEffectColorBalance@@EEAAXAEAVFCObjImage@@HHPEAE@Z 0000000180052c48     dealImg.obj
 0004:00000c54       $pdata$??_GFCEffectColorBalance@@UEAAPEAXI@Z 0000000180052c54     dealImg.obj
 0004:00000c60       $pdata$?OnBeforeProcess@FCEffectOilPaint@@EEAAXAEAVFCObjImage@@@Z 0000000180052c60     dealImg.obj
 0004:00000c6c       $pdata$3$?OnBeforeProcess@FCEffectOilPaint@@EEAAXAEAVFCObjImage@@@Z 0000000180052c6c     dealImg.obj
 0004:00000c78       $pdata$4$?OnBeforeProcess@FCEffectOilPaint@@EEAAXAEAVFCObjImage@@@Z 0000000180052c78     dealImg.obj
 0004:00000c84       $pdata$?ProcessPixel@FCEffectOilPaint@@EEAAXAEAVFCObjImage@@HHPEAE@Z 0000000180052c84     dealImg.obj
 0004:00000c90       $pdata$3$?ProcessPixel@FCEffectOilPaint@@EEAAXAEAVFCObjImage@@HHPEAE@Z 0000000180052c90     dealImg.obj
 0004:00000c9c       $pdata$5$?ProcessPixel@FCEffectOilPaint@@EEAAXAEAVFCObjImage@@HHPEAE@Z 0000000180052c9c     dealImg.obj
 0004:00000ca8       $pdata$6$?ProcessPixel@FCEffectOilPaint@@EEAAXAEAVFCObjImage@@HHPEAE@Z 0000000180052ca8     dealImg.obj
 0004:00000cb4       $pdata$7$?ProcessPixel@FCEffectOilPaint@@EEAAXAEAVFCObjImage@@HHPEAE@Z 0000000180052cb4     dealImg.obj
 0004:00000cc0       $pdata$??_GFCEffectOilPaint@@UEAAPEAXI@Z 0000000180052cc0     dealImg.obj
 0004:00000ccc       $pdata$??1FCEffectOilPaint@@UEAA@XZ 0000000180052ccc     dealImg.obj
 0004:00000cd8       $pdata$?CalculateValue@FCEffectColorLevel@@AEAAEHHH@Z 0000000180052cd8     dealImg.obj
 0004:00000ce4       $pdata$?ProcessPixel@FCEffectColorLevel@@EEAAXAEAVFCObjImage@@HHPEAE@Z 0000000180052ce4     dealImg.obj
 0004:00000cf0       $pdata$?OnBeforeProcess@FCEffectAutoColorLevel@@EEAAXAEAVFCObjImage@@@Z 0000000180052cf0     dealImg.obj
 0004:00000cfc       $pdata$?AutoColorLevelChannel@FCEffectAutoColorLevel@@AEAAXAEBV?$vector@HV?$allocator@H@std@@@std@@H@Z 0000000180052cfc     dealImg.obj
 0004:00000d08       $pdata$0$?AutoColorLevelChannel@FCEffectAutoColorLevel@@AEAAXAEBV?$vector@HV?$allocator@H@std@@@std@@H@Z 0000000180052d08     dealImg.obj
 0004:00000d14       $pdata$1$?AutoColorLevelChannel@FCEffectAutoColorLevel@@AEAAXAEBV?$vector@HV?$allocator@H@std@@@std@@H@Z 0000000180052d14     dealImg.obj
 0004:00000d20       $pdata$??_GFCEffectAutoColorLevel@@UEAAPEAXI@Z 0000000180052d20     dealImg.obj
 0004:00000d2c       $pdata$?OnBeforeProcess@FCEffectBlur_Zoom@@EEAAXAEAVFCObjImage@@@Z 0000000180052d2c     dealImg.obj
 0004:00000d38       $pdata$?ProcessPixel@FCEffectBlur_Zoom@@EEAAXAEAVFCObjImage@@HHPEAE@Z 0000000180052d38     dealImg.obj
 0004:00000d44       $pdata$??_GFCEffectBlur_Motion@@UEAAPEAXI@Z 0000000180052d44     dealImg.obj
 0004:00000d44       $pdata$??_GFCEffectBlur_Zoom@@UEAAPEAXI@Z 0000000180052d44     dealImg.obj
 0004:00000d50       $pdata$??1FCEffectBlur_Motion@@UEAA@XZ 0000000180052d50     dealImg.obj
 0004:00000d50       $pdata$??1FCEffectBlur_Zoom@@UEAA@XZ 0000000180052d50     dealImg.obj
 0004:00000d5c       $pdata$?OnBeforeProcess@FCEffectBlur_Radial@@EEAAXAEAVFCObjImage@@@Z 0000000180052d5c     dealImg.obj
 0004:00000d68       $pdata$?ProcessPixel@FCEffectBlur_Radial@@EEAAXAEAVFCObjImage@@HHPEAE@Z 0000000180052d68     dealImg.obj
 0004:00000d74       $pdata$??_GFCEffectBlur_Radial@@UEAAPEAXI@Z 0000000180052d74     dealImg.obj
 0004:00000d80       $pdata$??1FCEffectBlur_Radial@@UEAA@XZ 0000000180052d80     dealImg.obj
 0004:00000d8c       $pdata$??0FCEffectBlur_Motion@@QEAA@HH@Z 0000000180052d8c     dealImg.obj
 0004:00000d98       $pdata$?ProcessPixel@FCEffectBlur_Motion@@EEAAXAEAVFCObjImage@@HHPEAE@Z 0000000180052d98     dealImg.obj
 0004:00000da4       $pdata$??0FCEffectPencilSketch@@QEAA@HH@Z 0000000180052da4     dealImg.obj
 0004:00000db0       $pdata$??1FCEffectPencilSketch@@UEAA@XZ 0000000180052db0     dealImg.obj
 0004:00000dbc       $pdata$?OnBeforeProcess@FCEffectPencilSketch@@EEAAXAEAVFCObjImage@@@Z 0000000180052dbc     dealImg.obj
 0004:00000dc8       $pdata$?OnFinishPixel@FCEffectPencilSketch@@EEAAXAEAVFCObjImage@@HHPEAE@Z 0000000180052dc8     dealImg.obj
 0004:00000dd4       $pdata$1$?OnFinishPixel@FCEffectPencilSketch@@EEAAXAEAVFCObjImage@@HHPEAE@Z 0000000180052dd4     dealImg.obj
 0004:00000de0       $pdata$5$?OnFinishPixel@FCEffectPencilSketch@@EEAAXAEAVFCObjImage@@HHPEAE@Z 0000000180052de0     dealImg.obj
 0004:00000dec       $pdata$6$?OnFinishPixel@FCEffectPencilSketch@@EEAAXAEAVFCObjImage@@HHPEAE@Z 0000000180052dec     dealImg.obj
 0004:00000df8       $pdata$7$?OnFinishPixel@FCEffectPencilSketch@@EEAAXAEAVFCObjImage@@HHPEAE@Z 0000000180052df8     dealImg.obj
 0004:00000e04       $pdata$8$?OnFinishPixel@FCEffectPencilSketch@@EEAAXAEAVFCObjImage@@HHPEAE@Z 0000000180052e04     dealImg.obj
 0004:00000e10       $pdata$9$?OnFinishPixel@FCEffectPencilSketch@@EEAAXAEAVFCObjImage@@HHPEAE@Z 0000000180052e10     dealImg.obj
 0004:00000e1c       $pdata$10$?OnFinishPixel@FCEffectPencilSketch@@EEAAXAEAVFCObjImage@@HHPEAE@Z 0000000180052e1c     dealImg.obj
 0004:00000e28       $pdata$11$?OnFinishPixel@FCEffectPencilSketch@@EEAAXAEAVFCObjImage@@HHPEAE@Z 0000000180052e28     dealImg.obj
 0004:00000e34       $pdata$??_GFCEffectPencilSketch@@UEAAPEAXI@Z 0000000180052e34     dealImg.obj
 0004:00000e40       $pdata$??0FCEffectOldPhoto@@QEAA@HHH@Z 0000000180052e40     dealImg.obj
 0004:00000e4c       $pdata$??1FCEffectOldPhoto@@UEAA@XZ 0000000180052e4c     dealImg.obj
 0004:00000e58       $pdata$?OnBeforeProcess@FCEffectOldPhoto@@EEAAXAEAVFCObjImage@@@Z 0000000180052e58     dealImg.obj
 0004:00000e64       $pdata$?OnFinishPixel@FCEffectOldPhoto@@EEAAXAEAVFCObjImage@@HHPEAE@Z 0000000180052e64     dealImg.obj
 0004:00000e70       $pdata$1$?OnFinishPixel@FCEffectOldPhoto@@EEAAXAEAVFCObjImage@@HHPEAE@Z 0000000180052e70     dealImg.obj
 0004:00000e7c       $pdata$2$?OnFinishPixel@FCEffectOldPhoto@@EEAAXAEAVFCObjImage@@HHPEAE@Z 0000000180052e7c     dealImg.obj
 0004:00000e88       $pdata$3$?OnFinishPixel@FCEffectOldPhoto@@EEAAXAEAVFCObjImage@@HHPEAE@Z 0000000180052e88     dealImg.obj
 0004:00000e94       $pdata$??_GFCEffectOldPhoto@@UEAAPEAXI@Z 0000000180052e94     dealImg.obj
 0004:00000ea0       $pdata$?Init@set@dealImg@@SAXPEAVIsolate@v8@@@Z 0000000180052ea0     dealImg.obj
 0004:00000eac       $pdata$?New@set@dealImg@@CAXAEBV?$FunctionCallbackInfo@VValue@v8@@@v8@@@Z 0000000180052eac     dealImg.obj
 0004:00000eb8       $pdata$?NewInstance@set@dealImg@@SAXAEBV?$FunctionCallbackInfo@VValue@v8@@@v8@@@Z 0000000180052eb8     dealImg.obj
 0004:00000ec4       $pdata$??_Gset@dealImg@@EEAAPEAXI@Z 0000000180052ec4     dealImg.obj
 0004:00000ed0       $pdata$??1set@dealImg@@EEAA@XZ 0000000180052ed0     dealImg.obj
 0004:00000edc       $pdata$?AppendText@set@dealImg@@CAXPEAUuv_work_s@@@Z 0000000180052edc     dealImg.obj
 0004:00000ee8       $pdata$?DrawTextOnOtherWorkThread@set@dealImg@@CAXPEAUHDC__@@HHHHHHHPEAD1@Z 0000000180052ee8     dealImg.obj
 0004:00000ef4       $pdata$?CutImg@set@dealImg@@CAXPEAUuv_work_s@@@Z 0000000180052ef4     dealImg.obj
 0004:00000f00       $pdata$?Save@set@dealImg@@CAXAEBV?$FunctionCallbackInfo@VValue@v8@@@v8@@@Z 0000000180052f00     dealImg.obj
 0004:00000f0c       $pdata$?LoadImg@set@dealImg@@CAXAEBV?$FunctionCallbackInfo@VValue@v8@@@v8@@@Z 0000000180052f0c     dealImg.obj
 0004:00000f18       $pdata$?ChangeWchar_t@set@dealImg@@CAPEA_WPEADH@Z 0000000180052f18     dealImg.obj
 0004:00000f24       $pdata$0$?ChangeWchar_t@set@dealImg@@CAPEA_WPEADH@Z 0000000180052f24     dealImg.obj
 0004:00000f30       $pdata$1$?ChangeWchar_t@set@dealImg@@CAPEA_WPEADH@Z 0000000180052f30     dealImg.obj
 0004:00000f3c       $pdata$?CutImg@set@dealImg@@CAXAEBV?$FunctionCallbackInfo@VValue@v8@@@v8@@@Z 0000000180052f3c     dealImg.obj
 0004:00000f48       $pdata$1$?CutImg@set@dealImg@@CAXAEBV?$FunctionCallbackInfo@VValue@v8@@@v8@@@Z 0000000180052f48     dealImg.obj
 0004:00000f54       $pdata$5$?CutImg@set@dealImg@@CAXAEBV?$FunctionCallbackInfo@VValue@v8@@@v8@@@Z 0000000180052f54     dealImg.obj
 0004:00000f60       $pdata$6$?CutImg@set@dealImg@@CAXAEBV?$FunctionCallbackInfo@VValue@v8@@@v8@@@Z 0000000180052f60     dealImg.obj
 0004:00000f6c       $pdata$7$?CutImg@set@dealImg@@CAXAEBV?$FunctionCallbackInfo@VValue@v8@@@v8@@@Z 0000000180052f6c     dealImg.obj
 0004:00000f78       $pdata$?AppendText@set@dealImg@@CAXAEBV?$FunctionCallbackInfo@VValue@v8@@@v8@@@Z 0000000180052f78     dealImg.obj
 0004:00000f84       $pdata$?Effect@set@dealImg@@CAXPEAUuv_work_s@@@Z 0000000180052f84     dealImg.obj
 0004:00000f90       $pdata$?Effect@set@dealImg@@CAXAEBV?$FunctionCallbackInfo@VValue@v8@@@v8@@@Z 0000000180052f90     dealImg.obj
 0004:00000f9c       $pdata$1$?Effect@set@dealImg@@CAXAEBV?$FunctionCallbackInfo@VValue@v8@@@v8@@@Z 0000000180052f9c     dealImg.obj
 0004:00000fa8       $pdata$4$?Effect@set@dealImg@@CAXAEBV?$FunctionCallbackInfo@VValue@v8@@@v8@@@Z 0000000180052fa8     dealImg.obj
 0004:00000fb4       $pdata$5$?Effect@set@dealImg@@CAXAEBV?$FunctionCallbackInfo@VValue@v8@@@v8@@@Z 0000000180052fb4     dealImg.obj
 0004:00000fc0       $pdata$6$?Effect@set@dealImg@@CAXAEBV?$FunctionCallbackInfo@VValue@v8@@@v8@@@Z 0000000180052fc0     dealImg.obj
 0004:00000fcc       $pdata$7$?Effect@set@dealImg@@CAXAEBV?$FunctionCallbackInfo@VValue@v8@@@v8@@@Z 0000000180052fcc     dealImg.obj
 0004:00000fd8       $pdata$?WorkAsyncComplete@set@dealImg@@CAXPEAUuv_work_s@@H@Z 0000000180052fd8     dealImg.obj
 0004:00000fe4       $pdata$??1Text@set@dealImg@@QEAA@XZ 0000000180052fe4     dealImg.obj
 0004:00000ff0       $pdata$?resize@?$vector@UtagRGBQUAD@@V?$allocator@UtagRGBQUAD@@@std@@@std@@QEAAX_K@Z 0000000180052ff0     dealImg.obj
 0004:00000ffc       $pdata$?assign@?$basic_string@DU?$char_traits@D@std@@V?$allocator@D@2@@std@@QEAAAEAV12@PEBD_K@Z 0000000180052ffc     dealImg.obj
 0004:00001008       $pdata$?append@?$basic_string@DU?$char_traits@D@std@@V?$allocator@D@2@@std@@QEAAAEAV12@PEBD_K@Z 0000000180053008     dealImg.obj
 0004:00001014       $pdata$0$?append@?$basic_string@DU?$char_traits@D@std@@V?$allocator@D@2@@std@@QEAAAEAV12@PEBD_K@Z 0000000180053014     dealImg.obj
 0004:00001020       $pdata$1$?append@?$basic_string@DU?$char_traits@D@std@@V?$allocator@D@2@@std@@QEAAAEAV12@PEBD_K@Z 0000000180053020     dealImg.obj
 0004:0000102c       $pdata$2$?append@?$basic_string@DU?$char_traits@D@std@@V?$allocator@D@2@@std@@QEAAAEAV12@PEBD_K@Z 000000018005302c     dealImg.obj
 0004:00001038       $pdata$??1?$basic_string@DU?$char_traits@D@std@@V?$allocator@D@2@@std@@QEAA@XZ 0000000180053038     dealImg.obj
 0004:00001044       $pdata$?_Reserve@?$vector@PEAVFCObjImage@@V?$allocator@PEAVFCObjImage@@@std@@@std@@IEAAX_K@Z 0000000180053044     dealImg.obj
 0004:00001044       $pdata$?_Reserve@?$vector@NV?$allocator@N@std@@@std@@IEAAX_K@Z 0000000180053044     dealImg.obj
 0004:00001044       $pdata$?_Reserve@?$vector@PEAVFCImageEffect@@V?$allocator@PEAVFCImageEffect@@@std@@@std@@IEAAX_K@Z 0000000180053044     dealImg.obj
 0004:00001050       $pdata$?_Reallocate@?$vector@PEAVFCObjImage@@V?$allocator@PEAVFCObjImage@@@std@@@std@@IEAAX_K@Z 0000000180053050     dealImg.obj
 0004:00001050       $pdata$?_Reallocate@?$vector@NV?$allocator@N@std@@@std@@IEAAX_K@Z 0000000180053050     dealImg.obj
 0004:00001050       $pdata$?_Reallocate@?$vector@PEAVFCImageEffect@@V?$allocator@PEAVFCImageEffect@@@std@@@std@@IEAAX_K@Z 0000000180053050     dealImg.obj
 0004:0000105c       $pdata$?_Tidy@?$vector@V?$basic_string@DU?$char_traits@D@std@@V?$allocator@D@2@@std@@V?$allocator@V?$basic_string@DU?$char_traits@D@std@@V?$allocator@D@2@@std@@@2@@std@@IEAAXXZ 000000018005305c     dealImg.obj
 0004:00001068       $pdata$?_Reserve@?$vector@V?$basic_string@DU?$char_traits@D@std@@V?$allocator@D@2@@std@@V?$allocator@V?$basic_string@DU?$char_traits@D@std@@V?$allocator@D@2@@std@@@2@@std@@IEAAX_K@Z 0000000180053068     dealImg.obj
 0004:00001074       $pdata$?deallocate@?$_Wrap_alloc@V?$allocator@UtagRGBQUAD@@@std@@@std@@QEAAXPEAUtagRGBQUAD@@_K@Z 0000000180053074     dealImg.obj
 0004:00001074       $pdata$?deallocate@?$_Wrap_alloc@V?$allocator@H@std@@@std@@QEAAXPEAH_K@Z 0000000180053074     dealImg.obj
 0004:00001080       $pdata$?_Reserve@?$vector@HV?$allocator@H@std@@@std@@IEAAX_K@Z 0000000180053080     dealImg.obj
 0004:0000108c       $pdata$?assign@?$basic_string@_WU?$char_traits@_W@std@@V?$allocator@_W@2@@std@@QEAAAEAV12@PEB_W_K@Z 000000018005308c     dealImg.obj
 0004:00001098       $pdata$?_Assign_rv@?$basic_string@_WU?$char_traits@_W@std@@V?$allocator@_W@2@@std@@QEAAX$$QEAV12@@Z 0000000180053098     dealImg.obj
 0004:000010a4       $pdata$?assign@?$basic_string@DU?$char_traits@D@std@@V?$allocator@D@2@@std@@QEAAAEAV12@AEBV12@_K1@Z 00000001800530a4     dealImg.obj
 0004:000010b0       $pdata$?append@?$basic_string@DU?$char_traits@D@std@@V?$allocator@D@2@@std@@QEAAAEAV12@_KD@Z 00000001800530b0     dealImg.obj
 0004:000010bc       $pdata$0$?append@?$basic_string@DU?$char_traits@D@std@@V?$allocator@D@2@@std@@QEAAAEAV12@_KD@Z 00000001800530bc     dealImg.obj
 0004:000010c8       $pdata$1$?append@?$basic_string@DU?$char_traits@D@std@@V?$allocator@D@2@@std@@QEAAAEAV12@_KD@Z 00000001800530c8     dealImg.obj
 0004:000010d4       $pdata$2$?append@?$basic_string@DU?$char_traits@D@std@@V?$allocator@D@2@@std@@QEAAAEAV12@_KD@Z 00000001800530d4     dealImg.obj
 0004:000010e0       $pdata$?append@?$basic_string@DU?$char_traits@D@std@@V?$allocator@D@2@@std@@QEAAAEAV12@AEBV12@_K1@Z 00000001800530e0     dealImg.obj
 0004:000010ec       $pdata$0$?append@?$basic_string@DU?$char_traits@D@std@@V?$allocator@D@2@@std@@QEAAAEAV12@AEBV12@_K1@Z 00000001800530ec     dealImg.obj
 0004:000010f8       $pdata$1$?append@?$basic_string@DU?$char_traits@D@std@@V?$allocator@D@2@@std@@QEAAAEAV12@AEBV12@_K1@Z 00000001800530f8     dealImg.obj
 0004:00001104       $pdata$2$?append@?$basic_string@DU?$char_traits@D@std@@V?$allocator@D@2@@std@@QEAAAEAV12@AEBV12@_K1@Z 0000000180053104     dealImg.obj
 0004:00001110       $pdata$?deallocate@?$_Wrap_alloc@V?$allocator@N@std@@@std@@QEAAXPEAN_K@Z 0000000180053110     dealImg.obj
 0004:00001110       $pdata$?deallocate@?$_Wrap_alloc@V?$allocator@PEBVFCObjImage@@@std@@@std@@QEAAXPEAPEBVFCObjImage@@_K@Z 0000000180053110     dealImg.obj
 0004:00001110       $pdata$?deallocate@?$_Wrap_alloc@V?$allocator@PEAVFCImageEffect@@@std@@@std@@QEAAXPEAPEAVFCImageEffect@@_K@Z 0000000180053110     dealImg.obj
 0004:00001110       $pdata$?deallocate@?$_Wrap_alloc@V?$allocator@PEAVFCObjImage@@@std@@@std@@QEAAXPEAPEAVFCObjImage@@_K@Z 0000000180053110     dealImg.obj
 0004:0000111c       $pdata$?_Reallocate@?$vector@HV?$allocator@H@std@@@std@@IEAAX_K@Z 000000018005311c     dealImg.obj
 0004:0000111c       $pdata$?_Reallocate@?$vector@UtagRGBQUAD@@V?$allocator@UtagRGBQUAD@@@std@@@std@@IEAAX_K@Z 000000018005311c     dealImg.obj
 0004:00001128       $pdata$?_Reallocate@?$vector@V?$basic_string@DU?$char_traits@D@std@@V?$allocator@D@2@@std@@V?$allocator@V?$basic_string@DU?$char_traits@D@std@@V?$allocator@D@2@@std@@@2@@std@@IEAAX_K@Z 0000000180053128     dealImg.obj
 0004:00001134       $pdata$?deallocate@?$_Wrap_alloc@V?$allocator@_W@std@@@std@@QEAAXPEA_W_K@Z 0000000180053134     dealImg.obj
 0004:00001140       $pdata$?assign@?$basic_string@_WU?$char_traits@_W@std@@V?$allocator@_W@2@@std@@QEAAAEAV12@AEBV12@_K1@Z 0000000180053140     dealImg.obj
 0004:0000114c       $pdata$?_Copy@?$basic_string@DU?$char_traits@D@std@@V?$allocator@D@2@@std@@QEAAX_K0@Z 000000018005314c     dealImg.obj
 0004:00001158       $pdata$?erase@?$basic_string@DU?$char_traits@D@std@@V?$allocator@D@2@@std@@QEAAAEAV12@_K0@Z 0000000180053158     dealImg.obj
 0004:00001164       $pdata$?allocate@?$allocator@PEBVFCObjImage@@@std@@QEAAPEAPEBVFCObjImage@@_K@Z 0000000180053164     dealImg.obj
 0004:00001164       $pdata$?allocate@?$allocator@PEAVFCObjImage@@@std@@QEAAPEAPEAVFCObjImage@@_K@Z 0000000180053164     dealImg.obj
 0004:00001164       $pdata$?allocate@?$allocator@PEAVFCImageEffect@@@std@@QEAAPEAPEAVFCImageEffect@@_K@Z 0000000180053164     dealImg.obj
 0004:00001164       $pdata$?allocate@?$allocator@N@std@@QEAAPEAN_K@Z 0000000180053164     dealImg.obj
 0004:00001170       $pdata$?allocate@?$allocator@U_GUID@@@std@@QEAAPEAU_GUID@@_K@Z 0000000180053170     dealImg.obj
 0004:0000117c       $pdata$?allocate@?$allocator@H@std@@QEAAPEAH_K@Z 000000018005317c     dealImg.obj
 0004:0000117c       $pdata$?allocate@?$allocator@UtagRGBQUAD@@@std@@QEAAPEAUtagRGBQUAD@@_K@Z 000000018005317c     dealImg.obj
 0004:00001188       $pdata$?allocate@?$allocator@V?$basic_string@DU?$char_traits@D@std@@V?$allocator@D@2@@std@@@std@@QEAAPEAV?$basic_string@DU?$char_traits@D@std@@V?$allocator@D@2@@2@_K@Z 0000000180053188     dealImg.obj
 0004:00001194       $pdata$?allocate@?$_Wrap_alloc@V?$allocator@D@std@@@std@@QEAAPEAD_K@Z 0000000180053194     dealImg.obj
 0004:000011a0       $pdata$?_Copy@?$basic_string@_WU?$char_traits@_W@std@@V?$allocator@_W@2@@std@@QEAAX_K0@Z 00000001800531a0     dealImg.obj
 0004:000011ac       $pdata$?erase@?$basic_string@_WU?$char_traits@_W@std@@V?$allocator@_W@2@@std@@QEAAAEAV12@_K0@Z 00000001800531ac     dealImg.obj
 0004:000011b8       $pdata$?allocate@?$allocator@_W@std@@QEAAPEA_W_K@Z 00000001800531b8     dealImg.obj
 0004:000011c4       $pdata$??$use_facet@V?$ctype@D@std@@@std@@YAAEBV?$ctype@D@0@AEBVlocale@0@@Z 00000001800531c4     dealImg.obj
 0004:000011d0       $pdata$??$_Immortalize@V_Iostream_error_category@std@@@std@@YAAEAV_Iostream_error_category@0@XZ 00000001800531d0     dealImg.obj
 0004:000011dc       $pdata$??$for_each@V?$_Vector_iterator@V?$_Vector_val@U?$_Simple_types@PEAVFCObjImage@@@std@@@std@@@std@@UFCDeleteEachObject@@@std@@YA?AUFCDeleteEachObject@@V?$_Vector_iterator@V?$_Vector_val@U?$_Simple_types@PEAVFCObjImage@@@std@@@std@@@0@0U1@@Z 00000001800531dc     dealImg.obj
 0004:000011dc       $pdata$??$for_each@V?$_Vector_iterator@V?$_Vector_val@U?$_Simple_types@PEAVFCImageEffect@@@std@@@std@@@std@@UFCDeleteEachObject@@@std@@YA?AUFCDeleteEachObject@@V?$_Vector_iterator@V?$_Vector_val@U?$_Simple_types@PEAVFCImageEffect@@@std@@@std@@@0@0U1@@Z 00000001800531dc     dealImg.obj
 0004:000011e8       $pdata$??$Unwrap@Vset@dealImg@@@ObjectWrap@node@@SAPEAVset@dealImg@@V?$Local@VObject@v8@@@v8@@@Z 00000001800531e8     dealImg.obj
 0004:000011f4       $pdata$??$construct@V?$basic_string@DU?$char_traits@D@std@@V?$allocator@D@2@@std@@V12@@?$_Wrap_alloc@V?$allocator@V?$basic_string@DU?$char_traits@D@std@@V?$allocator@D@2@@std@@@std@@@std@@QEAAXPEAV?$basic_string@DU?$char_traits@D@std@@V?$allocator@D@2@@1@$$QEAV21@@Z 00000001800531f4     dealImg.obj
 0004:00001200       $pdata$??$_Destroy_range@U?$_Wrap_alloc@V?$allocator@V?$basic_string@DU?$char_traits@D@std@@V?$allocator@D@2@@std@@@std@@@std@@@std@@YAXPEAV?$basic_string@DU?$char_traits@D@std@@V?$allocator@D@2@@0@0AEAU?$_Wrap_alloc@V?$allocator@V?$basic_string@DU?$char_traits@D@std@@V?$allocator@D@2@@std@@@std@@@0@@Z 0000000180053200     dealImg.obj
 0004:0000120c       $pdata$0$??$_Destroy_range@U?$_Wrap_alloc@V?$allocator@V?$basic_string@DU?$char_traits@D@std@@V?$allocator@D@2@@std@@@std@@@std@@@std@@YAXPEAV?$basic_string@DU?$char_traits@D@std@@V?$allocator@D@2@@0@0AEAU?$_Wrap_alloc@V?$allocator@V?$basic_string@DU?$char_traits@D@std@@V?$allocator@D@2@@std@@@std@@@0@@Z 000000018005320c     dealImg.obj
 0004:00001218       $pdata$1$??$_Destroy_range@U?$_Wrap_alloc@V?$allocator@V?$basic_string@DU?$char_traits@D@std@@V?$allocator@D@2@@std@@@std@@@std@@@std@@YAXPEAV?$basic_string@DU?$char_traits@D@std@@V?$allocator@D@2@@0@0AEAU?$_Wrap_alloc@V?$allocator@V?$basic_string@DU?$char_traits@D@std@@V?$allocator@D@2@@std@@@std@@@0@@Z 0000000180053218     dealImg.obj
 0004:00001224       $pdata$2$??$_Destroy_range@U?$_Wrap_alloc@V?$allocator@V?$basic_string@DU?$char_traits@D@std@@V?$allocator@D@2@@std@@@std@@@std@@@std@@YAXPEAV?$basic_string@DU?$char_traits@D@std@@V?$allocator@D@2@@0@0AEAU?$_Wrap_alloc@V?$allocator@V?$basic_string@DU?$char_traits@D@std@@V?$allocator@D@2@@std@@@std@@@0@@Z 0000000180053224     dealImg.obj
 0004:00001230       $pdata$?widen@?$basic_ios@DU?$char_traits@D@std@@@std@@QEBADD@Z 0000000180053230     dealImg.obj
 0004:0000123c       $pdata$?_Traits_compare@?$basic_string@_WU?$char_traits@_W@std@@V?$allocator@_W@2@@std@@SAHQEB_W_K01@Z 000000018005323c     dealImg.obj
 0004:00001248       $pdata$??$_Uninitialized_move_al_unchecked1@PEAV?$basic_string@DU?$char_traits@D@std@@V?$allocator@D@2@@std@@PEAV12@V?$allocator@V?$basic_string@DU?$char_traits@D@std@@V?$allocator@D@2@@std@@@2@@std@@YAPEAV?$basic_string@DU?$char_traits@D@std@@V?$allocator@D@2@@0@PEAV10@00AEAU?$_Wrap_alloc@V?$allocator@V?$basic_string@DU?$char_traits@D@std@@V?$allocator@D@2@@std@@@std@@@0@U_General_ptr_iterator_tag@0@@Z 0000000180053248     dealImg.obj
 0004:00001254       $pdata$0$??$_Uninitialized_move_al_unchecked1@PEAV?$basic_string@DU?$char_traits@D@std@@V?$allocator@D@2@@std@@PEAV12@V?$allocator@V?$basic_string@DU?$char_traits@D@std@@V?$allocator@D@2@@std@@@2@@std@@YAPEAV?$basic_string@DU?$char_traits@D@std@@V?$allocator@D@2@@0@PEAV10@00AEAU?$_Wrap_alloc@V?$allocator@V?$basic_string@DU?$char_traits@D@std@@V?$allocator@D@2@@std@@@std@@@0@U_General_ptr_iterator_tag@0@@Z 0000000180053254     dealImg.obj
 0004:00001260       $pdata$1$??$_Uninitialized_move_al_unchecked1@PEAV?$basic_string@DU?$char_traits@D@std@@V?$allocator@D@2@@std@@PEAV12@V?$allocator@V?$basic_string@DU?$char_traits@D@std@@V?$allocator@D@2@@std@@@2@@std@@YAPEAV?$basic_string@DU?$char_traits@D@std@@V?$allocator@D@2@@0@PEAV10@00AEAU?$_Wrap_alloc@V?$allocator@V?$basic_string@DU?$char_traits@D@std@@V?$allocator@D@2@@std@@@std@@@0@U_General_ptr_iterator_tag@0@@Z 0000000180053260     dealImg.obj
 0004:0000126c       $pdata$load_exe_hook       000000018005326c     win_delay_load_hook.obj
 0004:00001284       $pdata$??0_Init_locks@std@@QEAA@XZ 0000000180053284     libcpmt:xlock.obj
 0004:00001290       $pdata$??0_Lockit@std@@QEAA@H@Z 0000000180053290     libcpmt:xlock.obj
 0004:0000129c       $pdata$??1_Init_locks@std@@QEAA@XZ 000000018005329c     libcpmt:xlock.obj
 0004:000012a8       $pdata$??1_Lockit@std@@QEAA@XZ 00000001800532a8     libcpmt:xlock.obj
 0004:000012b4       $pdata$??$use_facet@V?$codecvt@DDU_Mbstatet@@@std@@@std@@YAAEBV?$codecvt@DDU_Mbstatet@@@0@AEBVlocale@0@@Z 00000001800532b4     libcpmt:cout.obj
 0004:000012c0       $pdata$??0?$basic_ostream@DU?$char_traits@D@std@@@std@@QEAA@PEAV?$basic_streambuf@DU?$char_traits@D@std@@@1@_N@Z 00000001800532c0     libcpmt:cout.obj
 0004:000012cc       $pdata$??0?$basic_streambuf@DU?$char_traits@D@std@@@std@@IEAA@XZ 00000001800532cc     libcpmt:cout.obj
 0004:000012d8       $pdata$??0bad_cast@std@@QEAA@AEBV01@@Z 00000001800532d8     libcpmt:cout.obj
 0004:000012e4       $pdata$??0exception@std@@QEAA@AEBV01@@Z 00000001800532e4     libcpmt:cout.obj
 0004:000012f0       $pdata$??1?$basic_filebuf@DU?$char_traits@D@std@@@std@@UEAA@XZ 00000001800532f0     libcpmt:cout.obj
 0004:000012fc       $pdata$??1?$basic_ios@DU?$char_traits@D@std@@@std@@UEAA@XZ 00000001800532fc     libcpmt:cout.obj
 0004:00001308       $pdata$??_G?$basic_filebuf@DU?$char_traits@D@std@@@std@@UEAAPEAXI@Z 0000000180053308     libcpmt:cout.obj
 0004:00001314       $pdata$??_G?$basic_ios@DU?$char_traits@D@std@@@std@@UEAAPEAXI@Z 0000000180053314     libcpmt:cout.obj
 0004:00001320       $pdata$??_G?$basic_ostream@DU?$char_traits@D@std@@@std@@UEAAPEAXI@Z 0000000180053320     libcpmt:cout.obj
 0004:0000132c       $pdata$??_G?$basic_streambuf@DU?$char_traits@D@std@@@std@@UEAAPEAXI@Z 000000018005332c     libcpmt:cout.obj
 0004:00001338       $pdata$??_G?$codecvt@DDU_Mbstatet@@@std@@MEAAPEAXI@Z 0000000180053338     libcpmt:cout.obj
 0004:00001344       $pdata$??_Gios_base@std@@UEAAPEAXI@Z 0000000180053344     libcpmt:cout.obj
 0004:00001350       $pdata$??_Glocale@std@@QEAAPEAXI@Z 0000000180053350     libcpmt:cout.obj
 0004:0000135c       $pdata$?_Endwrite@?$basic_filebuf@DU?$char_traits@D@std@@@std@@IEAA_NXZ 000000018005335c     libcpmt:cout.obj
 0004:00001368       $pdata$?_Getcat@?$codecvt@DDU_Mbstatet@@@std@@SA_KPEAPEBVfacet@locale@2@PEBV42@@Z 0000000180053368     libcpmt:cout.obj
 0004:00001374       $pdata$?_Init@?$basic_filebuf@DU?$char_traits@D@std@@@std@@IEAAXPEAU_iobuf@@W4_Initfl@12@@Z 0000000180053374     libcpmt:cout.obj
 0004:00001380       $pdata$?_Init@ios_base@std@@IEAAXXZ 0000000180053380     libcpmt:cout.obj
 0004:0000138c       $pdata$?_Initcvt@?$basic_filebuf@DU?$char_traits@D@std@@@std@@IEAAXPEBV?$codecvt@DDU_Mbstatet@@@2@@Z 000000018005338c     libcpmt:cout.obj
 0004:00001398       $pdata$?_Lock@?$basic_filebuf@DU?$char_traits@D@std@@@std@@UEAAXXZ 0000000180053398     libcpmt:cout.obj
 0004:000013a4       $pdata$?_Unlock@?$basic_filebuf@DU?$char_traits@D@std@@@std@@UEAAXXZ 00000001800533a4     libcpmt:cout.obj
 0004:000013b0       $pdata$?imbue@?$basic_filebuf@DU?$char_traits@D@std@@@std@@MEAAXAEBVlocale@2@@Z 00000001800533b0     libcpmt:cout.obj
 0004:000013bc       $pdata$?overflow@?$basic_filebuf@DU?$char_traits@D@std@@@std@@MEAAHH@Z 00000001800533bc     libcpmt:cout.obj
 0004:000013c8       $pdata$?pbackfail@?$basic_filebuf@DU?$char_traits@D@std@@@std@@MEAAHH@Z 00000001800533c8     libcpmt:cout.obj
 0004:000013d4       $pdata$?seekoff@?$basic_filebuf@DU?$char_traits@D@std@@@std@@MEAA?AV?$fpos@U_Mbstatet@@@2@_JHH@Z 00000001800533d4     libcpmt:cout.obj
 0004:000013e0       $pdata$?seekpos@?$basic_filebuf@DU?$char_traits@D@std@@@std@@MEAA?AV?$fpos@U_Mbstatet@@@2@V32@H@Z 00000001800533e0     libcpmt:cout.obj
 0004:000013ec       $pdata$?setbuf@?$basic_filebuf@DU?$char_traits@D@std@@@std@@MEAAPEAV?$basic_streambuf@DU?$char_traits@D@std@@@2@PEAD_J@Z 00000001800533ec     libcpmt:cout.obj
 0004:000013f8       $pdata$?sync@?$basic_filebuf@DU?$char_traits@D@std@@@std@@MEAAHXZ 00000001800533f8     libcpmt:cout.obj
 0004:00001404       $pdata$?uflow@?$basic_filebuf@DU?$char_traits@D@std@@@std@@MEAAHXZ 0000000180053404     libcpmt:cout.obj
 0004:00001410       $pdata$?uflow@?$basic_streambuf@DU?$char_traits@D@std@@@std@@MEAAHXZ 0000000180053410     libcpmt:cout.obj
 0004:0000141c       $pdata$?underflow@?$basic_filebuf@DU?$char_traits@D@std@@@std@@MEAAHXZ 000000018005341c     libcpmt:cout.obj
 0004:00001428       $pdata$?xsgetn@?$basic_streambuf@DU?$char_traits@D@std@@@std@@MEAA_JPEAD_J@Z 0000000180053428     libcpmt:cout.obj
 0004:00001434       $pdata$?xsputn@?$basic_streambuf@DU?$char_traits@D@std@@@std@@MEAA_JPEBD_J@Z 0000000180053434     libcpmt:cout.obj
 0004:00001440       $pdata$??4?$_Yarn@D@std@@QEAAAEAV01@PEBD@Z 0000000180053440     libcpmt:locale0.obj
 0004:0000144c       $pdata$??_G_Fac_node@std@@QEAAPEAXI@Z 000000018005344c     libcpmt:locale0.obj
 0004:00001458       $pdata$??_G_Locimp@locale@std@@MEAAPEAXI@Z 0000000180053458     libcpmt:locale0.obj
 0004:00001464       $pdata$?_Facet_Register@std@@YAXPEAV_Facet_base@1@@Z 0000000180053464     libcpmt:locale0.obj
 0004:00001470       $pdata$?_Init@locale@std@@CAPEAV_Locimp@12@_N@Z 0000000180053470     libcpmt:locale0.obj
 0004:0000147c       $pdata$?_Locimp_dtor@_Locimp@locale@std@@CAXPEAV123@@Z 000000018005347c     libcpmt:locale0.obj
 0004:00001488       $pdata$?_Locinfo_ctor@_Locinfo@std@@SAXPEAV12@PEBD@Z 0000000180053488     libcpmt:locale0.obj
 0004:00001494       $pdata$?_Locinfo_dtor@_Locinfo@std@@SAXPEAV12@@Z 0000000180053494     libcpmt:locale0.obj
 0004:000014a0       $pdata$?_New_Locimp@_Locimp@locale@std@@CAPEAV123@_N@Z 00000001800534a0     libcpmt:locale0.obj
 0004:000014ac       $pdata$?_Setgloballocale@locale@std@@CAXPEAX@Z 00000001800534ac     libcpmt:locale0.obj
 0004:000014b8       $pdata$_Deletegloballocale 00000001800534b8     libcpmt:locale0.obj
 0004:000014c4       $pdata$tidy_global         00000001800534c4     libcpmt:locale0.obj
 0004:000014d0       $pdata$??0bad_alloc@std@@QEAA@AEBV01@@Z 00000001800534d0     libcpmt:xthrow.obj
 0004:000014dc       $pdata$??0length_error@std@@QEAA@AEBV01@@Z 00000001800534dc     libcpmt:xthrow.obj
 0004:000014e8       $pdata$??0length_error@std@@QEAA@PEBD@Z 00000001800534e8     libcpmt:xthrow.obj
 0004:000014f4       $pdata$??0logic_error@std@@QEAA@AEBV01@@Z 00000001800534f4     libcpmt:xthrow.obj
 0004:00001500       $pdata$??0out_of_range@std@@QEAA@AEBV01@@Z 0000000180053500     libcpmt:xthrow.obj
 0004:0000150c       $pdata$??0out_of_range@std@@QEAA@PEBD@Z 000000018005350c     libcpmt:xthrow.obj
 0004:00001518       $pdata$??_Glength_error@std@@UEAAPEAXI@Z 0000000180053518     libcpmt:xthrow.obj
 0004:00001518       $pdata$??_Gexception@std@@UEAAPEAXI@Z 0000000180053518     libcpmt:cout.obj
 0004:00001518       $pdata$??_Gout_of_range@std@@UEAAPEAXI@Z 0000000180053518     libcpmt:xthrow.obj
 0004:00001518       $pdata$??_Gbad_alloc@std@@UEAAPEAXI@Z 0000000180053518     libcpmt:xthrow.obj
 0004:00001518       $pdata$??_Gbad_array_new_length@std@@UEAAPEAXI@Z 0000000180053518     LIBCMT:throw_bad_alloc.obj
 0004:00001518       $pdata$??_Glogic_error@std@@UEAAPEAXI@Z 0000000180053518     libcpmt:xthrow.obj
 0004:00001518       $pdata$??_Gbad_cast@std@@UEAAPEAXI@Z 0000000180053518     libcpmt:cout.obj
 0004:00001518       $pdata$??_Gbad_exception@std@@UEAAPEAXI@Z 0000000180053518     libvcruntime:frame.obj
 0004:00001524       $pdata$?__scrt_throw_std_bad_alloc@@YAXXZ 0000000180053524     LIBCMT:throw_bad_alloc.obj
 0004:00001524       $pdata$?_Xbad_alloc@std@@YAXXZ 0000000180053524     libcpmt:xthrow.obj
 0004:00001530       $pdata$?_Xlength_error@std@@YAXPEBD@Z 0000000180053530     libcpmt:xthrow.obj
 0004:0000153c       $pdata$?_Xout_of_range@std@@YAXPEBD@Z 000000018005353c     libcpmt:xthrow.obj
 0004:00001548       $pdata$_Getctype           0000000180053548     libcpmt:_tolower.obj
 0004:00001554       $pdata$_Tolower            0000000180053554     libcpmt:_tolower.obj
 0004:00001560       $pdata$_Toupper            0000000180053560     libcpmt:_toupper.obj
 0004:0000156c       $pdata$?_Addstd@ios_base@std@@SAXPEAV12@@Z 000000018005356c     libcpmt:ios.obj
 0004:00001578       $pdata$?_Ios_base_dtor@ios_base@std@@CAXPEAV12@@Z 0000000180053578     libcpmt:ios.obj
 0004:00001584       $pdata$?_Tidy@ios_base@std@@AEAAXXZ 0000000180053584     libcpmt:ios.obj
 0004:00001590       $pdata$?_Atexit@@YAXP6AXXZ@Z 0000000180053590     libcpmt:iosptrs.obj
 0004:0000159c       $pdata$__crtLCMapStringA   000000018005359c     libcpmt:StlLCMapStringA.obj
 0004:000015a8       $pdata$?initialize_pointers@@YAHXZ 00000001800535a8     libcpmt:winapisupp.obj
 0004:000015b4       $pdata$__crtInitializeCriticalSectionEx 00000001800535b4     libcpmt:winapisupp.obj
 0004:000015c0       $pdata$GetTableIndexFromLocaleName 00000001800535c0     libcpmt:winapinls.obj
 0004:000015cc       $pdata$__crtDownlevelLocaleNameToLCID 00000001800535cc     libcpmt:winapinls.obj
 0004:000015d8       $pdata$__crtLCMapStringEx  00000001800535d8     libcpmt:winapinls.obj
 0004:000015e4       $pdata$??0CAtlBaseModule@ATL@@QEAA@XZ 00000001800535e4     atls:atlbase.obj
 0004:000015f0       $pdata$??1CAtlBaseModule@ATL@@QEAA@XZ 00000001800535f0     atls:atlbase.obj
 0004:00001608       $pdata$?__scrt_initialize_thread_safe_statics@@YAHXZ 0000000180053608     LIBCMT:thread_safe_statics.obj
 0004:00001614       $pdata$?__scrt_uninitialize_thread_safe_statics@@YAXXZ 0000000180053614     LIBCMT:thread_safe_statics.obj
 0004:00001620       $pdata$_Init_thread_footer 0000000180053620     LIBCMT:thread_safe_statics.obj
 0004:0000162c       $pdata$_Init_thread_header 000000018005362c     LIBCMT:thread_safe_statics.obj
 0004:00001638       $pdata$_Init_thread_notify 0000000180053638     LIBCMT:thread_safe_statics.obj
 0004:00001644       $pdata$_Init_thread_wait   0000000180053644     LIBCMT:thread_safe_statics.obj
 0004:00001650       $pdata$__scrt_acquire_startup_lock 0000000180053650     LIBCMT:utility.obj
 0004:0000165c       $pdata$__scrt_dllmain_after_initialize_c 000000018005365c     LIBCMT:utility.obj
 0004:00001668       $pdata$__scrt_dllmain_before_initialize_c 0000000180053668     LIBCMT:utility.obj
 0004:00001674       $pdata$__scrt_dllmain_crt_thread_attach 0000000180053674     LIBCMT:utility.obj
 0004:00001680       $pdata$__scrt_dllmain_crt_thread_detach 0000000180053680     LIBCMT:utility.obj
 0004:0000168c       $pdata$__scrt_dllmain_exception_filter 000000018005368c     LIBCMT:utility.obj
 0004:00001698       $pdata$__scrt_dllmain_uninitialize_c 0000000180053698     LIBCMT:utility.obj
 0004:000016a4       $pdata$__scrt_dllmain_uninitialize_critical 00000001800536a4     LIBCMT:utility.obj
 0004:000016b0       $pdata$__scrt_initialize_crt 00000001800536b0     LIBCMT:utility.obj
 0004:000016bc       $pdata$__scrt_initialize_onexit_tables 00000001800536bc     LIBCMT:utility.obj
 0004:000016c8       $pdata$__scrt_is_nonwritable_in_current_image 00000001800536c8     LIBCMT:utility.obj
 0004:000016d4       $pdata$__scrt_release_startup_lock 00000001800536d4     LIBCMT:utility.obj
 0004:000016e0       $pdata$__scrt_uninitialize_crt 00000001800536e0     LIBCMT:utility.obj
 0004:000016ec       $pdata$_onexit             00000001800536ec     LIBCMT:utility.obj
 0004:000016f8       $pdata$atexit              00000001800536f8     LIBCMT:utility.obj
 0004:00001704       $pdata$??2@YAPEAX_K@Z      0000000180053704     LIBCMT:new_scalar.obj
 0004:00001710       $pdata$?dllmain_crt_dispatch@@YAHQEAUHINSTANCE__@@KQEAX@Z 0000000180053710     LIBCMT:dll_dllmain.obj
 0004:0000171c       $pdata$?dllmain_crt_process_attach@@YAHQEAUHINSTANCE__@@QEAX@Z 000000018005371c     LIBCMT:dll_dllmain.obj
 0004:00001728       $pdata$?dllmain_crt_process_detach@@YAH_N@Z 0000000180053728     LIBCMT:dll_dllmain.obj
 0004:00001734       $pdata$?dllmain_dispatch@@YAHQEAUHINSTANCE__@@KQEAX@Z 0000000180053734     LIBCMT:dll_dllmain.obj
 0004:00001740       $pdata$?dllmain_raw@@YAHQEAUHINSTANCE__@@KQEAX@Z 0000000180053740     LIBCMT:dll_dllmain.obj
 0004:0000174c       $pdata$_DllMainCRTStartup  000000018005374c     LIBCMT:dll_dllmain.obj
 0004:00001758       $pdata$__GSHandlerCheck    0000000180053758     LIBCMT:_gshandler_.obj
 0004:00001764       $pdata$__GSHandlerCheckCommon 0000000180053764     LIBCMT:_gshandler_.obj
 0004:00001770       $pdata$__GSHandlerCheck_EH 0000000180053770     LIBCMT:gshandlereh.obj
 0004:0000177c       $pdata$??_Gtype_info@@UEAAPEAXI@Z 000000018005377c     LIBCMT:std_type_info_static.obj
 0004:00001794       $pdata$__raise_securityfailure 0000000180053794     LIBCMT:gs_report.obj
 0004:000017a0       $pdata$__report_gsfailure  00000001800537a0     LIBCMT:gs_report.obj
 0004:000017ac       $pdata$__report_rangecheckfailure 00000001800537ac     LIBCMT:gs_report.obj
 0004:000017b8       $pdata$__report_securityfailure 00000001800537b8     LIBCMT:gs_report.obj
 0004:000017c4       $pdata$capture_current_context 00000001800537c4     LIBCMT:gs_report.obj
 0004:000017d0       $pdata$capture_previous_context 00000001800537d0     LIBCMT:gs_report.obj
 0004:000017dc       $pdata$__scrt_fastfail     00000001800537dc     LIBCMT:utility_desktop.obj
 0004:000017e8       $pdata$__isa_available_init 00000001800537e8     LIBCMT:_cpu_disp_.obj
 0004:000017f4       $pdata$??0bad_array_new_length@std@@QEAA@AEBV01@@Z 00000001800537f4     LIBCMT:throw_bad_alloc.obj
 0004:00001800       $pdata$?__scrt_throw_std_bad_array_new_length@@YAXXZ 0000000180053800     LIBCMT:throw_bad_alloc.obj
 0004:0000180c       $pdata$__security_init_cookie 000000018005380c     LIBCMT:gs_support.obj
 0004:00001818       $pdata$__scrt_initialize_default_local_stdio_options 0000000180053818     LIBCMT:default_local_stdio_options.obj
 0004:00001824       $pdata$_RTC_Initialize     0000000180053824     LIBCMT:_initsect_.obj
 0004:00001830       $pdata$_RTC_Terminate      0000000180053830     LIBCMT:_initsect_.obj
 0004:00001848       $pdata$_purecall           0000000180053848     libvcruntime:purevirt.obj
 0004:00001854       $pdata$__DestructExceptionObject 0000000180053854     libvcruntime:frame.obj
 0004:00001860       $pdata$??0bad_exception@std@@QEAA@AEBV01@@Z 0000000180053860     libvcruntime:frame.obj
 0004:0000186c       $pdata$?CatchIt@@YAXPEAUEHExceptionRecord@@PEA_KPEAU_CONTEXT@@PEAU_xDISPATCHER_CONTEXT@@PEBU_s_FuncInfo@@PEBU_s_HandlerType@@PEBU_s_CatchableType@@PEBU_s_TryBlockMapEntry@@H1EE@Z 000000018005386c     libvcruntime:frame.obj
 0004:00001878       $pdata$?ExFilterRethrow@@YAHPEAU_EXCEPTION_POINTERS@@PEAUEHExceptionRecord@@PEAH@Z 0000000180053878     libvcruntime:frame.obj
 0004:00001884       $pdata$?FindHandler@@YAXPEAUEHExceptionRecord@@PEA_KPEAU_CONTEXT@@PEAU_xDISPATCHER_CONTEXT@@PEBU_s_FuncInfo@@EH1@Z 0000000180053884     libvcruntime:frame.obj
 0004:00001890       $pdata$?FindHandlerForForeignException@@YAXPEAUEHExceptionRecord@@PEA_KPEAU_CONTEXT@@PEAU_xDISPATCHER_CONTEXT@@PEBU_s_FuncInfo@@HH1@Z 0000000180053890     libvcruntime:frame.obj
 0004:0000189c       $pdata$?IsInExceptionSpec@@YAEPEAUEHExceptionRecord@@PEBU_s_ESTypeList@@@Z 000000018005389c     libvcruntime:frame.obj
 0004:000018a8       $pdata$__BuildCatchObject  00000001800538a8     libvcruntime:frame.obj
 0004:000018b4       $pdata$__BuildCatchObjectHelper 00000001800538b4     libvcruntime:frame.obj
 0004:000018c0       $pdata$__CxxCallCatchBlock 00000001800538c0     libvcruntime:frame.obj
 0004:000018cc       $pdata$__FrameUnwindFilter 00000001800538cc     libvcruntime:frame.obj
 0004:000018d8       $pdata$__FrameUnwindToState 00000001800538d8     libvcruntime:frame.obj
 0004:000018e4       $pdata$__InternalCxxFrameHandler 00000001800538e4     libvcruntime:frame.obj
 0004:000018f0       $pdata$__TypeMatch         00000001800538f0     libvcruntime:frame.obj
 0004:000018fc       $pdata$__std_terminate     00000001800538fc     libvcruntime:frame.obj
 0004:00001908       $pdata$__std_exception_copy 0000000180053908     libvcruntime:std_exception.obj
 0004:00001914       $pdata$__std_exception_destroy 0000000180053914     libvcruntime:std_exception.obj
 0004:00001920       $pdata$_CxxThrowException  0000000180053920     libvcruntime:throw.obj
 0004:0000192c       $pdata$?_GetEstablisherFrame@@YAPEA_KPEA_KPEAU_xDISPATCHER_CONTEXT@@PEBU_s_FuncInfo@@0@Z 000000018005392c     libvcruntime:trnsctrl.obj
 0004:00001938       $pdata$?_GetRangeOfTrysToCheck@@YAPEBU_s_TryBlockMapEntry@@PEA_KPEBU_s_FuncInfo@@HHPEAI2PEAU_xDISPATCHER_CONTEXT@@@Z 0000000180053938     libvcruntime:trnsctrl.obj
 0004:00001944       $pdata$?__FrameUnwindToEmptyState@@YAXPEA_KPEAU_xDISPATCHER_CONTEXT@@PEBU_s_FuncInfo@@@Z 0000000180053944     libvcruntime:trnsctrl.obj
 0004:00001950       $pdata$?__SehTransFilter@@YAHPEAU_EXCEPTION_POINTERS@@PEAUEHExceptionRecord@@PEA_KPEAU_CONTEXT@@PEAU_xDISPATCHER_CONTEXT@@PEBU_s_FuncInfo@@PEAH@Z 0000000180053950     libvcruntime:trnsctrl.obj
 0004:0000195c       $pdata$_CallSETranslator   000000018005395c     libvcruntime:trnsctrl.obj
 0004:00001968       $pdata$_CreateFrameInfo    0000000180053968     libvcruntime:trnsctrl.obj
 0004:00001974       $pdata$_FindAndUnlinkFrame 0000000180053974     libvcruntime:trnsctrl.obj
 0004:00001980       $pdata$_GetImageBase       0000000180053980     libvcruntime:trnsctrl.obj
 0004:0000198c       $pdata$_GetThrowImageBase  000000018005398c     libvcruntime:trnsctrl.obj
 0004:00001998       $pdata$_IsExceptionObjectToBeDestroyed 0000000180053998     libvcruntime:trnsctrl.obj
 0004:000019a4       $pdata$_SetImageBase       00000001800539a4     libvcruntime:trnsctrl.obj
 0004:000019b0       $pdata$_SetThrowImageBase  00000001800539b0     libvcruntime:trnsctrl.obj
 0004:000019bc       $pdata$_UnwindNestedFrames 00000001800539bc     libvcruntime:trnsctrl.obj
 0004:000019c8       $pdata$__CxxFrameHandler3  00000001800539c8     libvcruntime:trnsctrl.obj
 0004:000019ec       $pdata$?try_get_function@@YAPEAXW4function_id@?A0x49c8dc86@@QEBDQEBW4module_id@2@2@Z 00000001800539ec     libvcruntime:winapi_downlevel.obj
 0004:000019f8       $pdata$__vcrt_EventRegister 00000001800539f8     libvcruntime:winapi_downlevel.obj
 0004:00001a04       $pdata$__vcrt_EventSetInformation 0000000180053a04     libvcruntime:winapi_downlevel.obj
 0004:00001a10       $pdata$__vcrt_EventUnregister 0000000180053a10     libvcruntime:winapi_downlevel.obj
 0004:00001a1c       $pdata$__vcrt_EventWriteTransfer 0000000180053a1c     libvcruntime:winapi_downlevel.obj
 0004:00001a28       $pdata$__vcrt_FlsAlloc     0000000180053a28     libvcruntime:winapi_downlevel.obj
 0004:00001a34       $pdata$__vcrt_FlsFree      0000000180053a34     libvcruntime:winapi_downlevel.obj
 0004:00001a40       $pdata$__vcrt_FlsGetValue  0000000180053a40     libvcruntime:winapi_downlevel.obj
 0004:00001a4c       $pdata$__vcrt_FlsSetValue  0000000180053a4c     libvcruntime:winapi_downlevel.obj
 0004:00001a58       $pdata$__vcrt_InitializeCriticalSectionEx 0000000180053a58     libvcruntime:winapi_downlevel.obj
 0004:00001a64       $pdata$__vcrt_initialize_winapi_thunks 0000000180053a64     libvcruntime:winapi_downlevel.obj
 0004:00001a70       $pdata$__vcrt_uninitialize_winapi_thunks 0000000180053a70     libvcruntime:winapi_downlevel.obj
 0004:00001a7c       $pdata$__vcrt_initialize   0000000180053a7c     libvcruntime:initialization.obj
 0004:00001a88       $pdata$__vcrt_thread_attach 0000000180053a88     libvcruntime:initialization.obj
 0004:00001a94       $pdata$__vcrt_thread_detach 0000000180053a94     libvcruntime:initialization.obj
 0004:00001aa0       $pdata$__vcrt_uninitialize 0000000180053aa0     libvcruntime:initialization.obj
 0004:00001aac       $pdata$__vcrt_uninitialize_critical 0000000180053aac     libvcruntime:initialization.obj
 0004:00001ab8       $pdata$__C_specific_handler 0000000180053ab8     libvcruntime:_chandler_.obj
 0004:00001ac4       $pdata$__telemetry_main_invoke_trigger 0000000180053ac4     libvcruntime:telemetry.obj
 0004:00001ad0       $pdata$__telemetry_main_return_trigger 0000000180053ad0     libvcruntime:telemetry.obj
 0004:00001adc       $pdata$__vcrt_uninitialize_telemetry_provider 0000000180053adc     libvcruntime:telemetry.obj
 0004:00001ae8       $pdata$__std_type_info_destroy_list 0000000180053ae8     libvcruntime:std_type_info.obj
 0004:00001af4       $pdata$__vcrt_freefls      0000000180053af4     libvcruntime:per_thread_data.obj
 0004:00001b00       $pdata$__vcrt_freeptd      0000000180053b00     libvcruntime:per_thread_data.obj
 0004:00001b0c       $pdata$__vcrt_getptd       0000000180053b0c     libvcruntime:per_thread_data.obj
 0004:00001b18       $pdata$__vcrt_getptd_noexit 0000000180053b18     libvcruntime:per_thread_data.obj
 0004:00001b24       $pdata$__vcrt_initialize_ptd 0000000180053b24     libvcruntime:per_thread_data.obj
 0004:00001b30       $pdata$__vcrt_uninitialize_ptd 0000000180053b30     libvcruntime:per_thread_data.obj
 0004:00001b3c       $pdata$?__GetCurrentState@@YAHPEA_KPEAU_xDISPATCHER_CONTEXT@@PEBU_s_FuncInfo@@@Z 0000000180053b3c     libvcruntime:ehstate.obj
 0004:00001b48       $pdata$?__GetUnwindTryBlock@@YAHPEA_KPEAU_xDISPATCHER_CONTEXT@@PEBU_s_FuncInfo@@@Z 0000000180053b48     libvcruntime:ehstate.obj
 0004:00001b54       $pdata$?__SetUnwindTryBlock@@YAXPEA_KPEAU_xDISPATCHER_CONTEXT@@PEBU_s_FuncInfo@@H@Z 0000000180053b54     libvcruntime:ehstate.obj
 0004:00001b60       $pdata$?__StateFromIp@@YAHPEBU_s_FuncInfo@@PEAU_xDISPATCHER_CONTEXT@@_J@Z 0000000180053b60     libvcruntime:ehstate.obj
 0004:00001ba8       $pdata$__vcrt_initialize_locks 0000000180053ba8     libvcruntime:locks.obj
 0004:00001bb4       $pdata$__vcrt_uninitialize_locks 0000000180053bb4     libvcruntime:locks.obj
 0004:00001bc0       $pdata$abort               0000000180053bc0     libucrt:abort.obj
 0004:00001bcc       $pdata$__acrt_call_reportfault 0000000180053bcc     libucrt:invalid_parameter.obj
 0004:00001bd8       $pdata$_invalid_parameter  0000000180053bd8     libucrt:invalid_parameter.obj
 0004:00001be4       $pdata$_invalid_parameter_noinfo 0000000180053be4     libucrt:invalid_parameter.obj
 0004:00001bf0       $pdata$_invalid_parameter_noinfo_noreturn 0000000180053bf0     libucrt:invalid_parameter.obj
 0004:00001bfc       $pdata$_invoke_watson      0000000180053bfc     libucrt:invalid_parameter.obj
 0004:00001c08       $pdata$??0_LocaleUpdate@@QEAA@QEAU__crt_locale_pointers@@@Z 0000000180053c08     libucrt:tolower_toupper.obj
 0004:00001c14       $pdata$?internal_isupper_l@@YA_NHQEAU__crt_locale_pointers@@@Z 0000000180053c14     libucrt:tolower_toupper.obj
 0004:00001c20       $pdata$_tolower_l          0000000180053c20     libucrt:tolower_toupper.obj
 0004:00001c2c       $pdata$tolower             0000000180053c2c     libucrt:tolower_toupper.obj
 0004:00001c38       $pdata$rand                0000000180053c38     libucrt:rand.obj
 0004:00001c44       $pdata$??$?RV<lambda_7b91131dde12e1c3dfc74ff76b3f2eac>@@AEAV<lambda_dd75445284c072d0bd3768540cc698fa>@@V<lambda_16bc4ecb55b4718497c16bceaea2ceaf>@@@?$__crt_seh_guarded_call@H@@QEAAH$$QEAV<lambda_7b91131dde12e1c3dfc74ff76b3f2eac>@@AEAV<lambda_dd75445284c072d0bd3768540cc698fa>@@$$QEAV<lambda_16bc4ecb55b4718497c16bceaea2ceaf>@@@Z 0000000180053c44     libucrt:output.obj
 0004:00001c50       $pdata$??$ensure_buffer_is_big_enough@D@formatting_buffer@__crt_stdio_output@@QEAA_N_K@Z 0000000180053c50     libucrt:output.obj
 0004:00001c5c       $pdata$??$type_case_integer_parse_into_buffer@I@?$output_processor@_WV?$stream_output_adapter@_W@__crt_stdio_output@@V?$standard_base@_WV?$stream_output_adapter@_W@__crt_stdio_output@@@2@@__crt_stdio_output@@AEAAXII_N@Z 0000000180053c5c     libucrt:output.obj
 0004:00001c5c       $pdata$??$type_case_integer_parse_into_buffer@I@?$output_processor@_WV?$string_output_adapter@_W@__crt_stdio_output@@V?$standard_base@_WV?$string_output_adapter@_W@__crt_stdio_output@@@2@@__crt_stdio_output@@AEAAXII_N@Z 0000000180053c5c     libucrt:output.obj
 0004:00001c68       $pdata$??$type_case_integer_parse_into_buffer@_K@?$output_processor@_WV?$stream_output_adapter@_W@__crt_stdio_output@@V?$standard_base@_WV?$stream_output_adapter@_W@__crt_stdio_output@@@2@@__crt_stdio_output@@AEAAX_KI_N@Z 0000000180053c68     libucrt:output.obj
 0004:00001c68       $pdata$??$type_case_integer_parse_into_buffer@_K@?$output_processor@_WV?$string_output_adapter@_W@__crt_stdio_output@@V?$standard_base@_WV?$string_output_adapter@_W@__crt_stdio_output@@@2@@__crt_stdio_output@@AEAAX_KI_N@Z 0000000180053c68     libucrt:output.obj
 0004:00001c74       $pdata$??$write_multiple_characters@V?$stream_output_adapter@_W@__crt_stdio_output@@D@__crt_stdio_output@@YAXAEBV?$stream_output_adapter@_W@0@DHQEAH@Z 0000000180053c74     libucrt:output.obj
 0004:00001c80       $pdata$??$write_multiple_characters@V?$string_output_adapter@_W@__crt_stdio_output@@D@__crt_stdio_output@@YAXAEBV?$string_output_adapter@_W@0@DHQEAH@Z 0000000180053c80     libucrt:output.obj
 0004:00001c8c       $pdata$??0?$output_processor@_WV?$string_output_adapter@_W@__crt_stdio_output@@V?$standard_base@_WV?$string_output_adapter@_W@__crt_stdio_output@@@2@@__crt_stdio_output@@QEAA@AEBV?$string_output_adapter@_W@1@_KQEB_WQEAU__crt_locale_pointers@@QEAD@Z 0000000180053c8c     libucrt:output.obj
 0004:00001c8c       $pdata$??0?$output_processor@_WV?$stream_output_adapter@_W@__crt_stdio_output@@V?$standard_base@_WV?$stream_output_adapter@_W@__crt_stdio_output@@@2@@__crt_stdio_output@@QEAA@AEBV?$stream_output_adapter@_W@1@_KQEB_WQEAU__crt_locale_pointers@@QEAD@Z 0000000180053c8c     libucrt:output.obj
 0004:00001c98       $pdata$??R<lambda_dd75445284c072d0bd3768540cc698fa>@@QEBAHXZ 0000000180053c98     libucrt:output.obj
 0004:00001ca4       $pdata$?force_decimal_point@__crt_stdio_output@@YAXPEADQEAU__crt_locale_pointers@@@Z 0000000180053ca4     libucrt:output.obj
 0004:00001cb0       $pdata$?parse_int_from_format_string@?$output_processor@_WV?$string_output_adapter@_W@__crt_stdio_output@@V?$standard_base@_WV?$string_output_adapter@_W@__crt_stdio_output@@@2@@__crt_stdio_output@@AEAA_NQEAH@Z 0000000180053cb0     libucrt:output.obj
 0004:00001cb0       $pdata$?parse_int_from_format_string@?$output_processor@_WV?$stream_output_adapter@_W@__crt_stdio_output@@V?$standard_base@_WV?$stream_output_adapter@_W@__crt_stdio_output@@@2@@__crt_stdio_output@@AEAA_NQEAH@Z 0000000180053cb0     libucrt:output.obj
 0004:00001cbc       $pdata$?process@?$output_processor@_WV?$stream_output_adapter@_W@__crt_stdio_output@@V?$standard_base@_WV?$stream_output_adapter@_W@__crt_stdio_output@@@2@@__crt_stdio_output@@QEAAHXZ 0000000180053cbc     libucrt:output.obj
 0004:00001cc8       $pdata$?process@?$output_processor@_WV?$string_output_adapter@_W@__crt_stdio_output@@V?$standard_base@_WV?$string_output_adapter@_W@__crt_stdio_output@@@2@@__crt_stdio_output@@QEAAHXZ 0000000180053cc8     libucrt:output.obj
 0004:00001cd4       $pdata$?state_case_size@?$output_processor@_WV?$stream_output_adapter@_W@__crt_stdio_output@@V?$standard_base@_WV?$stream_output_adapter@_W@__crt_stdio_output@@@2@@__crt_stdio_output@@AEAA_NXZ 0000000180053cd4     libucrt:output.obj
 0004:00001ce0       $pdata$?state_case_size@?$output_processor@_WV?$string_output_adapter@_W@__crt_stdio_output@@V?$standard_base@_WV?$string_output_adapter@_W@__crt_stdio_output@@@2@@__crt_stdio_output@@AEAA_NXZ 0000000180053ce0     libucrt:output.obj
 0004:00001cec       $pdata$?state_case_type@?$output_processor@_WV?$stream_output_adapter@_W@__crt_stdio_output@@V?$standard_base@_WV?$stream_output_adapter@_W@__crt_stdio_output@@@2@@__crt_stdio_output@@AEAA_NXZ 0000000180053cec     libucrt:output.obj
 0004:00001cf8       $pdata$?state_case_type@?$output_processor@_WV?$string_output_adapter@_W@__crt_stdio_output@@V?$standard_base@_WV?$string_output_adapter@_W@__crt_stdio_output@@@2@@__crt_stdio_output@@AEAA_NXZ 0000000180053cf8     libucrt:output.obj
 0004:00001d04       $pdata$?type_case_Z@?$output_processor@_WV?$string_output_adapter@_W@__crt_stdio_output@@V?$standard_base@_WV?$string_output_adapter@_W@__crt_stdio_output@@@2@@__crt_stdio_output@@AEAA_NXZ 0000000180053d04     libucrt:output.obj
 0004:00001d04       $pdata$?type_case_Z@?$output_processor@_WV?$stream_output_adapter@_W@__crt_stdio_output@@V?$standard_base@_WV?$stream_output_adapter@_W@__crt_stdio_output@@@2@@__crt_stdio_output@@AEAA_NXZ 0000000180053d04     libucrt:output.obj
 0004:00001d10       $pdata$?type_case_a@?$output_processor@_WV?$string_output_adapter@_W@__crt_stdio_output@@V?$standard_base@_WV?$string_output_adapter@_W@__crt_stdio_output@@@2@@__crt_stdio_output@@AEAA_NXZ 0000000180053d10     libucrt:output.obj
 0004:00001d10       $pdata$?type_case_a@?$output_processor@_WV?$stream_output_adapter@_W@__crt_stdio_output@@V?$standard_base@_WV?$stream_output_adapter@_W@__crt_stdio_output@@@2@@__crt_stdio_output@@AEAA_NXZ 0000000180053d10     libucrt:output.obj
 0004:00001d1c       $pdata$?type_case_c_tchar@?$output_processor@_WV?$string_output_adapter@_W@__crt_stdio_output@@V?$standard_base@_WV?$string_output_adapter@_W@__crt_stdio_output@@@2@@__crt_stdio_output@@AEAA_N_W@Z 0000000180053d1c     libucrt:output.obj
 0004:00001d1c       $pdata$?type_case_c_tchar@?$output_processor@_WV?$stream_output_adapter@_W@__crt_stdio_output@@V?$standard_base@_WV?$stream_output_adapter@_W@__crt_stdio_output@@@2@@__crt_stdio_output@@AEAA_N_W@Z 0000000180053d1c     libucrt:output.obj
 0004:00001d28       $pdata$?type_case_integer@?$output_processor@_WV?$stream_output_adapter@_W@__crt_stdio_output@@V?$standard_base@_WV?$stream_output_adapter@_W@__crt_stdio_output@@@2@@__crt_stdio_output@@AEAA_NI_N@Z 0000000180053d28     libucrt:output.obj
 0004:00001d28       $pdata$?type_case_integer@?$output_processor@_WV?$string_output_adapter@_W@__crt_stdio_output@@V?$standard_base@_WV?$string_output_adapter@_W@__crt_stdio_output@@@2@@__crt_stdio_output@@AEAA_NI_N@Z 0000000180053d28     libucrt:output.obj
 0004:00001d34       $pdata$?type_case_n@?$output_processor@_WV?$string_output_adapter@_W@__crt_stdio_output@@V?$standard_base@_WV?$string_output_adapter@_W@__crt_stdio_output@@@2@@__crt_stdio_output@@AEAA_NXZ 0000000180053d34     libucrt:output.obj
 0004:00001d34       $pdata$?type_case_n@?$output_processor@_WV?$stream_output_adapter@_W@__crt_stdio_output@@V?$standard_base@_WV?$stream_output_adapter@_W@__crt_stdio_output@@@2@@__crt_stdio_output@@AEAA_NXZ 0000000180053d34     libucrt:output.obj
 0004:00001d40       $pdata$?type_case_s@?$output_processor@_WV?$stream_output_adapter@_W@__crt_stdio_output@@V?$standard_base@_WV?$stream_output_adapter@_W@__crt_stdio_output@@@2@@__crt_stdio_output@@AEAA_NXZ 0000000180053d40     libucrt:output.obj
 0004:00001d40       $pdata$?type_case_s@?$output_processor@_WV?$string_output_adapter@_W@__crt_stdio_output@@V?$standard_base@_WV?$string_output_adapter@_W@__crt_stdio_output@@@2@@__crt_stdio_output@@AEAA_NXZ 0000000180053d40     libucrt:output.obj
 0004:00001d4c       $pdata$?write_stored_string_tchar@?$output_processor@_WV?$stream_output_adapter@_W@__crt_stdio_output@@V?$standard_base@_WV?$stream_output_adapter@_W@__crt_stdio_output@@@2@@__crt_stdio_output@@AEAA_N_W@Z 0000000180053d4c     libucrt:output.obj
 0004:00001d58       $pdata$?write_stored_string_tchar@?$output_processor@_WV?$string_output_adapter@_W@__crt_stdio_output@@V?$standard_base@_WV?$string_output_adapter@_W@__crt_stdio_output@@@2@@__crt_stdio_output@@AEAA_N_W@Z 0000000180053d58     libucrt:output.obj
 0004:00001d64       $pdata$?write_string@?$stream_output_adapter@_W@__crt_stdio_output@@QEBAXQEB_WHQEAH1@Z 0000000180053d64     libucrt:output.obj
 0004:00001d70       $pdata$?write_string@?$string_output_adapter@_W@__crt_stdio_output@@QEBAXQEB_WHQEAH1@Z 0000000180053d70     libucrt:output.obj
 0004:00001d7c       $pdata$__stdio_common_vfwprintf 0000000180053d7c     libucrt:output.obj
 0004:00001d88       $pdata$__stdio_common_vswprintf 0000000180053d88     libucrt:output.obj
 0004:00001d94       $pdata$wcsncpy             0000000180053d94     libucrt:wcsncpy.obj
 0004:00001da0       $pdata$??$common_assert_to_message_box@_W@@YAXQEB_W0IQEAX@Z 0000000180053da0     libucrt:assert.obj
 0004:00001dac       $pdata$??$common_assert_to_message_box_build_string@_W@@YAXQEA_W_KQEB_W2IQEAX@Z 0000000180053dac     libucrt:assert.obj
 0004:00001db8       $pdata$??$common_assert_to_stderr@_W@@YAXQEB_W0I@Z 0000000180053db8     libucrt:assert.obj
 0004:00001dc4       $pdata$_wassert            0000000180053dc4     libucrt:assert.obj
 0004:00001dd0       $pdata$fwprintf            0000000180053dd0     libucrt:assert.obj
 0004:00001ddc       $pdata$swprintf            0000000180053ddc     libucrt:assert.obj
 0004:00001de8       $pdata$_stricmp            0000000180053de8     libucrt:stricmp.obj
 0004:00001df4       $pdata$_stricmp_l          0000000180053df4     libucrt:stricmp.obj
 0004:00001e00       $pdata$__acrt_initialize_locks 0000000180053e00     libucrt:locks.obj
 0004:00001e0c       $pdata$__acrt_uninitialize_locks 0000000180053e0c     libucrt:locks.obj
 0004:00001e18       $pdata$__acrt_errno_map_os_error 0000000180053e18     libucrt:errno.obj
 0004:00001e24       $pdata$__doserrno          0000000180053e24     libucrt:errno.obj
 0004:00001e30       $pdata$_errno              0000000180053e30     libucrt:errno.obj
 0004:00001e3c       $pdata$__acrt_initialize_stdio 0000000180053e3c     libucrt:_file.obj
 0004:00001e48       $pdata$__acrt_uninitialize_stdio 0000000180053e48     libucrt:_file.obj
 0004:00001e54       $pdata$_get_stream_buffer_pointers 0000000180053e54     libucrt:_file.obj
 0004:00001e60       $pdata$_fclose_nolock      0000000180053e60     libucrt:fclose.obj
 0004:00001e6c       $pdata$fclose              0000000180053e6c     libucrt:fclose.obj
 0004:00001e78       $pdata$__acrt_stdio_flush_nolock 0000000180053e78     libucrt:fflush.obj
 0004:00001e84       $pdata$_fflush_nolock      0000000180053e84     libucrt:fflush.obj
 0004:00001e90       $pdata$common_flush_all    0000000180053e90     libucrt:fflush.obj
 0004:00001e9c       $pdata$fflush              0000000180053e9c     libucrt:fflush.obj
 0004:00001ea8       $pdata$_fgetc_nolock       0000000180053ea8     libucrt:fgetc.obj
 0004:00001eb4       $pdata$fgetc               0000000180053eb4     libucrt:fgetc.obj
 0004:00001ec0       $pdata$fgetpos             0000000180053ec0     libucrt:fgetpos.obj
 0004:00001ecc       $pdata$fputc               0000000180053ecc     libucrt:fputc.obj
 0004:00001ed8       $pdata$fsetpos             0000000180053ed8     libucrt:fsetpos.obj
 0004:00001ee4       $pdata$?common_fseek@@YAHV__crt_stdio_stream@@_JH@Z 0000000180053ee4     libucrt:fseek.obj
 0004:00001ef0       $pdata$?common_fseek_binary_mode_read_only_fast_track_nolock@@YA_NV__crt_stdio_stream@@_JH@Z 0000000180053ef0     libucrt:fseek.obj
 0004:00001efc       $pdata$?common_fseek_nolock@@YAHV__crt_stdio_stream@@_JH@Z 0000000180053efc     libucrt:fseek.obj
 0004:00001f08       $pdata$??$?RV<lambda_5d4c3fee44080f75d5d9762853974fe0>@@AEAV<lambda_532e024f4337e6fc7ad266c2bef9f4ed>@@V<lambda_c87bdc10097eb2402edb8ba9bdf0697b>@@@?$__crt_seh_guarded_call@_K@@QEAA_K$$QEAV<lambda_5d4c3fee44080f75d5d9762853974fe0>@@AEAV<lambda_532e024f4337e6fc7ad266c2bef9f4ed>@@$$QEAV<lambda_c87bdc10097eb2402edb8ba9bdf0697b>@@@Z 0000000180053f08     libucrt:fwrite.obj
 0004:00001f14       $pdata$??R<lambda_532e024f4337e6fc7ad266c2bef9f4ed>@@QEBA_KXZ 0000000180053f14     libucrt:fwrite.obj
 0004:00001f20       $pdata$_fwrite_nolock      0000000180053f20     libucrt:fwrite.obj
 0004:00001f2c       $pdata$fwrite              0000000180053f2c     libucrt:fwrite.obj
 0004:00001f38       $pdata$??$?RV<lambda_7a5ef57ff966f610505f1d28a3d40618>@@AEAV<lambda_b721fa326cdb32351d23dfa67958c160>@@V<lambda_5e0fb27672408a07956fe59e48ccb2aa>@@@?$__crt_seh_guarded_call@H@@QEAAH$$QEAV<lambda_7a5ef57ff966f610505f1d28a3d40618>@@AEAV<lambda_b721fa326cdb32351d23dfa67958c160>@@$$QEAV<lambda_5e0fb27672408a07956fe59e48ccb2aa>@@@Z 0000000180053f38     libucrt:setvbuf.obj
 0004:00001f44       $pdata$??R<lambda_b721fa326cdb32351d23dfa67958c160>@@QEBAHXZ 0000000180053f44     libucrt:setvbuf.obj
 0004:00001f50       $pdata$setvbuf             0000000180053f50     libucrt:setvbuf.obj
 0004:00001f5c       $pdata$_ungetc_nolock      0000000180053f5c     libucrt:ungetc.obj
 0004:00001f68       $pdata$ungetc              0000000180053f68     libucrt:ungetc.obj
 0004:00001f74       $pdata$call_wsetlocale     0000000180053f74     libucrt:setlocale.obj
 0004:00001f80       $pdata$setlocale           0000000180053f80     libucrt:setlocale.obj
 0004:00001f8c       $pdata$_calloc_base        0000000180053f8c     libucrt:calloc_base.obj
 0004:00001f98       $pdata$__pctype_func       0000000180053f98     libucrt:ctype.obj
 0004:00001fa4       $pdata$isdigit             0000000180053fa4     libucrt:_ctype.obj
 0004:00001fb0       $pdata$islower             0000000180053fb0     libucrt:_ctype.obj
 0004:00001fbc       $pdata$isupper             0000000180053fbc     libucrt:_ctype.obj
 0004:00001fc8       $pdata$_wcsdup             0000000180053fc8     libucrt:wcsdup.obj
 0004:00001fd4       $pdata$___lc_codepage_func 0000000180053fd4     libucrt:initctype.obj
 0004:00001fe0       $pdata$___lc_locale_name_func 0000000180053fe0     libucrt:initctype.obj
 0004:00001fec       $pdata$__acrt_locale_initialize_ctype 0000000180053fec     libucrt:initctype.obj
 0004:00001ff8       $pdata$?x_ismbbtype_l@@YAHPEAU__crt_locale_pointers@@IHH@Z 0000000180053ff8     libucrt:ismbbyte.obj
 0004:00002004       $pdata$_malloc_base        0000000180054004     libucrt:malloc_base.obj
 0004:00002010       $pdata$_realloc_base       0000000180054010     libucrt:realloc_base.obj
 0004:0000201c       $pdata$?divide@__crt_strtox@@YA_KAEAUbig_integer@1@AEBU21@@Z 000000018005401c     libucrt:strtod.obj
 0004:00002028       $pdata$5$?divide@__crt_strtox@@YA_KAEAUbig_integer@1@AEBU21@@Z 0000000180054028     libucrt:strtod.obj
 0004:00002034       $pdata$6$?divide@__crt_strtox@@YA_KAEAUbig_integer@1@AEBU21@@Z 0000000180054034     libucrt:strtod.obj
 0004:00002040       $pdata$memcpy_s            0000000180054040     libucrt:strtod.obj
 0004:00002040       $pdata$memcpy_s            0000000180054040     libucrt:cfout.obj
 0004:00002064       $pdata$_free_base          0000000180054064     libucrt:free_base.obj
 0004:00002070       $pdata$wcscpy_s            0000000180054070     libucrt:wcscpy_s.obj
 0004:0000207c       $pdata$wcsnlen             000000018005407c     libucrt:strnlen.obj
 0004:00002088       $pdata$_recalloc_base      0000000180054088     libucrt:recalloc.obj
 0004:00002094       $pdata$_seh_filter_exe     0000000180054094     libucrt:exception_filter.obj
 0004:000020a0       $pdata$?common_exit@@YAXHW4_crt_exit_cleanup_mode@@W4_crt_exit_return_mode@@@Z 00000001800540a0     libucrt:exit.obj
 0004:000020ac       $pdata$?exit_or_terminate_process@@YAXI@Z 00000001800540ac     libucrt:exit.obj
 0004:000020b8       $pdata$?try_cor_exit_process@@YAXI@Z 00000001800540b8     libucrt:exit.obj
 0004:000020c4       $pdata$??$parse_command_line@D@@YAXPEADPEAPEAD0PEA_K2@Z 00000001800540c4     libucrt:argv_parsing.obj
 0004:000020d0       $pdata$__acrt_allocate_buffer_for_argv 00000001800540d0     libucrt:argv_parsing.obj
 0004:000020dc       $pdata$_configure_narrow_argv 00000001800540dc     libucrt:argv_parsing.obj
 0004:000020e8       $pdata$??$common_initialize_environment_nolock@D@@YAHXZ 00000001800540e8     libucrt:environment_initialization.obj
 0004:000020f4       $pdata$??$create_environment@D@@YAQEAPEADQEAD@Z 00000001800540f4     libucrt:environment_initialization.obj
 0004:00002100       $pdata$??$free_environment@D@@YAXQEAPEAD@Z 0000000180054100     libucrt:environment_initialization.obj
 0004:00002100       $pdata$??$free_environment@_W@@YAXQEAPEA_W@Z 0000000180054100     libucrt:environment_initialization.obj
 0004:0000210c       $pdata$??$uninitialize_environment_internal@D@@YAXAEAPEAPEAD@Z 000000018005410c     libucrt:environment_initialization.obj
 0004:00002118       $pdata$??$uninitialize_environment_internal@_W@@YAXAEAPEAPEA_W@Z 0000000180054118     libucrt:environment_initialization.obj
 0004:00002124       $pdata$__dcrt_uninitialize_environments_nolock 0000000180054124     libucrt:environment_initialization.obj
 0004:00002130       $pdata$??$?RV<lambda_b8c45f8f788dd370798f47cfe8ac3a86>@@AEAV<lambda_4e60a939b0d047cfe11ddc22648dfba9>@@V<lambda_332c3edc96d0294ec56c57d38c1cdfd5>@@@?$__crt_seh_guarded_call@H@@QEAAH$$QEAV<lambda_b8c45f8f788dd370798f47cfe8ac3a86>@@AEAV<lambda_4e60a939b0d047cfe11ddc22648dfba9>@@$$QEAV<lambda_332c3edc96d0294ec56c57d38c1cdfd5>@@@Z 0000000180054130     libucrt:onexit.obj
 0004:0000213c       $pdata$??$?RV<lambda_e24bbb7b643b32fcea6fa61b31d4c984>@@AEAV<lambda_275893d493268fdec8709772e3fcec0e>@@V<lambda_9d71df4d7cf3f480f8d633942495c3b0>@@@?$__crt_seh_guarded_call@H@@QEAAH$$QEAV<lambda_e24bbb7b643b32fcea6fa61b31d4c984>@@AEAV<lambda_275893d493268fdec8709772e3fcec0e>@@$$QEAV<lambda_9d71df4d7cf3f480f8d633942495c3b0>@@@Z 000000018005413c     libucrt:onexit.obj
 0004:00002148       $pdata$??R<lambda_4e60a939b0d047cfe11ddc22648dfba9>@@QEBAHXZ 0000000180054148     libucrt:onexit.obj
 0004:00002154       $pdata$_execute_onexit_table 0000000180054154     libucrt:onexit.obj
 0004:00002160       $pdata$_register_onexit_function 0000000180054160     libucrt:onexit.obj
 0004:0000216c       $pdata$initialize_c        000000018005416c     libucrt:initialization.obj
 0004:00002178       $pdata$uninitialize_environment 0000000180054178     libucrt:initialization.obj
 0004:00002184       $pdata$initialize_pointers 0000000180054184     libucrt:initialization.obj
 0004:00002190       $pdata$uninitialize_allocated_memory 0000000180054190     libucrt:initialization.obj
 0004:0000219c       $pdata$__acrt_thread_attach 000000018005419c     libucrt:initialization.obj
 0004:000021a8       $pdata$__acrt_thread_detach 00000001800541a8     libucrt:initialization.obj
 0004:000021b4       $pdata$__acrt_uninitialize_critical 00000001800541b4     libucrt:initialization.obj
 0004:000021c0       $pdata$_callnewh           00000001800541c0     libucrt:new_handler.obj
 0004:000021cc       $pdata$_query_new_handler  00000001800541cc     libucrt:new_handler.obj
 0004:000021d8       $pdata$_initterm           00000001800541d8     libucrt:initterm.obj
 0004:000021e4       $pdata$_initterm_e         00000001800541e4     libucrt:initterm.obj
 0004:000021f0       $pdata$terminate           00000001800541f0     libucrt:terminate.obj
 0004:000021fc       $pdata$strcpy_s            00000001800541fc     libucrt:strcpy_s.obj
 0004:00002208       $pdata$??$parse_integer@KV?$c_string_character_source@_W@__crt_strtox@@@__crt_strtox@@YAKQEAU__crt_locale_pointers@@V?$c_string_character_source@_W@0@H_N@Z 0000000180054208     libucrt:atox.obj
 0004:00002214       $pdata$_wtol               0000000180054214     libucrt:atox.obj
 0004:00002220       $pdata$??$?RV<lambda_c36588078e9f5dfd39652860aa6b3aaf>@@AEAV<lambda_ec61778202f4f5fc7e7711acc23c3bca>@@V<lambda_dc9d2797ccde5d239b4a0efae8ebd7db>@@@?$__crt_seh_guarded_call@P6AXH@Z@@QEAAP6AXH@Z$$QEAV<lambda_c36588078e9f5dfd39652860aa6b3aaf>@@AEAV<lambda_ec61778202f4f5fc7e7711acc23c3bca>@@$$QEAV<lambda_dc9d2797ccde5d239b4a0efae8ebd7db>@@@Z 0000000180054220     libucrt:signal.obj
 0004:0000222c       $pdata$__acrt_get_sigabrt_handler 000000018005422c     libucrt:signal.obj
 0004:00002238       $pdata$raise               0000000180054238     libucrt:signal.obj
 0004:00002244       $pdata$??$?RV<lambda_46352004c1216016012b18bd6f87e700>@@AEAV<lambda_3bd07e1a1191394380780325891bf33f>@@V<lambda_334532d3f185bcaa59b5be82d7d22bff>@@@?$__crt_seh_guarded_call@X@@QEAAX$$QEAV<lambda_46352004c1216016012b18bd6f87e700>@@AEAV<lambda_3bd07e1a1191394380780325891bf33f>@@$$QEAV<lambda_334532d3f185bcaa59b5be82d7d22bff>@@@Z 0000000180054244     libucrt:per_thread_data.obj
 0004:00002250       $pdata$??$?RV<lambda_5e887d1dcbef67a5eb4283622ba103bf>@@AEAV<lambda_4466841279450cc726390878d4a41900>@@V<lambda_341c25c0346d94847f1f3c463c57e077>@@@?$__crt_seh_guarded_call@X@@QEAAX$$QEAV<lambda_5e887d1dcbef67a5eb4283622ba103bf>@@AEAV<lambda_4466841279450cc726390878d4a41900>@@$$QEAV<lambda_341c25c0346d94847f1f3c463c57e077>@@@Z 0000000180054250     libucrt:per_thread_data.obj
 0004:0000225c       $pdata$??$?RV<lambda_72d1df2b273a38828b1ce30cbf4cdab5>@@AEAV<lambda_876a65b173b8412d3a47c70a915b0cf4>@@V<lambda_41932305e351933ebe8f8be3ed8bb5dc>@@@?$__crt_seh_guarded_call@X@@QEAAX$$QEAV<lambda_72d1df2b273a38828b1ce30cbf4cdab5>@@AEAV<lambda_876a65b173b8412d3a47c70a915b0cf4>@@$$QEAV<lambda_41932305e351933ebe8f8be3ed8bb5dc>@@@Z 000000018005425c     libucrt:per_thread_data.obj
 0004:00002268       $pdata$??$?RV<lambda_fb3a7dec4e47f37f22dae91bb15c9095>@@AEAV<lambda_698284760c8add0bfb0756c19673e34b>@@V<lambda_dfb8eca1e75fef3034a8fb18dd509707>@@@?$__crt_seh_guarded_call@X@@QEAAX$$QEAV<lambda_fb3a7dec4e47f37f22dae91bb15c9095>@@AEAV<lambda_698284760c8add0bfb0756c19673e34b>@@$$QEAV<lambda_dfb8eca1e75fef3034a8fb18dd509707>@@@Z 0000000180054268     libucrt:per_thread_data.obj
 0004:00002274       $pdata$?construct_ptd_array@@YAXQEAU__acrt_ptd@@@Z 0000000180054274     libucrt:per_thread_data.obj
 0004:00002280       $pdata$?destroy_fls@@YAXPEAX@Z 0000000180054280     libucrt:per_thread_data.obj
 0004:0000228c       $pdata$?destroy_ptd_array@@YAXQEAU__acrt_ptd@@@Z 000000018005428c     libucrt:per_thread_data.obj
 0004:00002298       $pdata$?replace_current_thread_locale_nolock@@YAXQEAU__acrt_ptd@@QEAU__crt_locale_data@@@Z 0000000180054298     libucrt:per_thread_data.obj
 0004:000022a4       $pdata$__acrt_freeptd      00000001800542a4     libucrt:per_thread_data.obj
 0004:000022b0       $pdata$__acrt_getptd       00000001800542b0     libucrt:per_thread_data.obj
 0004:000022bc       $pdata$__acrt_getptd_noexit 00000001800542bc     libucrt:per_thread_data.obj
 0004:000022c8       $pdata$__acrt_initialize_ptd 00000001800542c8     libucrt:per_thread_data.obj
 0004:000022d4       $pdata$__acrt_uninitialize_ptd 00000001800542d4     libucrt:per_thread_data.obj
 0004:000022e0       $pdata$_isleadbyte_l       00000001800542e0     libucrt:_wctype.obj
 0004:000022ec       $pdata$_isctype_l          00000001800542ec     libucrt:isctype.obj
 0004:000022f8       $pdata$?__acrt_LCMapStringA_stat@@YAHPEAU__crt_locale_pointers@@PEB_WKPEBDHPEADHHH@Z 00000001800542f8     libucrt:lcmapstringa.obj
 0004:00002304       $pdata$__acrt_LCMapStringA 0000000180054304     libucrt:lcmapstringa.obj
 0004:00002310       $pdata$__acrt_update_locale_info 0000000180054310     libucrt:locale_update.obj
 0004:0000231c       $pdata$__acrt_update_multibyte_info 000000018005431c     libucrt:locale_update.obj
 0004:00002328       $pdata$??$?RV<lambda_5df02c53a8f32f81fd64e5bbb78039f1>@@AEAV<lambda_2af78c5f5901b1372d98f9ab3177dfa6>@@AEAV<lambda_f51fe5fd7c79a33db34fc9310f277369>@@@?$__crt_seh_guarded_call@X@@QEAAX$$QEAV<lambda_5df02c53a8f32f81fd64e5bbb78039f1>@@AEAV<lambda_2af78c5f5901b1372d98f9ab3177dfa6>@@AEAV<lambda_f51fe5fd7c79a33db34fc9310f277369>@@@Z 0000000180054328     libucrt:wsetlocale.obj
 0004:00002334       $pdata$??$?RV<lambda_d67e8342c384adda8f857579ab50b2ae>@@AEAV<lambda_30712929f77e709619002f448b6a9510>@@V<lambda_4525336fd7e478d965fb7ca7a337cad8>@@@?$__crt_seh_guarded_call@X@@QEAAX$$QEAV<lambda_d67e8342c384adda8f857579ab50b2ae>@@AEAV<lambda_30712929f77e709619002f448b6a9510>@@$$QEAV<lambda_4525336fd7e478d965fb7ca7a337cad8>@@@Z 0000000180054334     libucrt:wsetlocale.obj
 0004:00002340       $pdata$??R<lambda_2af78c5f5901b1372d98f9ab3177dfa6>@@QEBAXXZ 0000000180054340     libucrt:wsetlocale.obj
 0004:0000234c       $pdata$__acrt_copy_locale_name 000000018005434c     libucrt:wsetlocale.obj
 0004:00002358       $pdata$__acrt_uninitialize_locale 0000000180054358     libucrt:wsetlocale.obj
 0004:00002364       $pdata$__lc_lctowcs        0000000180054364     libucrt:wsetlocale.obj
 0004:00002370       $pdata$__lc_wcstolc        0000000180054370     libucrt:wsetlocale.obj
 0004:0000237c       $pdata$_copytlocinfo_nolock 000000018005437c     libucrt:wsetlocale.obj
 0004:00002388       $pdata$_expandlocale       0000000180054388     libucrt:wsetlocale.obj
 0004:00002394       $pdata$_wcscats            0000000180054394     libucrt:wsetlocale.obj
 0004:000023a0       $pdata$_wsetlocale         00000001800543a0     libucrt:wsetlocale.obj
 0004:000023ac       $pdata$_wsetlocale_get_all 00000001800543ac     libucrt:wsetlocale.obj
 0004:000023b8       $pdata$_wsetlocale_nolock  00000001800543b8     libucrt:wsetlocale.obj
 0004:000023c4       $pdata$_wsetlocale_set_cat 00000001800543c4     libucrt:wsetlocale.obj
 0004:000023d0       $pdata$wcstol              00000001800543d0     libucrt:strtox.obj
 0004:000023dc       $pdata$_mbtowc_l           00000001800543dc     libucrt:mbtowc.obj
 0004:000023e8       $pdata$_wctomb_s_l         00000001800543e8     libucrt:wctomb.obj
 0004:000023f4       $pdata$wctomb_s            00000001800543f4     libucrt:wctomb.obj
 0004:00002400       $pdata$?fp_format_a@@YAHQEBNPEAD_KQEAD2H_NIQEAU__crt_locale_pointers@@@Z 0000000180054400     libucrt:cvt.obj
 0004:0000240c       $pdata$?fp_format_e@@YAHQEBNQEAD_K12H_NIQEAU__crt_locale_pointers@@@Z 000000018005440c     libucrt:cvt.obj
 0004:00002418       $pdata$?fp_format_e_internal@@YAHQEAD_KH_NIQEAU_strflt@@2QEAU__crt_locale_pointers@@@Z 0000000180054418     libucrt:cvt.obj
 0004:00002424       $pdata$?fp_format_f_internal@@YAHQEAD_KHQEAU_strflt@@_NQEAU__crt_locale_pointers@@@Z 0000000180054424     libucrt:cvt.obj
 0004:00002430       $pdata$?fp_format_g@@YAHQEBNQEAD_K12H_NIQEAU__crt_locale_pointers@@@Z 0000000180054430     libucrt:cvt.obj
 0004:0000243c       $pdata$?fp_format_nan_or_infinity@@YAHW4__acrt_fp_class@@_NPEAD_K1@Z 000000018005443c     libucrt:cvt.obj
 0004:00002448       $pdata$__acrt_fp_format    0000000180054448     libucrt:cvt.obj
 0004:00002454       $pdata$_fputwc_nolock      0000000180054454     libucrt:fputwc.obj
 0004:00002460       $pdata$_fileno             0000000180054460     libucrt:fileno.obj
 0004:0000246c       $pdata$__acrt_stdio_begin_temporary_buffering_nolock 000000018005446c     libucrt:_sftbuf.obj
 0004:00002478       $pdata$__acrt_stdio_end_temporary_buffering_nolock 0000000180054478     libucrt:_sftbuf.obj
 0004:00002484       $pdata$?initialize_inherited_file_handles_nolock@@YAXXZ 0000000180054484     libucrt:ioinit.obj
 0004:00002490       $pdata$?initialize_stdio_handles_nolock@@YAXXZ 0000000180054490     libucrt:ioinit.obj
 0004:0000249c       $pdata$__acrt_initialize_lowio 000000018005449c     libucrt:ioinit.obj
 0004:000024a8       $pdata$__acrt_uninitialize_lowio 00000001800544a8     libucrt:ioinit.obj
 0004:000024b4       $pdata$_raise_exc          00000001800544b4     libucrt:fpexcept.obj
 0004:000024c0       $pdata$_raise_exc_ex       00000001800544c0     libucrt:fpexcept.obj
 0004:000024cc       $pdata$_raise_excf         00000001800544cc     libucrt:fpexcept.obj
 0004:000024d8       $pdata$_set_errno_from_matherr 00000001800544d8     libucrt:fpexcept.obj
 0004:000024e4       $pdata$_clrfp              00000001800544e4     libucrt:fpctrl.obj
 0004:000024f0       $pdata$_ctrlfp             00000001800544f0     libucrt:fpctrl.obj
 0004:000024fc       $pdata$_set_statfp         00000001800544fc     libucrt:fpctrl.obj
 0004:00002508       $pdata$_statfp             0000000180054508     libucrt:fpctrl.obj
 0004:00002514       $pdata$??$common_xtox@K_W@@YAHKQEA_W_KI_N@Z 0000000180054514     libucrt:xtoa.obj
 0004:00002520       $pdata$??$common_xtox_s@K_W@@YAHKQEA_W_KI_N@Z 0000000180054520     libucrt:xtoa.obj
 0004:0000252c       $pdata$_itow_s             000000018005452c     libucrt:xtoa.obj
 0004:00002538       $pdata$_set_error_mode     0000000180054538     libucrt:set_error_mode.obj
 0004:00002544       $pdata$wcscat_s            0000000180054544     libucrt:wcscat_s.obj
 0004:00002550       $pdata$wcsncat_s           0000000180054550     libucrt:wcsncat_s.obj
 0004:0000255c       $pdata$??$message_box_wait_thread@_W@@YAKQEAX@Z 000000018005455c     libucrt:crtmbox.obj
 0004:00002568       $pdata$__acrt_show_wide_message_box 0000000180054568     libucrt:crtmbox.obj
 0004:00002574       $pdata$?<helper_func_cdecl>@<lambda_e2bb8337c48846e80c921ea5ddadc92d>@@CAHPEA_W@Z 0000000180054574     libucrt:winapi_thunks.obj
 0004:00002580       $pdata$??$?RV<lambda_630b2aca97f6d20d5b5ea6529ea6b6af>@@AEAV<lambda_af91936f1d075d609f72d9d8cba980af>@@V<lambda_e82fa975f615b5c7c7b0e4d178fdae67>@@@?$__crt_seh_guarded_call@H@@QEAAH$$QEAV<lambda_630b2aca97f6d20d5b5ea6529ea6b6af>@@AEAV<lambda_af91936f1d075d609f72d9d8cba980af>@@$$QEAV<lambda_e82fa975f615b5c7c7b0e4d178fdae67>@@@Z 0000000180054580     libucrt:winapi_thunks.obj
 0004:0000258c       $pdata$?try_get_function@@YAPEAXW4function_id@?A0x63058377@@QEBDQEBW4module_id@2@2@Z 000000018005458c     libucrt:winapi_thunks.obj
 0004:00002598       $pdata$__acrt_EnumSystemLocalesEx 0000000180054598     libucrt:winapi_thunks.obj
 0004:000025a4       $pdata$__acrt_FlsAlloc     00000001800545a4     libucrt:winapi_thunks.obj
 0004:000025b0       $pdata$__acrt_FlsFree      00000001800545b0     libucrt:winapi_thunks.obj
 0004:000025bc       $pdata$__acrt_FlsGetValue  00000001800545bc     libucrt:winapi_thunks.obj
 0004:000025c8       $pdata$__acrt_FlsSetValue  00000001800545c8     libucrt:winapi_thunks.obj
 0004:000025d4       $pdata$__acrt_GetLocaleInfoEx 00000001800545d4     libucrt:winapi_thunks.obj
 0004:000025e0       $pdata$__acrt_GetUserDefaultLocaleName 00000001800545e0     libucrt:winapi_thunks.obj
 0004:000025ec       $pdata$__acrt_InitializeCriticalSectionEx 00000001800545ec     libucrt:winapi_thunks.obj
 0004:000025f8       $pdata$__acrt_IsValidLocaleName 00000001800545f8     libucrt:winapi_thunks.obj
 0004:00002604       $pdata$__acrt_LCIDToLocaleName 0000000180054604     libucrt:winapi_thunks.obj
 0004:00002610       $pdata$__acrt_LCMapStringEx 0000000180054610     libucrt:winapi_thunks.obj
 0004:0000261c       $pdata$__acrt_LocaleNameToLCID 000000018005461c     libucrt:winapi_thunks.obj
 0004:00002628       $pdata$__acrt_MessageBoxW  0000000180054628     libucrt:winapi_thunks.obj
 0004:00002634       $pdata$__acrt_can_show_message_box 0000000180054634     libucrt:winapi_thunks.obj
 0004:00002640       $pdata$__acrt_can_use_vista_locale_apis 0000000180054640     libucrt:winapi_thunks.obj
 0004:0000264c       $pdata$__acrt_get_parent_window 000000018005464c     libucrt:winapi_thunks.obj
 0004:00002658       $pdata$__acrt_initialize_winapi_thunks 0000000180054658     libucrt:winapi_thunks.obj
 0004:00002664       $pdata$__acrt_is_interactive 0000000180054664     libucrt:winapi_thunks.obj
 0004:00002670       $pdata$__acrt_is_packaged_app 0000000180054670     libucrt:winapi_thunks.obj
 0004:0000267c       $pdata$__acrt_uninitialize_winapi_thunks 000000018005467c     libucrt:winapi_thunks.obj
 0004:00002688       $pdata$_fcloseall          0000000180054688     libucrt:closeall.obj
 0004:00002694       $pdata$__acrt_stdio_free_buffer_nolock 0000000180054694     libucrt:_freebuf.obj
 0004:000026a0       $pdata$??$?RV<lambda_bfedae4ebbf01fab1bb6dcc6a9e276e0>@@AEAV<lambda_2fe9b910cf3cbf4a0ab98a02ba45b3ec>@@V<lambda_237c231691f317818eb88cc1d5d642d6>@@@?$__crt_seh_guarded_call@H@@QEAAH$$QEAV<lambda_bfedae4ebbf01fab1bb6dcc6a9e276e0>@@AEAV<lambda_2fe9b910cf3cbf4a0ab98a02ba45b3ec>@@$$QEAV<lambda_237c231691f317818eb88cc1d5d642d6>@@@Z 00000001800546a0     libucrt:close.obj
 0004:000026ac       $pdata$_close              00000001800546ac     libucrt:close.obj
 0004:000026b8       $pdata$_close_nolock       00000001800546b8     libucrt:close.obj
 0004:000026c4       $pdata$??$?RV<lambda_b521505b218e5242e90febf6bfebc422>@@AEAV<lambda_6978c1fb23f02e42e1d9e99668cc68aa>@@V<lambda_314360699dd331753a4119843814e9a7>@@@?$__crt_seh_guarded_call@H@@QEAAH$$QEAV<lambda_b521505b218e5242e90febf6bfebc422>@@AEAV<lambda_6978c1fb23f02e42e1d9e99668cc68aa>@@$$QEAV<lambda_314360699dd331753a4119843814e9a7>@@@Z 00000001800546c4     libucrt:commit.obj
 0004:000026d0       $pdata$_commit             00000001800546d0     libucrt:commit.obj
 0004:000026dc       $pdata$?write_double_translated_ansi_nolock@@YA?AUwrite_result@?A0x9c548279@@HQEBDI@Z 00000001800546dc     libucrt:write.obj
 0004:000026e8       $pdata$?write_text_ansi_nolock@@YA?AUwrite_result@?A0x9c548279@@HQEBDI@Z 00000001800546e8     libucrt:write.obj
 0004:000026f4       $pdata$?write_text_utf16le_nolock@@YA?AUwrite_result@?A0x9c548279@@HQEBDI@Z 00000001800546f4     libucrt:write.obj
 0004:00002700       $pdata$?write_text_utf8_nolock@@YA?AUwrite_result@?A0x9c548279@@HQEBDI@Z 0000000180054700     libucrt:write.obj
 0004:0000270c       $pdata$_write              000000018005470c     libucrt:write.obj
 0004:00002718       $pdata$_write_nolock       0000000180054718     libucrt:write.obj
 0004:00002724       $pdata$??$common_refill_and_read_nolock@D@@YAHV__crt_stdio_stream@@@Z 0000000180054724     libucrt:_filbuf.obj
 0004:00002730       $pdata$??$common_ftell@_J@@YA_JV__crt_stdio_stream@@@Z 0000000180054730     libucrt:ftell.obj
 0004:0000273c       $pdata$??$common_ftell_nolock@_J@@YA_JV__crt_stdio_stream@@@Z 000000018005473c     libucrt:ftell.obj
 0004:00002748       $pdata$?common_ftell_read_mode_nolock@@YA_JV__crt_stdio_stream@@_J1@Z 0000000180054748     libucrt:ftell.obj
 0004:00002754       $pdata$?common_ftell_translated_utf8_nolock@@YA_JV__crt_stdio_stream@@_J@Z 0000000180054754     libucrt:ftell.obj
 0004:00002760       $pdata$??$write_buffer_nolock@D@@YA_NDV__crt_stdio_stream@@@Z 0000000180054760     libucrt:_flsbuf.obj
 0004:0000276c       $pdata$??$write_buffer_nolock@_W@@YA_N_WV__crt_stdio_stream@@@Z 000000018005476c     libucrt:_flsbuf.obj
 0004:00002778       $pdata$__acrt_stdio_flush_and_write_narrow_nolock 0000000180054778     libucrt:_flsbuf.obj
 0004:00002784       $pdata$__acrt_stdio_flush_and_write_wide_nolock 0000000180054784     libucrt:_flsbuf.obj
 0004:00002790       $pdata$??$common_lseek@_J@@YA_JH_JH@Z 0000000180054790     libucrt:lseek.obj
 0004:0000279c       $pdata$??$common_lseek_nolock@_J@@YA_JH_JH@Z 000000018005479c     libucrt:lseek.obj
 0004:000027a8       $pdata$__acrt_stdio_allocate_buffer_nolock 00000001800547a8     libucrt:_getbuf.obj
 0004:000027b4       $pdata$?_mbstowcs_l_helper@@YA_KPEA_WPEBD_KPEAU__crt_locale_pointers@@@Z 00000001800547b4     libucrt:mbstowcs.obj
 0004:000027c0       $pdata$_mbstowcs_s_l       00000001800547c0     libucrt:mbstowcs.obj
 0004:000027cc       $pdata$mbstowcs_s          00000001800547cc     libucrt:mbstowcs.obj
 0004:000027d8       $pdata$?_wcstombs_l_helper@@YA_KPEADPEB_W_KPEAU__crt_locale_pointers@@@Z 00000001800547d8     libucrt:wcstombs.obj
 0004:000027e4       $pdata$_wcstombs_s_l       00000001800547e4     libucrt:wcstombs.obj
 0004:000027f0       $pdata$__acrt_initialize_heap 00000001800547f0     libucrt:heap_handle.obj
 0004:000027fc       $pdata$?InternalGetLocaleInfoA@@YAHQEAU__crt_locale_pointers@@QEB_WKQEADH@Z 00000001800547fc     libucrt:getlocaleinfoa.obj
 0004:00002808       $pdata$__acrt_GetLocaleInfoA 0000000180054808     libucrt:getlocaleinfoa.obj
 0004:00002814       $pdata$__acrt_GetStringTypeA 0000000180054814     libucrt:getstringtypea.obj
 0004:00002820       $pdata$iswctype            0000000180054820     libucrt:iswctype.obj
 0004:0000282c       $pdata$__acrt_initialize_fma3 000000018005482c     libucrt:fma3_available.obj
 0004:00002838       $pdata$_pow_special        0000000180054838     libucrt:pow_special.obj
 0004:00002844       $pdata$_powf_special       0000000180054844     libucrt:pow_special.obj
 0004:00002850       $pdata$_wcsicmp            0000000180054850     libucrt:wcsicmp.obj
 0004:0000285c       $pdata$_wcsicmp_l          000000018005485c     libucrt:wcsicmp.obj
 0004:00002868       $pdata$_msize              0000000180054868     libucrt:msize.obj
 0004:00002874       $pdata$??$common_expand_argv_wildcards@D@@YAHQEAPEADQEAPEAPEAD@Z 0000000180054874     libucrt:argv_wildcards.obj
 0004:00002880       $pdata$??$copy_and_add_argument_to_buffer@D@@YAHQEBD0_KAEAV?$argument_list@D@?A0xca0879c4@@@Z 0000000180054880     libucrt:argv_wildcards.obj
 0004:0000288c       $pdata$??$expand_argument_wildcards@D@@YAHQEAD0AEAV?$argument_list@D@?A0xca0879c4@@@Z 000000018005488c     libucrt:argv_wildcards.obj
 0004:00002898       $pdata$?expand_if_necessary@?$argument_list@D@?A0xca0879c4@@AEAAHXZ 0000000180054898     libucrt:argv_wildcards.obj
 0004:000028a4       $pdata$??$?RV<lambda_99476a1ad63dd22509b5d3e65b0ffc95>@@AEAV<lambda_ad1ced32f4ac17aa236e5ef05d6b3b7c>@@V<lambda_f7424dd8d45958661754dc4f2697e9c3>@@@?$__crt_seh_guarded_call@X@@QEAAX$$QEAV<lambda_99476a1ad63dd22509b5d3e65b0ffc95>@@AEAV<lambda_ad1ced32f4ac17aa236e5ef05d6b3b7c>@@$$QEAV<lambda_f7424dd8d45958661754dc4f2697e9c3>@@@Z 00000001800548a4     libucrt:mbctype.obj
 0004:000028b0       $pdata$??R<lambda_ad1ced32f4ac17aa236e5ef05d6b3b7c>@@QEBAXXZ 00000001800548b0     libucrt:mbctype.obj
 0004:000028bc       $pdata$?getSystemCP@@YAHH@Z 00000001800548bc     libucrt:mbctype.obj
 0004:000028c8       $pdata$?setSBCS@@YAXPEAU__crt_multibyte_data@@@Z 00000001800548c8     libucrt:mbctype.obj
 0004:000028d4       $pdata$?setSBUpLow@@YAXPEAU__crt_multibyte_data@@@Z 00000001800548d4     libucrt:mbctype.obj
 0004:000028e0       $pdata$?setmbcp_internal@@YAHH_N@Z 00000001800548e0     libucrt:mbctype.obj
 0004:000028ec       $pdata$__acrt_initialize_multibyte 00000001800548ec     libucrt:mbctype.obj
 0004:000028f8       $pdata$__acrt_update_thread_multibyte_data 00000001800548f8     libucrt:mbctype.obj
 0004:00002904       $pdata$_setmbcp_nolock     0000000180054904     libucrt:mbctype.obj
 0004:00002910       $pdata$__acrt_initialize_command_line 0000000180054910     libucrt:argv_data.obj
 0004:0000291c       $pdata$__dcrt_get_narrow_environment_from_os 000000018005491c     libucrt:get_environment_from_os.obj
 0004:00002928       $pdata$__acrt_execute_initializers 0000000180054928     libucrt:shared_initialization.obj
 0004:00002934       $pdata$__acrt_execute_uninitializers 0000000180054934     libucrt:shared_initialization.obj
 0004:00002940       $pdata$__acrt_invoke_user_matherr 0000000180054940     libucrt:matherr.obj
 0004:0000294c       $pdata$__acrt_free_locale  000000018005494c     libucrt:locale_refcounting.obj
 0004:00002958       $pdata$__acrt_locale_free_lc_time_if_unreferenced 0000000180054958     libucrt:locale_refcounting.obj
 0004:00002964       $pdata$__acrt_release_locale_ref 0000000180054964     libucrt:locale_refcounting.obj
 0004:00002970       $pdata$__acrt_update_thread_locale_data 0000000180054970     libucrt:locale_refcounting.obj
 0004:0000297c       $pdata$_updatetlocinfoEx_nolock 000000018005497c     libucrt:locale_refcounting.obj
 0004:00002988       $pdata$__acrt_locale_free_monetary 0000000180054988     libucrt:initmon.obj
 0004:00002994       $pdata$__acrt_locale_initialize_monetary 0000000180054994     libucrt:initmon.obj
 0004:000029a0       $pdata$__acrt_locale_free_numeric 00000001800549a0     libucrt:initnum.obj
 0004:000029ac       $pdata$__acrt_locale_initialize_numeric 00000001800549ac     libucrt:initnum.obj
 0004:000029b8       $pdata$?free_crt_array_internal@@YAXQEAPEBX_K@Z 00000001800549b8     libucrt:inittime.obj
 0004:000029c4       $pdata$?initialize_lc_time@@YA_NQEAU__crt_lc_time_data@@QEAU__crt_locale_data@@@Z 00000001800549c4     libucrt:inittime.obj
 0004:000029d0       $pdata$__acrt_locale_free_time 00000001800549d0     libucrt:inittime.obj
 0004:000029dc       $pdata$__acrt_locale_initialize_time 00000001800549dc     libucrt:inittime.obj
 0004:000029e8       $pdata$wcsncpy_s           00000001800549e8     libucrt:wcsncpy_s.obj
 0004:000029f4       $pdata$GetLocaleNameFromDefault 00000001800549f4     libucrt:get_qualified_locale.obj
 0004:00002a00       $pdata$GetLocaleNameFromLangCountry 0000000180054a00     libucrt:get_qualified_locale.obj
 0004:00002a0c       $pdata$GetLocaleNameFromLanguage 0000000180054a0c     libucrt:get_qualified_locale.obj
 0004:00002a18       $pdata$LangCountryEnumProcEx 0000000180054a18     libucrt:get_qualified_locale.obj
 0004:00002a24       $pdata$LanguageEnumProcEx  0000000180054a24     libucrt:get_qualified_locale.obj
 0004:00002a30       $pdata$ProcessCodePage     0000000180054a30     libucrt:get_qualified_locale.obj
 0004:00002a3c       $pdata$TestDefaultCountry  0000000180054a3c     libucrt:get_qualified_locale.obj
 0004:00002a48       $pdata$TranslateName       0000000180054a48     libucrt:get_qualified_locale.obj
 0004:00002a54       $pdata$__acrt_get_qualified_locale 0000000180054a54     libucrt:get_qualified_locale.obj
 0004:00002a60       $pdata$CountryEnumProc     0000000180054a60     libucrt:getqloc_downlevel.obj
 0004:00002a6c       $pdata$GetLcidFromLangCountry 0000000180054a6c     libucrt:getqloc_downlevel.obj
 0004:00002a78       $pdata$GetLcidFromLanguage 0000000180054a78     libucrt:getqloc_downlevel.obj
 0004:00002a84       $pdata$LangCountryEnumProc 0000000180054a84     libucrt:getqloc_downlevel.obj
 0004:00002a90       $pdata$LanguageEnumProc    0000000180054a90     libucrt:getqloc_downlevel.obj
 0004:00002a9c       $pdata$ProcessCodePage     0000000180054a9c     libucrt:getqloc_downlevel.obj
 0004:00002aa8       $pdata$TestDefaultLanguage 0000000180054aa8     libucrt:getqloc_downlevel.obj
 0004:00002ab4       $pdata$TranslateName       0000000180054ab4     libucrt:getqloc_downlevel.obj
 0004:00002ac0       $pdata$__acrt_get_qualified_locale_downlevel 0000000180054ac0     libucrt:getqloc_downlevel.obj
 0004:00002acc       $pdata$__acrt_fp_strflt_to_string 0000000180054acc     libucrt:_fptostr.obj
 0004:00002ad8       $pdata$__acrt_fltout       0000000180054ad8     libucrt:cfout.obj
 0004:00002ae4       $pdata$_isatty             0000000180054ae4     libucrt:isatty.obj
 0004:00002af0       $pdata$__acrt_lowio_create_handle_array 0000000180054af0     libucrt:osfinfo.obj
 0004:00002afc       $pdata$__acrt_lowio_destroy_handle_array 0000000180054afc     libucrt:osfinfo.obj
 0004:00002b08       $pdata$__acrt_lowio_ensure_fh_exists 0000000180054b08     libucrt:osfinfo.obj
 0004:00002b14       $pdata$_free_osfhnd        0000000180054b14     libucrt:osfinfo.obj
 0004:00002b20       $pdata$_get_osfhandle      0000000180054b20     libucrt:osfinfo.obj
 0004:00002b38       $pdata$?GetTableIndexFromLocaleName@@YAHPEB_W@Z 0000000180054b38     libucrt:lcidtoname_downlevel.obj
 0004:00002b44       $pdata$__acrt_DownlevelLCIDToLocaleName 0000000180054b44     libucrt:lcidtoname_downlevel.obj
 0004:00002b50       $pdata$__acrt_DownlevelLocaleNameToLCID 0000000180054b50     libucrt:lcidtoname_downlevel.obj
 0004:00002b5c       $pdata$_putwch_nolock      0000000180054b5c     libucrt:putwch.obj
 0004:00002b68       $pdata$??$translate_text_mode_nolock@_W@@YAHHQEA_W_K@Z 0000000180054b68     libucrt:read.obj
 0004:00002b74       $pdata$?translate_ansi_or_utf8_nolock@@YAHHQEAD_KQEA_W1@Z 0000000180054b74     libucrt:read.obj
 0004:00002b80       $pdata$_read               0000000180054b80     libucrt:read.obj
 0004:00002b8c       $pdata$_read_nolock        0000000180054b8c     libucrt:read.obj
 0004:00002b98       $pdata$strncpy_s           0000000180054b98     libucrt:strncpy_s.obj
 0004:00002ba4       $pdata$_getfpcontrolword   0000000180054ba4     libucrt:_fenvutils.obj
 0004:00002bb0       $pdata$_getfpstatusword    0000000180054bb0     libucrt:_fenvutils.obj
 0004:00002bbc       $pdata$_setfpstatusword    0000000180054bbc     libucrt:_fenvutils.obj
 0004:00002bc8       $pdata$_call_matherr       0000000180054bc8     libucrt:libm_error.obj
 0004:00002bd4       $pdata$_exception_enabled  0000000180054bd4     libucrt:libm_error.obj
 0004:00002be0       $pdata$_handle_error       0000000180054be0     libucrt:libm_error.obj
 0004:00002bec       $pdata$_handle_errorf      0000000180054bec     libucrt:libm_error.obj
 0004:00002bf8       $pdata$_towlower_l         0000000180054bf8     libucrt:towlower.obj
 0004:00002c04       $pdata$?shortsort@@YAXPEAD0_KP6AHPEBX2@Z@Z 0000000180054c04     libucrt:qsort.obj
 0004:00002c10       $pdata$2$?shortsort@@YAXPEAD0_KP6AHPEBX2@Z@Z 0000000180054c10     libucrt:qsort.obj
 0004:00002c1c       $pdata$3$?shortsort@@YAXPEAD0_KP6AHPEBX2@Z@Z 0000000180054c1c     libucrt:qsort.obj
 0004:00002c28       $pdata$qsort               0000000180054c28     libucrt:qsort.obj
 0004:00002c34       $pdata$4$qsort             0000000180054c34     libucrt:qsort.obj
 0004:00002c40       $pdata$5$qsort             0000000180054c40     libucrt:qsort.obj
 0004:00002c4c       $pdata$strpbrk             0000000180054c4c     libucrt:strpbrk.obj
 0004:00002c58       $pdata$_mbsdec_l           0000000180054c58     libucrt:mbsdec.obj
 0004:00002c64       $pdata$?initialize_multibyte@@YAHXZ 0000000180054c64     libucrt:multibyte_initializer.obj
 0004:00002c70       $pdata$_wcsnicmp           0000000180054c70     libucrt:wcsnicmp.obj
 0004:00002c7c       $pdata$_wcsnicmp_l         0000000180054c7c     libucrt:wcsnicmp.obj
 0004:00002c88       $pdata$fegetenv            0000000180054c88     libucrt:fegetenv.obj
 0004:00002c94       $pdata$fesetenv            0000000180054c94     libucrt:fesetenv.obj
 0004:00002ca0       $pdata$feholdexcept        0000000180054ca0     libucrt:feholdexcept.obj
 0004:00002cb8       $pdata$__dcrt_lowio_initialize_console_output 0000000180054cb8     libucrt:initcon.obj
 0004:00002cc4       $pdata$__dcrt_terminate_console_output 0000000180054cc4     libucrt:initcon.obj
 0004:00002cd0       $pdata$_clearfp            0000000180054cd0     libucrt:ieee.obj
 0004:00002cdc       $pdata$common_control87    0000000180054cdc     libucrt:ieee.obj
 0004:00002ce8       $pdata$__acrt_LCMapStringW 0000000180054ce8     libucrt:lcmapstringw.obj
 0004:00002cf4       $pdata$_log10_special      0000000180054cf4     libucrt:log_special.obj
 0004:00002d00       $pdata$_log_special_common 0000000180054d00     libucrt:log_special.obj
 0004:00002d0c       $pdata$?DloadAcquireSectionWriteAccess@@YAXXZ 0000000180054d0c     DelayImp:delayhlp.obj
 0004:00002d18       $pdata$?DloadGetSRWLockFunctionPointers@@YAEXZ 0000000180054d18     DelayImp:delayhlp.obj
 0004:00002d24       $pdata$?DloadMakePermanentImageCommit@@YAXPEAX_K@Z 0000000180054d24     DelayImp:delayhlp.obj
 0004:00002d30       $pdata$?DloadObtainSection@@YAPEAXPEAK0@Z 0000000180054d30     DelayImp:delayhlp.obj
 0004:00002d3c       $pdata$?DloadProtectSection@@YAXKPEAK@Z 0000000180054d3c     DelayImp:delayhlp.obj
 0004:00002d48       $pdata$?DloadReleaseSectionWriteAccess@@YAXXZ 0000000180054d48     DelayImp:delayhlp.obj
 0004:00002d54       $pdata$__delayLoadHelper2  0000000180054d54     DelayImp:delayhlp.obj
 0004:00002d60       $pdata$_IsNonwritableInCurrentImage 0000000180054d60     LIBCMT:pesect.obj
 0004:00002d6c       $pdata$strrchr             0000000180054d6c     libvcruntime:strrchr.obj
 0004:00002d78       $pdata$wcschr              0000000180054d78     libvcruntime:wcschr.obj
 0004:00002d84       $pdata$atan2               0000000180054d84     libucrt:atan2.obj
 0004:00002da8       $pdata$fmod                0000000180054da8     libucrt:fmod.obj
 0004:00002dc0       $pdata$sqrt                0000000180054dc0     libucrt:sqrt.obj
 0004:00002dfc       $pdata$_sincos_special     0000000180054dfc     libucrt:sincos_special.obj
 0004:00002e08       $pdata$_exp_special        0000000180054e08     libucrt:exp_special.obj
 0004:00002e20       $pdata$?dtor$0@?0???0?$basic_ostream@DU?$char_traits@D@std@@@std@@QEAA@PEAV?$basic_streambuf@DU?$char_traits@D@std@@@1@_N@Z@4HA 0000000180054e20     libcpmt:cout.obj
 0004:00002e2c       $pdata$?dtor$0@?0??_Getcat@?$codecvt@DDU_Mbstatet@@@std@@SA_KPEAPEBVfacet@locale@2@PEBV42@@Z@4HA 0000000180054e2c     libcpmt:cout.obj
 0004:00002e38       $pdata$__scrt_is_nonwritable_in_current_image$filt$0 0000000180054e38     LIBCMT:utility.obj
 0004:00002e44       $pdata$?fin$0@?0??dllmain_crt_process_attach@@YAHQEAUHINSTANCE__@@QEAX@Z@4HA 0000000180054e44     LIBCMT:dll_dllmain.obj
 0004:00002e50       $pdata$?fin$0@?0??dllmain_crt_process_detach@@YAH_N@Z@4HA 0000000180054e50     LIBCMT:dll_dllmain.obj
 0004:00002e5c       $pdata$?filt$0@?0??dllmain_dispatch@@YAHQEAUHINSTANCE__@@KQEAX@Z@4HA 0000000180054e5c     LIBCMT:dll_dllmain.obj
 0004:00002e68       $pdata$__CxxCallCatchBlock$filt$0 0000000180054e68     libvcruntime:frame.obj
 0004:00002e74       $pdata$__CxxCallCatchBlock$fin$1 0000000180054e74     libvcruntime:frame.obj
 0004:00002e80       $pdata$__DestructExceptionObject$filt$0 0000000180054e80     libvcruntime:frame.obj
 0004:00002e8c       $pdata$__FrameUnwindToState$filt$0 0000000180054e8c     libvcruntime:frame.obj
 0004:00002e98       $pdata$__FrameUnwindToState$fin$1 0000000180054e98     libvcruntime:frame.obj
 0004:00002ea4       $pdata$_CallSETranslator$filt$0 0000000180054ea4     libvcruntime:trnsctrl.obj
 0004:00002eb0       $pdata$fflush$fin$0        0000000180054eb0     libucrt:fflush.obj
 0004:00002eb0       $pdata$fclose$fin$0        0000000180054eb0     libucrt:fclose.obj
 0004:00002ebc       $pdata$common_flush_all$fin$0 0000000180054ebc     libucrt:fflush.obj
 0004:00002ec8       $pdata$common_flush_all$fin$1 0000000180054ec8     libucrt:fflush.obj
 0004:00002ed4       $pdata$fgetc$fin$0         0000000180054ed4     libucrt:fgetc.obj
 0004:00002ee0       $pdata$fputc$fin$0         0000000180054ee0     libucrt:fputc.obj
 0004:00002eec       $pdata$?fin$0@?0???$common_ftell@_J@@YA_JV__crt_stdio_stream@@@Z@4HA 0000000180054eec     libucrt:ftell.obj
 0004:00002eec       $pdata$?fin$0@?0??common_fseek@@YAHV__crt_stdio_stream@@_JH@Z@4HA 0000000180054eec     libucrt:fseek.obj
 0004:00002ef8       $pdata$?fin$0@?0???$?RV<lambda_5d4c3fee44080f75d5d9762853974fe0>@@AEAV<lambda_532e024f4337e6fc7ad266c2bef9f4ed>@@V<lambda_c87bdc10097eb2402edb8ba9bdf0697b>@@@?$__crt_seh_guarded_call@_K@@QEAA_K$$QEAV<lambda_5d4c3fee44080f75d5d9762853974fe0>@@AEAV<lambda_532e024f4337e6fc7ad266c2bef9f4ed>@@$$QEAV<lambda_c87bdc10097eb2402edb8ba9bdf0697b>@@@Z@4HA 0000000180054ef8     libucrt:fwrite.obj
 0004:00002ef8       $pdata$?fin$0@?0???$?RV<lambda_7b91131dde12e1c3dfc74ff76b3f2eac>@@AEAV<lambda_dd75445284c072d0bd3768540cc698fa>@@V<lambda_16bc4ecb55b4718497c16bceaea2ceaf>@@@?$__crt_seh_guarded_call@H@@QEAAH$$QEAV<lambda_7b91131dde12e1c3dfc74ff76b3f2eac>@@AEAV<lambda_dd75445284c072d0bd3768540cc698fa>@@$$QEAV<lambda_16bc4ecb55b4718497c16bceaea2ceaf>@@@Z@4HA 0000000180054ef8     libucrt:output.obj
 0004:00002ef8       $pdata$?fin$0@?0???$?RV<lambda_7a5ef57ff966f610505f1d28a3d40618>@@AEAV<lambda_b721fa326cdb32351d23dfa67958c160>@@V<lambda_5e0fb27672408a07956fe59e48ccb2aa>@@@?$__crt_seh_guarded_call@H@@QEAAH$$QEAV<lambda_7a5ef57ff966f610505f1d28a3d40618>@@AEAV<lambda_b721fa326cdb32351d23dfa67958c160>@@$$QEAV<lambda_5e0fb27672408a07956fe59e48ccb2aa>@@@Z@4HA 0000000180054ef8     libucrt:setvbuf.obj
 0004:00002f04       $pdata$ungetc$fin$0        0000000180054f04     libucrt:ungetc.obj
 0004:00002f10       $pdata$setlocale$fin$0     0000000180054f10     libucrt:setlocale.obj
 0004:00002f1c       $pdata$?filt$0@?0??common_exit@@YAXHW4_crt_exit_cleanup_mode@@W4_crt_exit_return_mode@@@Z@4HA 0000000180054f1c     libucrt:exit.obj
 0004:00002f28       $pdata$?fin$1@?0??common_exit@@YAXHW4_crt_exit_cleanup_mode@@W4_crt_exit_return_mode@@@Z@4HA 0000000180054f28     libucrt:exit.obj
 0004:00002f34       $pdata$?fin$0@?0???$?RV<lambda_e24bbb7b643b32fcea6fa61b31d4c984>@@AEAV<lambda_275893d493268fdec8709772e3fcec0e>@@V<lambda_9d71df4d7cf3f480f8d633942495c3b0>@@@?$__crt_seh_guarded_call@H@@QEAAH$$QEAV<lambda_e24bbb7b643b32fcea6fa61b31d4c984>@@AEAV<lambda_275893d493268fdec8709772e3fcec0e>@@$$QEAV<lambda_9d71df4d7cf3f480f8d633942495c3b0>@@@Z@4HA 0000000180054f34     libucrt:onexit.obj
 0004:00002f40       $pdata$_query_new_handler$fin$0 0000000180054f40     libucrt:new_handler.obj
 0004:00002f4c       $pdata$raise$fin$0         0000000180054f4c     libucrt:signal.obj
 0004:00002f58       $pdata$?fin$0@?0???$?RV<lambda_fb3a7dec4e47f37f22dae91bb15c9095>@@AEAV<lambda_698284760c8add0bfb0756c19673e34b>@@V<lambda_dfb8eca1e75fef3034a8fb18dd509707>@@@?$__crt_seh_guarded_call@X@@QEAAX$$QEAV<lambda_fb3a7dec4e47f37f22dae91bb15c9095>@@AEAV<lambda_698284760c8add0bfb0756c19673e34b>@@$$QEAV<lambda_dfb8eca1e75fef3034a8fb18dd509707>@@@Z@4HA 0000000180054f58     libucrt:per_thread_data.obj
 0004:00002f58       $pdata$?fin$0@?0???$?RV<lambda_b8c45f8f788dd370798f47cfe8ac3a86>@@AEAV<lambda_4e60a939b0d047cfe11ddc22648dfba9>@@V<lambda_332c3edc96d0294ec56c57d38c1cdfd5>@@@?$__crt_seh_guarded_call@H@@QEAAH$$QEAV<lambda_b8c45f8f788dd370798f47cfe8ac3a86>@@AEAV<lambda_4e60a939b0d047cfe11ddc22648dfba9>@@$$QEAV<lambda_332c3edc96d0294ec56c57d38c1cdfd5>@@@Z@4HA 0000000180054f58     libucrt:onexit.obj
 0004:00002f58       $pdata$?fin$0@?0???$?RV<lambda_630b2aca97f6d20d5b5ea6529ea6b6af>@@AEAV<lambda_af91936f1d075d609f72d9d8cba980af>@@V<lambda_e82fa975f615b5c7c7b0e4d178fdae67>@@@?$__crt_seh_guarded_call@H@@QEAAH$$QEAV<lambda_630b2aca97f6d20d5b5ea6529ea6b6af>@@AEAV<lambda_af91936f1d075d609f72d9d8cba980af>@@$$QEAV<lambda_e82fa975f615b5c7c7b0e4d178fdae67>@@@Z@4HA 0000000180054f58     libucrt:winapi_thunks.obj
 0004:00002f58       $pdata$?fin$0@?0???$?RV<lambda_d67e8342c384adda8f857579ab50b2ae>@@AEAV<lambda_30712929f77e709619002f448b6a9510>@@V<lambda_4525336fd7e478d965fb7ca7a337cad8>@@@?$__crt_seh_guarded_call@X@@QEAAX$$QEAV<lambda_d67e8342c384adda8f857579ab50b2ae>@@AEAV<lambda_30712929f77e709619002f448b6a9510>@@$$QEAV<lambda_4525336fd7e478d965fb7ca7a337cad8>@@@Z@4HA 0000000180054f58     libucrt:wsetlocale.obj
 0004:00002f58       $pdata$?fin$0@?0???$?RV<lambda_46352004c1216016012b18bd6f87e700>@@AEAV<lambda_3bd07e1a1191394380780325891bf33f>@@V<lambda_334532d3f185bcaa59b5be82d7d22bff>@@@?$__crt_seh_guarded_call@X@@QEAAX$$QEAV<lambda_46352004c1216016012b18bd6f87e700>@@AEAV<lambda_3bd07e1a1191394380780325891bf33f>@@$$QEAV<lambda_334532d3f185bcaa59b5be82d7d22bff>@@@Z@4HA 0000000180054f58     libucrt:per_thread_data.obj
 0004:00002f58       $pdata$?fin$0@?0???$?RV<lambda_99476a1ad63dd22509b5d3e65b0ffc95>@@AEAV<lambda_ad1ced32f4ac17aa236e5ef05d6b3b7c>@@V<lambda_f7424dd8d45958661754dc4f2697e9c3>@@@?$__crt_seh_guarded_call@X@@QEAAX$$QEAV<lambda_99476a1ad63dd22509b5d3e65b0ffc95>@@AEAV<lambda_ad1ced32f4ac17aa236e5ef05d6b3b7c>@@$$QEAV<lambda_f7424dd8d45958661754dc4f2697e9c3>@@@Z@4HA 0000000180054f58     libucrt:mbctype.obj
 0004:00002f58       $pdata$?fin$0@?0???$?RV<lambda_72d1df2b273a38828b1ce30cbf4cdab5>@@AEAV<lambda_876a65b173b8412d3a47c70a915b0cf4>@@V<lambda_41932305e351933ebe8f8be3ed8bb5dc>@@@?$__crt_seh_guarded_call@X@@QEAAX$$QEAV<lambda_72d1df2b273a38828b1ce30cbf4cdab5>@@AEAV<lambda_876a65b173b8412d3a47c70a915b0cf4>@@$$QEAV<lambda_41932305e351933ebe8f8be3ed8bb5dc>@@@Z@4HA 0000000180054f58     libucrt:per_thread_data.obj
 0004:00002f58       $pdata$?fin$0@?0???$?RV<lambda_c36588078e9f5dfd39652860aa6b3aaf>@@AEAV<lambda_ec61778202f4f5fc7e7711acc23c3bca>@@V<lambda_dc9d2797ccde5d239b4a0efae8ebd7db>@@@?$__crt_seh_guarded_call@P6AXH@Z@@QEAAP6AXH@Z$$QEAV<lambda_c36588078e9f5dfd39652860aa6b3aaf>@@AEAV<lambda_ec61778202f4f5fc7e7711acc23c3bca>@@$$QEAV<lambda_dc9d2797ccde5d239b4a0efae8ebd7db>@@@Z@4HA 0000000180054f58     libucrt:signal.obj
 0004:00002f58       $pdata$?fin$0@?0???$?RV<lambda_5e887d1dcbef67a5eb4283622ba103bf>@@AEAV<lambda_4466841279450cc726390878d4a41900>@@V<lambda_341c25c0346d94847f1f3c463c57e077>@@@?$__crt_seh_guarded_call@X@@QEAAX$$QEAV<lambda_5e887d1dcbef67a5eb4283622ba103bf>@@AEAV<lambda_4466841279450cc726390878d4a41900>@@$$QEAV<lambda_341c25c0346d94847f1f3c463c57e077>@@@Z@4HA 0000000180054f58     libucrt:per_thread_data.obj
 0004:00002f64       $pdata$?fin$0@?0???$?RV<lambda_5df02c53a8f32f81fd64e5bbb78039f1>@@AEAV<lambda_2af78c5f5901b1372d98f9ab3177dfa6>@@AEAV<lambda_f51fe5fd7c79a33db34fc9310f277369>@@@?$__crt_seh_guarded_call@X@@QEAAX$$QEAV<lambda_5df02c53a8f32f81fd64e5bbb78039f1>@@AEAV<lambda_2af78c5f5901b1372d98f9ab3177dfa6>@@AEAV<lambda_f51fe5fd7c79a33db34fc9310f277369>@@@Z@4HA 0000000180054f64     libucrt:wsetlocale.obj
 0004:00002f70       $pdata$__acrt_lowio_ensure_fh_exists$fin$0 0000000180054f70     libucrt:osfinfo.obj
 0004:00002f70       $pdata$__acrt_initialize_lowio$fin$0 0000000180054f70     libucrt:ioinit.obj
 0004:00002f7c       $pdata$_ctrlfp$filt$0      0000000180054f7c     libucrt:fpctrl.obj
 0004:00002f7c       $pdata$common_control87$filt$0 0000000180054f7c     libucrt:ieee.obj
 0004:00002f88       $pdata$_fcloseall$fin$0    0000000180054f88     libucrt:closeall.obj
 0004:00002f94       $pdata$?fin$0@?0???$?RV<lambda_b521505b218e5242e90febf6bfebc422>@@AEAV<lambda_6978c1fb23f02e42e1d9e99668cc68aa>@@V<lambda_314360699dd331753a4119843814e9a7>@@@?$__crt_seh_guarded_call@H@@QEAAH$$QEAV<lambda_b521505b218e5242e90febf6bfebc422>@@AEAV<lambda_6978c1fb23f02e42e1d9e99668cc68aa>@@$$QEAV<lambda_314360699dd331753a4119843814e9a7>@@@Z@4HA 0000000180054f94     libucrt:commit.obj
 0004:00002f94       $pdata$?fin$0@?0???$?RV<lambda_bfedae4ebbf01fab1bb6dcc6a9e276e0>@@AEAV<lambda_2fe9b910cf3cbf4a0ab98a02ba45b3ec>@@V<lambda_237c231691f317818eb88cc1d5d642d6>@@@?$__crt_seh_guarded_call@H@@QEAAH$$QEAV<lambda_bfedae4ebbf01fab1bb6dcc6a9e276e0>@@AEAV<lambda_2fe9b910cf3cbf4a0ab98a02ba45b3ec>@@$$QEAV<lambda_237c231691f317818eb88cc1d5d642d6>@@@Z@4HA 0000000180054f94     libucrt:close.obj
 0004:00002fa0       $pdata$?fin$0@?0???$common_lseek@_J@@YA_JH_JH@Z@4HA 0000000180054fa0     libucrt:lseek.obj
 0004:00002fa0       $pdata$_write$fin$0        0000000180054fa0     libucrt:write.obj
 0004:00002fa0       $pdata$_read$fin$0         0000000180054fa0     libucrt:read.obj
 0004:00002fac       $pdata$__acrt_update_thread_multibyte_data$fin$0 0000000180054fac     libucrt:mbctype.obj
 0004:00002fb8       $pdata$__acrt_update_thread_locale_data$fin$0 0000000180054fb8     libucrt:locale_refcounting.obj
 0004:00002fb8       $pdata$__acrt_uninitialize_locale$fin$0 0000000180054fb8     libucrt:wsetlocale.obj
 0004:00002fc4       $pdata$_IsNonwritableInCurrentImage$filt$0 0000000180054fc4     LIBCMT:pesect.obj
 0004:00002fd0       $pdata$??__Fcout@std@@YAXXZ 0000000180054fd0     libcpmt:cout.obj
 0004:00002fdc       $pdata$??__F_Fac_tidy_reg@std@@YAXXZ 0000000180054fdc     libcpmt:locale0.obj
 0004:00002fe8       $pdata$??__Fclassic_locale@std@@YAXXZ 0000000180054fe8     libcpmt:locale0.obj
 0004:00002ff4       $pdata$??__Finit_atexit@@YAXXZ 0000000180054ff4     libcpmt:iosptrs.obj
 0005:00000000       __guard_fids__             0000000180055000     libucrt:initialization.obj
 0005:00000060       __guard_fids___acrt_initialize_ptd 0000000180055060     libucrt:per_thread_data.obj
 0005:00000064       __guard_fids__             0000000180055064     libucrt:wsetlocale.obj
 0005:0000007c       __guard_fids___acrt_show_wide_message_box 000000018005507c     libucrt:crtmbox.obj
 0005:00000080       __guard_fids_??$?RV<lambda_630b2aca97f6d20d5b5ea6529ea6b6af>@@AEAV<lambda_af91936f1d075d609f72d9d8cba980af>@@V<lambda_e82fa975f615b5c7c7b0e4d178fdae67>@@@?$__crt_seh_guarded_call@H@@QEAAH$$QEAV<lambda_630b2aca97f6d20d5b5ea6529ea6b6af>@@AEAV<lambda_af91936f1d075d609f72d9d8cba980af>@@$$QEAV<lambda_e82fa975f615b5c7c7b0e4d178fdae67>@@@Z 0000000180055080     libucrt:winapi_thunks.obj
 0005:00000084       __guard_fids__             0000000180055084     libucrt:stdio_initializer.obj
 0005:00000088       __guard_fids__             0000000180055088     libucrt:stdio_initializer.obj
 0005:0000008c       __guard_fids_??$expand_argument_wildcards@D@@YAHQEAD0AEAV?$argument_list@D@?A0xca0879c4@@@Z 000000018005508c     libucrt:argv_wildcards.obj
 0005:00000090       __guard_fids__             0000000180055090     libucrt:locale_initializer.obj
 0005:00000094       __guard_fids_GetLocaleNameFromLangCountry 0000000180055094     libucrt:get_qualified_locale.obj
 0005:00000098       __guard_fids_GetLocaleNameFromLanguage 0000000180055098     libucrt:get_qualified_locale.obj
 0005:0000009c       __guard_fids___acrt_get_qualified_locale_downlevel 000000018005509c     libucrt:getqloc_downlevel.obj
 0005:000000a0       __guard_fids_GetLcidFromLangCountry 00000001800550a0     libucrt:getqloc_downlevel.obj
 0005:000000a4       __guard_fids_GetLcidFromLanguage 00000001800550a4     libucrt:getqloc_downlevel.obj
 0005:000000a8       __guard_fids__             00000001800550a8     libucrt:fma3_initializer.obj
 0005:000000ac       __guard_fids__             00000001800550ac     libucrt:timeset_initializer.obj
 0005:000000b0       __guard_fids__             00000001800550b0     libucrt:multibyte_initializer.obj
 0005:000000b4       __guard_fids__             00000001800550b4     libucrt:console_output_initializer.obj
 0005:000000b8       __guard_fids_??__Einitlocks@std@@YAXXZ 00000001800550b8     libcpmt:xlock.obj
 0005:000000bc       __guard_fids__             00000001800550bc     libcpmt:xlock.obj
 0005:000000c0       __guard_fids_??__Einitlocks@@YAXXZ 00000001800550c0     libcpmt:cout.obj
 0005:000000c4       __guard_fids_??__Efout@std@@YAXXZ 00000001800550c4     libcpmt:cout.obj
 0005:000000c8       __guard_fids_??__Ecout@std@@YAXXZ 00000001800550c8     libcpmt:cout.obj
 0005:000000cc       __guard_fids__             00000001800550cc     libcpmt:cout.obj
 0005:000000d4       __guard_fids__             00000001800550d4     libcpmt:cout.obj
 0005:000000dc       __guard_fids__             00000001800550dc     libcpmt:cout.obj
 0005:000000e4       __guard_fids__             00000001800550e4     libcpmt:cout.obj
 0005:000000f0       __guard_fids__             00000001800550f0     libcpmt:cout.obj
 0005:0000011c       __guard_fids__             000000018005511c     libcpmt:cout.obj
 0005:00000134       __guard_fids__             0000000180055134     libcpmt:cout.obj
 0005:0000013c       __guard_fids__             000000018005513c     libcpmt:cout.obj
 0005:00000154       __guard_fids__             0000000180055154     libcpmt:cout.obj
 0005:0000015c       __guard_fids__             000000018005515c     libcpmt:cout.obj
 0005:00000160       __guard_fids__             0000000180055160     libcpmt:cout.obj
 0005:0000019c       __guard_fids__             000000018005519c     libcpmt:cout.obj
 0005:000001d8       __guard_fids__             00000001800551d8     libcpmt:cout.obj
 0005:000001dc       __guard_fids__             00000001800551dc     libcpmt:cout.obj
 0005:000001e0       __guard_fids__             00000001800551e0     libcpmt:cout.obj
 0005:00000208       __guard_fids__             0000000180055208     libcpmt:cout.obj
 0005:0000020c       __guard_fids__             000000018005520c     libcpmt:cout.obj
 0005:00000210       __guard_fids__             0000000180055210     libcpmt:cout.obj
 0005:00000214       __guard_fids__             0000000180055214     libcpmt:cout.obj
 0005:00000218       __guard_fids_??__E_Fac_tidy_reg@std@@YAXXZ 0000000180055218     libcpmt:locale0.obj
 0005:0000021c       __guard_fids_?_Setgloballocale@locale@std@@CAXPEAX@Z 000000018005521c     libcpmt:locale0.obj
 0005:00000220       __guard_fids_??__Eclassic_locale@std@@YAXXZ 0000000180055220     libcpmt:locale0.obj
 0005:00000224       __guard_fids__             0000000180055224     libcpmt:locale0.obj
 0005:00000230       __guard_fids__             0000000180055230     libcpmt:locale0.obj
 0005:00000234       __guard_fids__             0000000180055234     libcpmt:locale0.obj
 0005:00000238       __guard_fids__             0000000180055238     libcpmt:xthrow.obj
 0005:00000240       __guard_fids__             0000000180055240     libcpmt:xthrow.obj
 0005:00000248       __guard_fids__             0000000180055248     libcpmt:xthrow.obj
 0005:00000250       __guard_fids__             0000000180055250     libcpmt:xthrow.obj
 0005:00000258       __guard_fids_??__Einitlocks@std@@YAXXZ 0000000180055258     libcpmt:iosptrs.obj
 0005:0000025c       __guard_fids_??__Einit_atexit@@YAXXZ 000000018005525c     libcpmt:iosptrs.obj
 0005:00000260       __guard_fids__             0000000180055260     libcpmt:iosptrs.obj
 0005:00000264       __guard_fids__             0000000180055264     libcpmt:iosptrs.obj
 0005:00000268       __guard_fids__             0000000180055268     libcpmt:winapisupp.obj
 0005:0000026c       __guard_fids__             000000018005526c     LIBCMT:thread_safe_statics.obj
 0005:00000270       __guard_fids_?__scrt_initialize_thread_safe_statics@@YAHXZ 0000000180055270     LIBCMT:thread_safe_statics.obj
 0005:00000274       __guard_fids_?dllmain_crt_process_attach@@YAHQEAUHINSTANCE__@@QEAX@Z 0000000180055274     LIBCMT:dll_dllmain.obj
 0005:0000027c       __guard_fids_?dllmain_dispatch@@YAHQEAUHINSTANCE__@@KQEAX@Z 000000018005527c     LIBCMT:dll_dllmain.obj
 0005:00000280       __guard_fids__             0000000180055280     LIBCMT:std_type_info_static.obj
 0005:00000284       __guard_fids__             0000000180055284     LIBCMT:throw_bad_alloc.obj
 0005:0000028c       __guard_fids__             000000018005528c     LIBCMT:guard_support.obj
 0005:00000290       __guard_fids__             0000000180055290     libvcruntime:frame.obj
 0005:00000294       __guard_fids__             0000000180055294     libvcruntime:frame.obj
 0005:0000029c       __guard_fids__UnwindNestedFrames 000000018005529c     libvcruntime:trnsctrl.obj
 0005:000002a0       __guard_fids__             00000001800552a0     libvcruntime:telemetry.obj
 0005:000002a4       __guard_fids_?TraceLoggingRegister@__vcrt_trace_logging_provider@@YAJPEBU_TlgProvider_t@1@PEBU_GUID@@P6AX1KE_K2PEAU_EVENT_FILTER_DESCRIPTOR@@PEAX@Z4@Z 00000001800552a4     libvcruntime:telemetry.obj
 0005:000002a8       __guard_fids___vcrt_initialize_ptd 00000001800552a8     libvcruntime:per_thread_data.obj
 0007:00000060       $R000000                   0000000180057060     * linker generated manifest res *

 Exports

  ordinal    name

        1    _register_addon_
